
firmware.elf:     file format elf32-littlearm

Sections:
Idx Name          Size      VMA       LMA       File off  Algn
  0 .text         00007914  00400000  00400000  00010000  2**6
                  CONTENTS, ALLOC, LOAD, READONLY, CODE
  1 .ARM.exidx    00000008  00407914  00407914  00017914  2**2
                  CONTENTS, ALLOC, LOAD, READONLY, DATA
  2 .relocate     000009c0  20000000  0040791c  00020000  2**3
                  CONTENTS, ALLOC, LOAD, CODE
  3 .bss          00018d60  200009c0  004082dc  000209c0  2**2
                  ALLOC
  4 .stack        00003000  20019720  0042103c  000209c0  2**0
                  ALLOC
  5 .ARM.attributes 0000002a  00000000  00000000  000209c0  2**0
                  CONTENTS, READONLY
  6 .comment      00000059  00000000  00000000  000209ea  2**0
                  CONTENTS, READONLY
  7 .debug_info   00019f23  00000000  00000000  00020a43  2**0
                  CONTENTS, READONLY, DEBUGGING
  8 .debug_abbrev 00003a71  00000000  00000000  0003a966  2**0
                  CONTENTS, READONLY, DEBUGGING
  9 .debug_loc    00005a4d  00000000  00000000  0003e3d7  2**0
                  CONTENTS, READONLY, DEBUGGING
 10 .debug_aranges 00000b78  00000000  00000000  00043e24  2**0
                  CONTENTS, READONLY, DEBUGGING
 11 .debug_ranges 00000ad8  00000000  00000000  0004499c  2**0
                  CONTENTS, READONLY, DEBUGGING
 12 .debug_macro  0000802d  00000000  00000000  00045474  2**0
                  CONTENTS, READONLY, DEBUGGING
 13 .debug_line   0000fe6f  00000000  00000000  0004d4a1  2**0
                  CONTENTS, READONLY, DEBUGGING
 14 .debug_str    00052f63  00000000  00000000  0005d310  2**0
                  CONTENTS, READONLY, DEBUGGING
 15 .debug_frame  000025d0  00000000  00000000  000b0274  2**2
                  CONTENTS, READONLY, DEBUGGING

Disassembly of section .text:

00400000 <exception_table>:
  400000:	20 c7 01 20 f9 15 40 00 f5 15 40 00 f5 15 40 00      .. ..@...@...@.
  400010:	f5 15 40 00 f5 15 40 00 f5 15 40 00 00 00 00 00     ..@...@...@.....
	...
  40002c:	f5 15 40 00 f5 15 40 00 00 00 00 00 f5 15 40 00     ..@...@.......@.
  40003c:	f5 15 40 00 f5 15 40 00 f5 15 40 00 f5 15 40 00     ..@...@...@...@.
  40004c:	f5 15 40 00 f5 15 40 00 f5 15 40 00 f5 15 40 00     ..@...@...@...@.
  40005c:	00 00 00 00 f5 15 40 00 f5 15 40 00 00 00 00 00     ......@...@.....
  40006c:	11 02 40 00 25 02 40 00 00 00 00 00 35 0d 40 00     ..@.%.@.....5.@.
  40007c:	f5 15 40 00 00 00 00 00 00 00 00 00 f5 15 40 00     ..@...........@.
  40008c:	f5 15 40 00 f5 15 40 00 31 0f 40 00 f5 15 40 00     ..@...@.1.@...@.
  40009c:	6d 0c 40 00 f5 15 40 00 f5 15 40 00 00 00 00 00     m.@...@...@.....
	...
  4000b4:	f5 15 40 00 f5 15 40 00 f5 15 40 00 f5 15 40 00     ..@...@...@...@.
  4000c4:	f5 15 40 00 f5 15 40 00                             ..@...@.

004000cc <__do_global_dtors_aux>:
  4000cc:	b510      	push	{r4, lr}
  4000ce:	4c05      	ldr	r4, [pc, #20]	; (4000e4 <__do_global_dtors_aux+0x18>)
  4000d0:	7823      	ldrb	r3, [r4, #0]
  4000d2:	b933      	cbnz	r3, 4000e2 <__do_global_dtors_aux+0x16>
  4000d4:	4b04      	ldr	r3, [pc, #16]	; (4000e8 <__do_global_dtors_aux+0x1c>)
  4000d6:	b113      	cbz	r3, 4000de <__do_global_dtors_aux+0x12>
  4000d8:	4804      	ldr	r0, [pc, #16]	; (4000ec <__do_global_dtors_aux+0x20>)
  4000da:	f3af 8000 	nop.w
  4000de:	2301      	movs	r3, #1
  4000e0:	7023      	strb	r3, [r4, #0]
  4000e2:	bd10      	pop	{r4, pc}
  4000e4:	200009c0 	.word	0x200009c0
  4000e8:	00000000 	.word	0x00000000
  4000ec:	0040791c 	.word	0x0040791c

004000f0 <frame_dummy>:
  4000f0:	4b0c      	ldr	r3, [pc, #48]	; (400124 <frame_dummy+0x34>)
  4000f2:	b143      	cbz	r3, 400106 <frame_dummy+0x16>
  4000f4:	480c      	ldr	r0, [pc, #48]	; (400128 <frame_dummy+0x38>)
  4000f6:	490d      	ldr	r1, [pc, #52]	; (40012c <frame_dummy+0x3c>)
  4000f8:	b510      	push	{r4, lr}
  4000fa:	f3af 8000 	nop.w
  4000fe:	480c      	ldr	r0, [pc, #48]	; (400130 <frame_dummy+0x40>)
  400100:	6803      	ldr	r3, [r0, #0]
  400102:	b923      	cbnz	r3, 40010e <frame_dummy+0x1e>
  400104:	bd10      	pop	{r4, pc}
  400106:	480a      	ldr	r0, [pc, #40]	; (400130 <frame_dummy+0x40>)
  400108:	6803      	ldr	r3, [r0, #0]
  40010a:	b933      	cbnz	r3, 40011a <frame_dummy+0x2a>
  40010c:	4770      	bx	lr
  40010e:	4b09      	ldr	r3, [pc, #36]	; (400134 <frame_dummy+0x44>)
  400110:	2b00      	cmp	r3, #0
  400112:	d0f7      	beq.n	400104 <frame_dummy+0x14>
  400114:	e8bd 4010 	ldmia.w	sp!, {r4, lr}
  400118:	4718      	bx	r3
  40011a:	4b06      	ldr	r3, [pc, #24]	; (400134 <frame_dummy+0x44>)
  40011c:	2b00      	cmp	r3, #0
  40011e:	d0f5      	beq.n	40010c <frame_dummy+0x1c>
  400120:	4718      	bx	r3
  400122:	bf00      	nop
  400124:	00000000 	.word	0x00000000
  400128:	0040791c 	.word	0x0040791c
  40012c:	200009c4 	.word	0x200009c4
  400130:	0040791c 	.word	0x0040791c
  400134:	00000000 	.word	0x00000000

00400138 <pio_handler_process>:
  400138:	e92d 43f8 	stmdb	sp!, {r3, r4, r5, r6, r7, r8, r9, lr}
  40013c:	4681      	mov	r9, r0
  40013e:	460f      	mov	r7, r1
  400140:	4b12      	ldr	r3, [pc, #72]	; (40018c <pio_handler_process+0x54>)
  400142:	4798      	blx	r3
  400144:	4605      	mov	r5, r0
  400146:	4648      	mov	r0, r9
  400148:	4b11      	ldr	r3, [pc, #68]	; (400190 <pio_handler_process+0x58>)
  40014a:	4798      	blx	r3
  40014c:	4005      	ands	r5, r0
  40014e:	d013      	beq.n	400178 <pio_handler_process+0x40>
  400150:	4c10      	ldr	r4, [pc, #64]	; (400194 <pio_handler_process+0x5c>)
  400152:	f104 0660 	add.w	r6, r4, #96	; 0x60
  400156:	e003      	b.n	400160 <pio_handler_process+0x28>
  400158:	42b4      	cmp	r4, r6
  40015a:	d00d      	beq.n	400178 <pio_handler_process+0x40>
  40015c:	3410      	adds	r4, #16
  40015e:	b15d      	cbz	r5, 400178 <pio_handler_process+0x40>
  400160:	6820      	ldr	r0, [r4, #0]
  400162:	42b8      	cmp	r0, r7
  400164:	d1f8      	bne.n	400158 <pio_handler_process+0x20>
  400166:	6861      	ldr	r1, [r4, #4]
  400168:	4229      	tst	r1, r5
  40016a:	d0f5      	beq.n	400158 <pio_handler_process+0x20>
  40016c:	68e3      	ldr	r3, [r4, #12]
  40016e:	4798      	blx	r3
  400170:	6863      	ldr	r3, [r4, #4]
  400172:	ea25 0503 	bic.w	r5, r5, r3
  400176:	e7ef      	b.n	400158 <pio_handler_process+0x20>
  400178:	4b07      	ldr	r3, [pc, #28]	; (400198 <pio_handler_process+0x60>)
  40017a:	681b      	ldr	r3, [r3, #0]
  40017c:	b123      	cbz	r3, 400188 <pio_handler_process+0x50>
  40017e:	4b07      	ldr	r3, [pc, #28]	; (40019c <pio_handler_process+0x64>)
  400180:	681b      	ldr	r3, [r3, #0]
  400182:	b10b      	cbz	r3, 400188 <pio_handler_process+0x50>
  400184:	4648      	mov	r0, r9
  400186:	4798      	blx	r3
  400188:	e8bd 83f8 	ldmia.w	sp!, {r3, r4, r5, r6, r7, r8, r9, pc}
  40018c:	00401227 	.word	0x00401227
  400190:	0040122b 	.word	0x0040122b
  400194:	200009dc 	.word	0x200009dc
  400198:	20019564 	.word	0x20019564
  40019c:	20000a50 	.word	0x20000a50

004001a0 <pio_handler_set>:
  4001a0:	b5f8      	push	{r3, r4, r5, r6, r7, lr}
  4001a2:	4c18      	ldr	r4, [pc, #96]	; (400204 <pio_handler_set+0x64>)
  4001a4:	6826      	ldr	r6, [r4, #0]
  4001a6:	2e06      	cmp	r6, #6
  4001a8:	d829      	bhi.n	4001fe <pio_handler_set+0x5e>
  4001aa:	f04f 0c00 	mov.w	ip, #0
  4001ae:	4664      	mov	r4, ip
  4001b0:	4f15      	ldr	r7, [pc, #84]	; (400208 <pio_handler_set+0x68>)
  4001b2:	e004      	b.n	4001be <pio_handler_set+0x1e>
  4001b4:	3401      	adds	r4, #1
  4001b6:	b2e4      	uxtb	r4, r4
  4001b8:	46a4      	mov	ip, r4
  4001ba:	42a6      	cmp	r6, r4
  4001bc:	d309      	bcc.n	4001d2 <pio_handler_set+0x32>
  4001be:	46a6      	mov	lr, r4
  4001c0:	0125      	lsls	r5, r4, #4
  4001c2:	597d      	ldr	r5, [r7, r5]
  4001c4:	428d      	cmp	r5, r1
  4001c6:	d1f5      	bne.n	4001b4 <pio_handler_set+0x14>
  4001c8:	eb07 1504 	add.w	r5, r7, r4, lsl #4
  4001cc:	686d      	ldr	r5, [r5, #4]
  4001ce:	4295      	cmp	r5, r2
  4001d0:	d1f0      	bne.n	4001b4 <pio_handler_set+0x14>
  4001d2:	4d0d      	ldr	r5, [pc, #52]	; (400208 <pio_handler_set+0x68>)
  4001d4:	ea4f 1e0e 	mov.w	lr, lr, lsl #4
  4001d8:	eb05 040e 	add.w	r4, r5, lr
  4001dc:	f845 100e 	str.w	r1, [r5, lr]
  4001e0:	6062      	str	r2, [r4, #4]
  4001e2:	60a3      	str	r3, [r4, #8]
  4001e4:	9906      	ldr	r1, [sp, #24]
  4001e6:	60e1      	str	r1, [r4, #12]
  4001e8:	3601      	adds	r6, #1
  4001ea:	4566      	cmp	r6, ip
  4001ec:	bf04      	itt	eq
  4001ee:	4905      	ldreq	r1, [pc, #20]	; (400204 <pio_handler_set+0x64>)
  4001f0:	600e      	streq	r6, [r1, #0]
  4001f2:	4611      	mov	r1, r2
  4001f4:	461a      	mov	r2, r3
  4001f6:	4b05      	ldr	r3, [pc, #20]	; (40020c <pio_handler_set+0x6c>)
  4001f8:	4798      	blx	r3
  4001fa:	2000      	movs	r0, #0
  4001fc:	bdf8      	pop	{r3, r4, r5, r6, r7, pc}
  4001fe:	2001      	movs	r0, #1
  400200:	bdf8      	pop	{r3, r4, r5, r6, r7, pc}
  400202:	bf00      	nop
  400204:	20000a4c 	.word	0x20000a4c
  400208:	200009dc 	.word	0x200009dc
  40020c:	004011f1 	.word	0x004011f1

00400210 <PIOA_Handler>:
  400210:	b508      	push	{r3, lr}
  400212:	210b      	movs	r1, #11
  400214:	4801      	ldr	r0, [pc, #4]	; (40021c <PIOA_Handler+0xc>)
  400216:	4b02      	ldr	r3, [pc, #8]	; (400220 <PIOA_Handler+0x10>)
  400218:	4798      	blx	r3
  40021a:	bd08      	pop	{r3, pc}
  40021c:	400e0e00 	.word	0x400e0e00
  400220:	00400139 	.word	0x00400139

00400224 <PIOB_Handler>:
  400224:	b508      	push	{r3, lr}
  400226:	210c      	movs	r1, #12
  400228:	4801      	ldr	r0, [pc, #4]	; (400230 <PIOB_Handler+0xc>)
  40022a:	4b02      	ldr	r3, [pc, #8]	; (400234 <PIOB_Handler+0x10>)
  40022c:	4798      	blx	r3
  40022e:	bd08      	pop	{r3, pc}
  400230:	400e1000 	.word	0x400e1000
  400234:	00400139 	.word	0x00400139

00400238 <spi_enable_clock>:
 * \brief Enable SPI clock.
 *
 * \param p_spi Pointer to an SPI instance.
 */
void spi_enable_clock(Spi *p_spi)
{
  400238:	b508      	push	{r3, lr}
 *
 * \param ul_id Id (number) of the peripheral clock.
 */
static inline void sysclk_enable_peripheral_clock(uint32_t ul_id)
{
	pmc_enable_periph_clk(ul_id);
  40023a:	2015      	movs	r0, #21
  40023c:	4b01      	ldr	r3, [pc, #4]	; (400244 <spi_enable_clock+0xc>)
  40023e:	4798      	blx	r3
  400240:	bd08      	pop	{r3, pc}
  400242:	bf00      	nop
  400244:	0040149d 	.word	0x0040149d

00400248 <spi_set_peripheral_chip_select_value>:
 *                 \ref spi_enable_peripheral_select_decode,
 *                 \ref spi_disable_peripheral_select_decode.
 */
void spi_set_peripheral_chip_select_value(Spi *p_spi, uint32_t ul_value)
{
	p_spi->SPI_MR &= (~SPI_MR_PCS_Msk);
  400248:	6843      	ldr	r3, [r0, #4]
  40024a:	f423 2370 	bic.w	r3, r3, #983040	; 0xf0000
  40024e:	6043      	str	r3, [r0, #4]
	p_spi->SPI_MR |= SPI_MR_PCS(ul_value);
  400250:	6843      	ldr	r3, [r0, #4]
  400252:	0409      	lsls	r1, r1, #16
  400254:	f401 2170 	and.w	r1, r1, #983040	; 0xf0000
  400258:	4319      	orrs	r1, r3
  40025a:	6041      	str	r1, [r0, #4]
  40025c:	4770      	bx	lr

0040025e <spi_read>:
 *
 * \retval SPI_OK on Success.
 * \retval SPI_ERROR_TIMEOUT on Time-out.
 */
spi_status_t spi_read(Spi *p_spi, uint16_t *us_data, uint8_t *p_pcs)
{
  40025e:	b410      	push	{r4}
	uint32_t timeout = SPI_TIMEOUT;
	static uint32_t reg_value;

	while (!(p_spi->SPI_SR & SPI_SR_RDRF)) {
  400260:	f643 2399 	movw	r3, #15001	; 0x3a99
  400264:	6904      	ldr	r4, [r0, #16]
  400266:	f014 0f01 	tst.w	r4, #1
  40026a:	d103      	bne.n	400274 <spi_read+0x16>
		if (!timeout--) {
  40026c:	3b01      	subs	r3, #1
  40026e:	d1f9      	bne.n	400264 <spi_read+0x6>
			return SPI_ERROR_TIMEOUT;
  400270:	2001      	movs	r0, #1
  400272:	e009      	b.n	400288 <spi_read+0x2a>
		}
	}

	reg_value = p_spi->SPI_RDR;
  400274:	6883      	ldr	r3, [r0, #8]
 *
 * \return 1 for Variable mode, 0 for fixed mode.
 */
static inline uint32_t spi_get_peripheral_select_mode(Spi *p_spi)
{
	if (p_spi->SPI_MR & SPI_MR_PS) {
  400276:	6840      	ldr	r0, [r0, #4]
	if (spi_get_peripheral_select_mode(p_spi)) {
  400278:	f010 0f02 	tst.w	r0, #2
		*p_pcs = (uint8_t) ((reg_value & SPI_RDR_PCS_Msk) >> SPI_RDR_PCS_Pos);
  40027c:	bf1c      	itt	ne
  40027e:	f3c3 4003 	ubfxne	r0, r3, #16, #4
  400282:	7010      	strbne	r0, [r2, #0]
	}
	*us_data = (uint16_t) (reg_value & SPI_RDR_RD_Msk);
  400284:	800b      	strh	r3, [r1, #0]

	return SPI_OK;
  400286:	2000      	movs	r0, #0
}
  400288:	bc10      	pop	{r4}
  40028a:	4770      	bx	lr

0040028c <spi_write>:
 * \retval SPI_OK on Success.
 * \retval SPI_ERROR_TIMEOUT on Time-out.
 */
spi_status_t spi_write(Spi *p_spi, uint16_t us_data,
		uint8_t uc_pcs, uint8_t uc_last)
{
  40028c:	b430      	push	{r4, r5}
	uint32_t timeout = SPI_TIMEOUT;
	uint32_t value;

	while (!(p_spi->SPI_SR & SPI_SR_TDRE)) {
  40028e:	f643 2499 	movw	r4, #15001	; 0x3a99
  400292:	6905      	ldr	r5, [r0, #16]
  400294:	f015 0f02 	tst.w	r5, #2
  400298:	d103      	bne.n	4002a2 <spi_write+0x16>
		if (!timeout--) {
  40029a:	3c01      	subs	r4, #1
  40029c:	d1f9      	bne.n	400292 <spi_write+0x6>
			return SPI_ERROR_TIMEOUT;
  40029e:	2001      	movs	r0, #1
  4002a0:	e00c      	b.n	4002bc <spi_write+0x30>
  4002a2:	6844      	ldr	r4, [r0, #4]
		}
	}

	if (spi_get_peripheral_select_mode(p_spi)) {
  4002a4:	f014 0f02 	tst.w	r4, #2
  4002a8:	d006      	beq.n	4002b8 <spi_write+0x2c>
		value = SPI_TDR_TD(us_data) | SPI_TDR_PCS(uc_pcs);
  4002aa:	0412      	lsls	r2, r2, #16
  4002ac:	f402 2270 	and.w	r2, r2, #983040	; 0xf0000
  4002b0:	4311      	orrs	r1, r2
		if (uc_last) {
  4002b2:	b10b      	cbz	r3, 4002b8 <spi_write+0x2c>
			value |= SPI_TDR_LASTXFER;
  4002b4:	f041 7180 	orr.w	r1, r1, #16777216	; 0x1000000
		}
	} else {
		value = SPI_TDR_TD(us_data);
	}

	p_spi->SPI_TDR = value;
  4002b8:	60c1      	str	r1, [r0, #12]

	return SPI_OK;
  4002ba:	2000      	movs	r0, #0
}
  4002bc:	bc30      	pop	{r4, r5}
  4002be:	4770      	bx	lr

004002c0 <spi_set_clock_polarity>:
 * \param ul_polarity Default clock state is logical one(high)/zero(low).
 */
void spi_set_clock_polarity(Spi *p_spi, uint32_t ul_pcs_ch,
		uint32_t ul_polarity)
{
	if (ul_polarity) {
  4002c0:	b932      	cbnz	r2, 4002d0 <spi_set_clock_polarity+0x10>
  4002c2:	eb00 0081 	add.w	r0, r0, r1, lsl #2
		p_spi->SPI_CSR[ul_pcs_ch] |= SPI_CSR_CPOL;
	} else {
		p_spi->SPI_CSR[ul_pcs_ch] &= (~SPI_CSR_CPOL);
  4002c6:	6b03      	ldr	r3, [r0, #48]	; 0x30
  4002c8:	f023 0301 	bic.w	r3, r3, #1
  4002cc:	6303      	str	r3, [r0, #48]	; 0x30
  4002ce:	4770      	bx	lr
  4002d0:	eb00 0081 	add.w	r0, r0, r1, lsl #2
		p_spi->SPI_CSR[ul_pcs_ch] |= SPI_CSR_CPOL;
  4002d4:	6b03      	ldr	r3, [r0, #48]	; 0x30
  4002d6:	f043 0301 	orr.w	r3, r3, #1
  4002da:	6303      	str	r3, [r0, #48]	; 0x30
  4002dc:	4770      	bx	lr

004002de <spi_set_clock_phase>:
 *  \param ul_pcs_ch Peripheral Chip Select channel (0~3).
 *  \param ul_phase Data capture on the rising/falling edge of clock.
 */
void spi_set_clock_phase(Spi *p_spi, uint32_t ul_pcs_ch, uint32_t ul_phase)
{
	if (ul_phase) {
  4002de:	b932      	cbnz	r2, 4002ee <spi_set_clock_phase+0x10>
  4002e0:	eb00 0081 	add.w	r0, r0, r1, lsl #2
		p_spi->SPI_CSR[ul_pcs_ch] |= SPI_CSR_NCPHA;
	} else {
		p_spi->SPI_CSR[ul_pcs_ch] &= (~SPI_CSR_NCPHA);
  4002e4:	6b03      	ldr	r3, [r0, #48]	; 0x30
  4002e6:	f023 0302 	bic.w	r3, r3, #2
  4002ea:	6303      	str	r3, [r0, #48]	; 0x30
  4002ec:	4770      	bx	lr
  4002ee:	eb00 0081 	add.w	r0, r0, r1, lsl #2
		p_spi->SPI_CSR[ul_pcs_ch] |= SPI_CSR_NCPHA;
  4002f2:	6b03      	ldr	r3, [r0, #48]	; 0x30
  4002f4:	f043 0302 	orr.w	r3, r3, #2
  4002f8:	6303      	str	r3, [r0, #48]	; 0x30
  4002fa:	4770      	bx	lr

004002fc <spi_set_bits_per_transfer>:
 * \param ul_bits Number of bits (8~16), use the pattern defined
 *        in the device header file.
 */
void spi_set_bits_per_transfer(Spi *p_spi, uint32_t ul_pcs_ch,
		uint32_t ul_bits)
{
  4002fc:	eb00 0181 	add.w	r1, r0, r1, lsl #2
	p_spi->SPI_CSR[ul_pcs_ch] &= (~SPI_CSR_BITS_Msk);
  400300:	6b0b      	ldr	r3, [r1, #48]	; 0x30
  400302:	f023 03f0 	bic.w	r3, r3, #240	; 0xf0
  400306:	630b      	str	r3, [r1, #48]	; 0x30
	p_spi->SPI_CSR[ul_pcs_ch] |= ul_bits;
  400308:	6b0b      	ldr	r3, [r1, #48]	; 0x30
  40030a:	431a      	orrs	r2, r3
  40030c:	630a      	str	r2, [r1, #48]	; 0x30
  40030e:	4770      	bx	lr

00400310 <tc_init>:
  400310:	b410      	push	{r4}
  400312:	0189      	lsls	r1, r1, #6
  400314:	1843      	adds	r3, r0, r1
  400316:	2402      	movs	r4, #2
  400318:	5044      	str	r4, [r0, r1]
  40031a:	f04f 31ff 	mov.w	r1, #4294967295
  40031e:	6299      	str	r1, [r3, #40]	; 0x28
  400320:	6a19      	ldr	r1, [r3, #32]
  400322:	605a      	str	r2, [r3, #4]
  400324:	bc10      	pop	{r4}
  400326:	4770      	bx	lr

00400328 <tc_start>:
  400328:	0189      	lsls	r1, r1, #6
  40032a:	2305      	movs	r3, #5
  40032c:	5043      	str	r3, [r0, r1]
  40032e:	4770      	bx	lr

00400330 <tc_write_rc>:
  400330:	eb00 1181 	add.w	r1, r0, r1, lsl #6
  400334:	61ca      	str	r2, [r1, #28]
  400336:	4770      	bx	lr

00400338 <tc_enable_interrupt>:
  400338:	eb00 1181 	add.w	r1, r0, r1, lsl #6
  40033c:	624a      	str	r2, [r1, #36]	; 0x24
  40033e:	4770      	bx	lr

00400340 <tc_get_status>:
  400340:	eb00 1181 	add.w	r1, r0, r1, lsl #6
  400344:	6a08      	ldr	r0, [r1, #32]
  400346:	4770      	bx	lr

00400348 <tc_find_mck_divisor>:
  400348:	b4f0      	push	{r4, r5, r6, r7}
  40034a:	b086      	sub	sp, #24
  40034c:	2402      	movs	r4, #2
  40034e:	9401      	str	r4, [sp, #4]
  400350:	2408      	movs	r4, #8
  400352:	9402      	str	r4, [sp, #8]
  400354:	2420      	movs	r4, #32
  400356:	9403      	str	r4, [sp, #12]
  400358:	2480      	movs	r4, #128	; 0x80
  40035a:	9404      	str	r4, [sp, #16]
  40035c:	9c0a      	ldr	r4, [sp, #40]	; 0x28
  40035e:	0be4      	lsrs	r4, r4, #15
  400360:	9405      	str	r4, [sp, #20]
  400362:	ebb0 0f51 	cmp.w	r0, r1, lsr #1
  400366:	d814      	bhi.n	400392 <tc_find_mck_divisor+0x4a>
  400368:	0c4c      	lsrs	r4, r1, #17
  40036a:	42a0      	cmp	r0, r4
  40036c:	d217      	bcs.n	40039e <tc_find_mck_divisor+0x56>
  40036e:	2501      	movs	r5, #1
  400370:	af01      	add	r7, sp, #4
  400372:	f857 4025 	ldr.w	r4, [r7, r5, lsl #2]
  400376:	fbb1 f4f4 	udiv	r4, r1, r4
  40037a:	0c26      	lsrs	r6, r4, #16
  40037c:	4284      	cmp	r4, r0
  40037e:	d30a      	bcc.n	400396 <tc_find_mck_divisor+0x4e>
  400380:	4286      	cmp	r6, r0
  400382:	d90d      	bls.n	4003a0 <tc_find_mck_divisor+0x58>
  400384:	3501      	adds	r5, #1
  400386:	2d05      	cmp	r5, #5
  400388:	d1f3      	bne.n	400372 <tc_find_mck_divisor+0x2a>
  40038a:	2000      	movs	r0, #0
  40038c:	b006      	add	sp, #24
  40038e:	bcf0      	pop	{r4, r5, r6, r7}
  400390:	4770      	bx	lr
  400392:	2000      	movs	r0, #0
  400394:	e7fa      	b.n	40038c <tc_find_mck_divisor+0x44>
  400396:	2000      	movs	r0, #0
  400398:	e7f8      	b.n	40038c <tc_find_mck_divisor+0x44>
  40039a:	2001      	movs	r0, #1
  40039c:	e7f6      	b.n	40038c <tc_find_mck_divisor+0x44>
  40039e:	2500      	movs	r5, #0
  4003a0:	b12a      	cbz	r2, 4003ae <tc_find_mck_divisor+0x66>
  4003a2:	a906      	add	r1, sp, #24
  4003a4:	eb01 0185 	add.w	r1, r1, r5, lsl #2
  4003a8:	f851 1c14 	ldr.w	r1, [r1, #-20]
  4003ac:	6011      	str	r1, [r2, #0]
  4003ae:	2b00      	cmp	r3, #0
  4003b0:	d0f3      	beq.n	40039a <tc_find_mck_divisor+0x52>
  4003b2:	601d      	str	r5, [r3, #0]
  4003b4:	2001      	movs	r0, #1
  4003b6:	e7e9      	b.n	40038c <tc_find_mck_divisor+0x44>

004003b8 <twi_set_speed>:
  4003b8:	4b2a      	ldr	r3, [pc, #168]	; (400464 <twi_set_speed+0xac>)
  4003ba:	4299      	cmp	r1, r3
  4003bc:	d849      	bhi.n	400452 <twi_set_speed+0x9a>
  4003be:	f5a3 537a 	sub.w	r3, r3, #16000	; 0x3e80
  4003c2:	4299      	cmp	r1, r3
  4003c4:	d92b      	bls.n	40041e <twi_set_speed+0x66>
  4003c6:	b410      	push	{r4}
  4003c8:	4c27      	ldr	r4, [pc, #156]	; (400468 <twi_set_speed+0xb0>)
  4003ca:	fba4 3402 	umull	r3, r4, r4, r2
  4003ce:	0ba4      	lsrs	r4, r4, #14
  4003d0:	3c04      	subs	r4, #4
  4003d2:	4b26      	ldr	r3, [pc, #152]	; (40046c <twi_set_speed+0xb4>)
  4003d4:	440b      	add	r3, r1
  4003d6:	009b      	lsls	r3, r3, #2
  4003d8:	fbb2 f2f3 	udiv	r2, r2, r3
  4003dc:	3a04      	subs	r2, #4
  4003de:	2cff      	cmp	r4, #255	; 0xff
  4003e0:	d939      	bls.n	400456 <twi_set_speed+0x9e>
  4003e2:	2100      	movs	r1, #0
  4003e4:	3101      	adds	r1, #1
  4003e6:	0864      	lsrs	r4, r4, #1
  4003e8:	2cff      	cmp	r4, #255	; 0xff
  4003ea:	d90d      	bls.n	400408 <twi_set_speed+0x50>
  4003ec:	2907      	cmp	r1, #7
  4003ee:	d1f9      	bne.n	4003e4 <twi_set_speed+0x2c>
  4003f0:	0213      	lsls	r3, r2, #8
  4003f2:	b29b      	uxth	r3, r3
  4003f4:	0409      	lsls	r1, r1, #16
  4003f6:	f401 21e0 	and.w	r1, r1, #458752	; 0x70000
  4003fa:	430b      	orrs	r3, r1
  4003fc:	b2e4      	uxtb	r4, r4
  4003fe:	4323      	orrs	r3, r4
  400400:	6103      	str	r3, [r0, #16]
  400402:	2000      	movs	r0, #0
  400404:	bc10      	pop	{r4}
  400406:	4770      	bx	lr
  400408:	2aff      	cmp	r2, #255	; 0xff
  40040a:	d9f1      	bls.n	4003f0 <twi_set_speed+0x38>
  40040c:	2906      	cmp	r1, #6
  40040e:	d8ef      	bhi.n	4003f0 <twi_set_speed+0x38>
  400410:	3101      	adds	r1, #1
  400412:	0852      	lsrs	r2, r2, #1
  400414:	2aff      	cmp	r2, #255	; 0xff
  400416:	d9eb      	bls.n	4003f0 <twi_set_speed+0x38>
  400418:	2906      	cmp	r1, #6
  40041a:	d9f9      	bls.n	400410 <twi_set_speed+0x58>
  40041c:	e7e8      	b.n	4003f0 <twi_set_speed+0x38>
  40041e:	0049      	lsls	r1, r1, #1
  400420:	fbb2 f2f1 	udiv	r2, r2, r1
  400424:	3a04      	subs	r2, #4
  400426:	2aff      	cmp	r2, #255	; 0xff
  400428:	d911      	bls.n	40044e <twi_set_speed+0x96>
  40042a:	2300      	movs	r3, #0
  40042c:	3301      	adds	r3, #1
  40042e:	0852      	lsrs	r2, r2, #1
  400430:	2aff      	cmp	r2, #255	; 0xff
  400432:	d901      	bls.n	400438 <twi_set_speed+0x80>
  400434:	2b07      	cmp	r3, #7
  400436:	d1f9      	bne.n	40042c <twi_set_speed+0x74>
  400438:	0211      	lsls	r1, r2, #8
  40043a:	b289      	uxth	r1, r1
  40043c:	041b      	lsls	r3, r3, #16
  40043e:	f403 23e0 	and.w	r3, r3, #458752	; 0x70000
  400442:	430b      	orrs	r3, r1
  400444:	b2d2      	uxtb	r2, r2
  400446:	431a      	orrs	r2, r3
  400448:	6102      	str	r2, [r0, #16]
  40044a:	2000      	movs	r0, #0
  40044c:	4770      	bx	lr
  40044e:	2300      	movs	r3, #0
  400450:	e7f2      	b.n	400438 <twi_set_speed+0x80>
  400452:	2001      	movs	r0, #1
  400454:	4770      	bx	lr
  400456:	2aff      	cmp	r2, #255	; 0xff
  400458:	bf88      	it	hi
  40045a:	2100      	movhi	r1, #0
  40045c:	d8d8      	bhi.n	400410 <twi_set_speed+0x58>
  40045e:	2100      	movs	r1, #0
  400460:	e7c6      	b.n	4003f0 <twi_set_speed+0x38>
  400462:	bf00      	nop
  400464:	00061a80 	.word	0x00061a80
  400468:	057619f1 	.word	0x057619f1
  40046c:	3ffd1200 	.word	0x3ffd1200

00400470 <twi_master_init>:
  400470:	b538      	push	{r3, r4, r5, lr}
  400472:	4604      	mov	r4, r0
  400474:	460d      	mov	r5, r1
  400476:	f04f 33ff 	mov.w	r3, #4294967295
  40047a:	6283      	str	r3, [r0, #40]	; 0x28
  40047c:	6a03      	ldr	r3, [r0, #32]
  40047e:	2380      	movs	r3, #128	; 0x80
  400480:	6003      	str	r3, [r0, #0]
  400482:	6b03      	ldr	r3, [r0, #48]	; 0x30
  400484:	2308      	movs	r3, #8
  400486:	6003      	str	r3, [r0, #0]
  400488:	2320      	movs	r3, #32
  40048a:	6003      	str	r3, [r0, #0]
  40048c:	2304      	movs	r3, #4
  40048e:	6003      	str	r3, [r0, #0]
  400490:	680a      	ldr	r2, [r1, #0]
  400492:	6849      	ldr	r1, [r1, #4]
  400494:	4b05      	ldr	r3, [pc, #20]	; (4004ac <twi_master_init+0x3c>)
  400496:	4798      	blx	r3
  400498:	2801      	cmp	r0, #1
  40049a:	bf14      	ite	ne
  40049c:	2000      	movne	r0, #0
  40049e:	2001      	moveq	r0, #1
  4004a0:	7a6b      	ldrb	r3, [r5, #9]
  4004a2:	2b01      	cmp	r3, #1
  4004a4:	bf04      	itt	eq
  4004a6:	2340      	moveq	r3, #64	; 0x40
  4004a8:	6023      	streq	r3, [r4, #0]
  4004aa:	bd38      	pop	{r3, r4, r5, pc}
  4004ac:	004003b9 	.word	0x004003b9

004004b0 <twi_mk_addr>:
  4004b0:	460a      	mov	r2, r1
  4004b2:	b159      	cbz	r1, 4004cc <twi_mk_addr+0x1c>
  4004b4:	7803      	ldrb	r3, [r0, #0]
  4004b6:	2901      	cmp	r1, #1
  4004b8:	bfc4      	itt	gt
  4004ba:	7841      	ldrbgt	r1, [r0, #1]
  4004bc:	ea41 2303 	orrgt.w	r3, r1, r3, lsl #8
  4004c0:	2a02      	cmp	r2, #2
  4004c2:	dd04      	ble.n	4004ce <twi_mk_addr+0x1e>
  4004c4:	7882      	ldrb	r2, [r0, #2]
  4004c6:	ea42 2303 	orr.w	r3, r2, r3, lsl #8
  4004ca:	e000      	b.n	4004ce <twi_mk_addr+0x1e>
  4004cc:	2300      	movs	r3, #0
  4004ce:	4618      	mov	r0, r3
  4004d0:	4770      	bx	lr
	...

004004d4 <twi_master_read>:
  4004d4:	b5f8      	push	{r3, r4, r5, r6, r7, lr}
  4004d6:	68cc      	ldr	r4, [r1, #12]
  4004d8:	2c00      	cmp	r4, #0
  4004da:	d04f      	beq.n	40057c <twi_master_read+0xa8>
  4004dc:	460b      	mov	r3, r1
  4004de:	4605      	mov	r5, r0
  4004e0:	688e      	ldr	r6, [r1, #8]
  4004e2:	2000      	movs	r0, #0
  4004e4:	6068      	str	r0, [r5, #4]
  4004e6:	684a      	ldr	r2, [r1, #4]
  4004e8:	0212      	lsls	r2, r2, #8
  4004ea:	f402 7240 	and.w	r2, r2, #768	; 0x300
  4004ee:	f442 5280 	orr.w	r2, r2, #4096	; 0x1000
  4004f2:	7c09      	ldrb	r1, [r1, #16]
  4004f4:	0409      	lsls	r1, r1, #16
  4004f6:	f401 01fe 	and.w	r1, r1, #8323072	; 0x7f0000
  4004fa:	430a      	orrs	r2, r1
  4004fc:	606a      	str	r2, [r5, #4]
  4004fe:	60e8      	str	r0, [r5, #12]
  400500:	6859      	ldr	r1, [r3, #4]
  400502:	4618      	mov	r0, r3
  400504:	4b22      	ldr	r3, [pc, #136]	; (400590 <twi_master_read+0xbc>)
  400506:	4798      	blx	r3
  400508:	60e8      	str	r0, [r5, #12]
  40050a:	2c01      	cmp	r4, #1
  40050c:	d00f      	beq.n	40052e <twi_master_read+0x5a>
  40050e:	2301      	movs	r3, #1
  400510:	602b      	str	r3, [r5, #0]
  400512:	2000      	movs	r0, #0
  400514:	6a2b      	ldr	r3, [r5, #32]
  400516:	f413 7f80 	tst.w	r3, #256	; 0x100
  40051a:	d136      	bne.n	40058a <twi_master_read+0xb6>
  40051c:	f247 512f 	movw	r1, #29999	; 0x752f
  400520:	f247 5730 	movw	r7, #30000	; 0x7530
  400524:	f04f 0e01 	mov.w	lr, #1
  400528:	f04f 0c02 	mov.w	ip, #2
  40052c:	e019      	b.n	400562 <twi_master_read+0x8e>
  40052e:	2303      	movs	r3, #3
  400530:	602b      	str	r3, [r5, #0]
  400532:	2001      	movs	r0, #1
  400534:	e7ee      	b.n	400514 <twi_master_read+0x40>
  400536:	460a      	mov	r2, r1
  400538:	4670      	mov	r0, lr
  40053a:	e00c      	b.n	400556 <twi_master_read+0x82>
  40053c:	b908      	cbnz	r0, 400542 <twi_master_read+0x6e>
  40053e:	f8c5 c000 	str.w	ip, [r5]
  400542:	f013 0f02 	tst.w	r3, #2
  400546:	d0f6      	beq.n	400536 <twi_master_read+0x62>
  400548:	4670      	mov	r0, lr
  40054a:	6b2b      	ldr	r3, [r5, #48]	; 0x30
  40054c:	7033      	strb	r3, [r6, #0]
  40054e:	3c01      	subs	r4, #1
  400550:	3601      	adds	r6, #1
  400552:	463a      	mov	r2, r7
  400554:	b164      	cbz	r4, 400570 <twi_master_read+0x9c>
  400556:	6a2b      	ldr	r3, [r5, #32]
  400558:	f413 7f80 	tst.w	r3, #256	; 0x100
  40055c:	d111      	bne.n	400582 <twi_master_read+0xae>
  40055e:	1e51      	subs	r1, r2, #1
  400560:	b18a      	cbz	r2, 400586 <twi_master_read+0xb2>
  400562:	2c01      	cmp	r4, #1
  400564:	d0ea      	beq.n	40053c <twi_master_read+0x68>
  400566:	f013 0f02 	tst.w	r3, #2
  40056a:	d1ee      	bne.n	40054a <twi_master_read+0x76>
  40056c:	460a      	mov	r2, r1
  40056e:	e7f1      	b.n	400554 <twi_master_read+0x80>
  400570:	6a2b      	ldr	r3, [r5, #32]
  400572:	f013 0f01 	tst.w	r3, #1
  400576:	d0fb      	beq.n	400570 <twi_master_read+0x9c>
  400578:	6a2b      	ldr	r3, [r5, #32]
  40057a:	e000      	b.n	40057e <twi_master_read+0xaa>
  40057c:	2401      	movs	r4, #1
  40057e:	4620      	mov	r0, r4
  400580:	bdf8      	pop	{r3, r4, r5, r6, r7, pc}
  400582:	2405      	movs	r4, #5
  400584:	e7fb      	b.n	40057e <twi_master_read+0xaa>
  400586:	2409      	movs	r4, #9
  400588:	e7f9      	b.n	40057e <twi_master_read+0xaa>
  40058a:	2405      	movs	r4, #5
  40058c:	e7f7      	b.n	40057e <twi_master_read+0xaa>
  40058e:	bf00      	nop
  400590:	004004b1 	.word	0x004004b1

00400594 <twi_master_write>:
  400594:	b570      	push	{r4, r5, r6, lr}
  400596:	68cd      	ldr	r5, [r1, #12]
  400598:	2d00      	cmp	r5, #0
  40059a:	d035      	beq.n	400608 <twi_master_write+0x74>
  40059c:	460b      	mov	r3, r1
  40059e:	4604      	mov	r4, r0
  4005a0:	688e      	ldr	r6, [r1, #8]
  4005a2:	2000      	movs	r0, #0
  4005a4:	6060      	str	r0, [r4, #4]
  4005a6:	7c0a      	ldrb	r2, [r1, #16]
  4005a8:	0412      	lsls	r2, r2, #16
  4005aa:	f402 02fe 	and.w	r2, r2, #8323072	; 0x7f0000
  4005ae:	6849      	ldr	r1, [r1, #4]
  4005b0:	0209      	lsls	r1, r1, #8
  4005b2:	f401 7140 	and.w	r1, r1, #768	; 0x300
  4005b6:	430a      	orrs	r2, r1
  4005b8:	6062      	str	r2, [r4, #4]
  4005ba:	60e0      	str	r0, [r4, #12]
  4005bc:	6859      	ldr	r1, [r3, #4]
  4005be:	4618      	mov	r0, r3
  4005c0:	4b15      	ldr	r3, [pc, #84]	; (400618 <twi_master_write+0x84>)
  4005c2:	4798      	blx	r3
  4005c4:	60e0      	str	r0, [r4, #12]
  4005c6:	6a23      	ldr	r3, [r4, #32]
  4005c8:	f413 7f80 	tst.w	r3, #256	; 0x100
  4005cc:	d006      	beq.n	4005dc <twi_master_write+0x48>
  4005ce:	2505      	movs	r5, #5
  4005d0:	e01b      	b.n	40060a <twi_master_write+0x76>
  4005d2:	b15d      	cbz	r5, 4005ec <twi_master_write+0x58>
  4005d4:	6a23      	ldr	r3, [r4, #32]
  4005d6:	f413 7f80 	tst.w	r3, #256	; 0x100
  4005da:	d118      	bne.n	40060e <twi_master_write+0x7a>
  4005dc:	f013 0f04 	tst.w	r3, #4
  4005e0:	d0f7      	beq.n	4005d2 <twi_master_write+0x3e>
  4005e2:	7833      	ldrb	r3, [r6, #0]
  4005e4:	6363      	str	r3, [r4, #52]	; 0x34
  4005e6:	3d01      	subs	r5, #1
  4005e8:	3601      	adds	r6, #1
  4005ea:	e7f2      	b.n	4005d2 <twi_master_write+0x3e>
  4005ec:	6a23      	ldr	r3, [r4, #32]
  4005ee:	f413 7f80 	tst.w	r3, #256	; 0x100
  4005f2:	d10e      	bne.n	400612 <twi_master_write+0x7e>
  4005f4:	f013 0f04 	tst.w	r3, #4
  4005f8:	d0f8      	beq.n	4005ec <twi_master_write+0x58>
  4005fa:	2302      	movs	r3, #2
  4005fc:	6023      	str	r3, [r4, #0]
  4005fe:	6a23      	ldr	r3, [r4, #32]
  400600:	f013 0f01 	tst.w	r3, #1
  400604:	d0fb      	beq.n	4005fe <twi_master_write+0x6a>
  400606:	e000      	b.n	40060a <twi_master_write+0x76>
  400608:	2501      	movs	r5, #1
  40060a:	4628      	mov	r0, r5
  40060c:	bd70      	pop	{r4, r5, r6, pc}
  40060e:	2505      	movs	r5, #5
  400610:	e7fb      	b.n	40060a <twi_master_write+0x76>
  400612:	2505      	movs	r5, #5
  400614:	e7f9      	b.n	40060a <twi_master_write+0x76>
  400616:	bf00      	nop
  400618:	004004b1 	.word	0x004004b1

0040061c <usart_set_async_baudrate>:
  40061c:	b410      	push	{r4}
  40061e:	010b      	lsls	r3, r1, #4
  400620:	4293      	cmp	r3, r2
  400622:	d914      	bls.n	40064e <usart_set_async_baudrate+0x32>
  400624:	00c9      	lsls	r1, r1, #3
  400626:	084b      	lsrs	r3, r1, #1
  400628:	eb03 02c2 	add.w	r2, r3, r2, lsl #3
  40062c:	fbb2 f2f1 	udiv	r2, r2, r1
  400630:	08d3      	lsrs	r3, r2, #3
  400632:	1e5c      	subs	r4, r3, #1
  400634:	f64f 71fe 	movw	r1, #65534	; 0xfffe
  400638:	428c      	cmp	r4, r1
  40063a:	d901      	bls.n	400640 <usart_set_async_baudrate+0x24>
  40063c:	2001      	movs	r0, #1
  40063e:	e017      	b.n	400670 <usart_set_async_baudrate+0x54>
  400640:	6841      	ldr	r1, [r0, #4]
  400642:	f441 2100 	orr.w	r1, r1, #524288	; 0x80000
  400646:	6041      	str	r1, [r0, #4]
  400648:	e00c      	b.n	400664 <usart_set_async_baudrate+0x48>
  40064a:	2001      	movs	r0, #1
  40064c:	e010      	b.n	400670 <usart_set_async_baudrate+0x54>
  40064e:	0859      	lsrs	r1, r3, #1
  400650:	eb01 02c2 	add.w	r2, r1, r2, lsl #3
  400654:	fbb2 f2f3 	udiv	r2, r2, r3
  400658:	08d3      	lsrs	r3, r2, #3
  40065a:	1e5c      	subs	r4, r3, #1
  40065c:	f64f 71fe 	movw	r1, #65534	; 0xfffe
  400660:	428c      	cmp	r4, r1
  400662:	d8f2      	bhi.n	40064a <usart_set_async_baudrate+0x2e>
  400664:	0412      	lsls	r2, r2, #16
  400666:	f402 22e0 	and.w	r2, r2, #458752	; 0x70000
  40066a:	431a      	orrs	r2, r3
  40066c:	6202      	str	r2, [r0, #32]
  40066e:	2000      	movs	r0, #0
  400670:	bc10      	pop	{r4}
  400672:	4770      	bx	lr

00400674 <usart_reset>:
  400674:	4b0a      	ldr	r3, [pc, #40]	; (4006a0 <usart_reset+0x2c>)
  400676:	f8c0 30e4 	str.w	r3, [r0, #228]	; 0xe4
  40067a:	2300      	movs	r3, #0
  40067c:	6043      	str	r3, [r0, #4]
  40067e:	6243      	str	r3, [r0, #36]	; 0x24
  400680:	6283      	str	r3, [r0, #40]	; 0x28
  400682:	2388      	movs	r3, #136	; 0x88
  400684:	6003      	str	r3, [r0, #0]
  400686:	2324      	movs	r3, #36	; 0x24
  400688:	6003      	str	r3, [r0, #0]
  40068a:	f44f 7380 	mov.w	r3, #256	; 0x100
  40068e:	6003      	str	r3, [r0, #0]
  400690:	f44f 2300 	mov.w	r3, #524288	; 0x80000
  400694:	6003      	str	r3, [r0, #0]
  400696:	f44f 3300 	mov.w	r3, #131072	; 0x20000
  40069a:	6003      	str	r3, [r0, #0]
  40069c:	4770      	bx	lr
  40069e:	bf00      	nop
  4006a0:	55534100 	.word	0x55534100

004006a4 <usart_init_rs232>:
  4006a4:	b570      	push	{r4, r5, r6, lr}
  4006a6:	4605      	mov	r5, r0
  4006a8:	460c      	mov	r4, r1
  4006aa:	4616      	mov	r6, r2
  4006ac:	4b0f      	ldr	r3, [pc, #60]	; (4006ec <usart_init_rs232+0x48>)
  4006ae:	4798      	blx	r3
  4006b0:	2200      	movs	r2, #0
  4006b2:	4b0f      	ldr	r3, [pc, #60]	; (4006f0 <usart_init_rs232+0x4c>)
  4006b4:	601a      	str	r2, [r3, #0]
  4006b6:	b1a4      	cbz	r4, 4006e2 <usart_init_rs232+0x3e>
  4006b8:	4632      	mov	r2, r6
  4006ba:	6821      	ldr	r1, [r4, #0]
  4006bc:	4628      	mov	r0, r5
  4006be:	4b0d      	ldr	r3, [pc, #52]	; (4006f4 <usart_init_rs232+0x50>)
  4006c0:	4798      	blx	r3
  4006c2:	4602      	mov	r2, r0
  4006c4:	b978      	cbnz	r0, 4006e6 <usart_init_rs232+0x42>
  4006c6:	6863      	ldr	r3, [r4, #4]
  4006c8:	68a1      	ldr	r1, [r4, #8]
  4006ca:	430b      	orrs	r3, r1
  4006cc:	6921      	ldr	r1, [r4, #16]
  4006ce:	430b      	orrs	r3, r1
  4006d0:	68e1      	ldr	r1, [r4, #12]
  4006d2:	430b      	orrs	r3, r1
  4006d4:	4906      	ldr	r1, [pc, #24]	; (4006f0 <usart_init_rs232+0x4c>)
  4006d6:	600b      	str	r3, [r1, #0]
  4006d8:	6869      	ldr	r1, [r5, #4]
  4006da:	430b      	orrs	r3, r1
  4006dc:	606b      	str	r3, [r5, #4]
  4006de:	4610      	mov	r0, r2
  4006e0:	bd70      	pop	{r4, r5, r6, pc}
  4006e2:	2201      	movs	r2, #1
  4006e4:	e7fb      	b.n	4006de <usart_init_rs232+0x3a>
  4006e6:	2201      	movs	r2, #1
  4006e8:	e7f9      	b.n	4006de <usart_init_rs232+0x3a>
  4006ea:	bf00      	nop
  4006ec:	00400675 	.word	0x00400675
  4006f0:	20000a54 	.word	0x20000a54
  4006f4:	0040061d 	.word	0x0040061d

004006f8 <usart_enable_tx>:
  4006f8:	2340      	movs	r3, #64	; 0x40
  4006fa:	6003      	str	r3, [r0, #0]
  4006fc:	4770      	bx	lr

004006fe <usart_enable_rx>:
  4006fe:	2310      	movs	r3, #16
  400700:	6003      	str	r3, [r0, #0]
  400702:	4770      	bx	lr

00400704 <usart_enable_interrupt>:
  400704:	6081      	str	r1, [r0, #8]
  400706:	4770      	bx	lr

00400708 <usart_disable_interrupt>:
  400708:	60c1      	str	r1, [r0, #12]
  40070a:	4770      	bx	lr

0040070c <usart_get_status>:
  40070c:	6940      	ldr	r0, [r0, #20]
  40070e:	4770      	bx	lr

00400710 <usart_putchar>:
  400710:	6943      	ldr	r3, [r0, #20]
  400712:	f013 0f02 	tst.w	r3, #2
  400716:	d0fb      	beq.n	400710 <usart_putchar>
  400718:	f3c1 0108 	ubfx	r1, r1, #0, #9
  40071c:	61c1      	str	r1, [r0, #28]
  40071e:	2000      	movs	r0, #0
  400720:	4770      	bx	lr
	...

00400724 <usart_write_line>:
  400724:	b570      	push	{r4, r5, r6, lr}
  400726:	460c      	mov	r4, r1
  400728:	7809      	ldrb	r1, [r1, #0]
  40072a:	b139      	cbz	r1, 40073c <usart_write_line+0x18>
  40072c:	4605      	mov	r5, r0
  40072e:	4e04      	ldr	r6, [pc, #16]	; (400740 <usart_write_line+0x1c>)
  400730:	4628      	mov	r0, r5
  400732:	47b0      	blx	r6
  400734:	f814 1f01 	ldrb.w	r1, [r4, #1]!
  400738:	2900      	cmp	r1, #0
  40073a:	d1f9      	bne.n	400730 <usart_write_line+0xc>
  40073c:	bd70      	pop	{r4, r5, r6, pc}
  40073e:	bf00      	nop
  400740:	00400711 	.word	0x00400711

00400744 <usart_read>:
  400744:	6943      	ldr	r3, [r0, #20]
  400746:	f013 0f01 	tst.w	r3, #1
  40074a:	d005      	beq.n	400758 <usart_read+0x14>
  40074c:	6983      	ldr	r3, [r0, #24]
  40074e:	f3c3 0308 	ubfx	r3, r3, #0, #9
  400752:	600b      	str	r3, [r1, #0]
  400754:	2000      	movs	r0, #0
  400756:	4770      	bx	lr
  400758:	2001      	movs	r0, #1
  40075a:	4770      	bx	lr

0040075c <wdt_disable>:
  40075c:	f44f 4300 	mov.w	r3, #32768	; 0x8000
  400760:	6043      	str	r3, [r0, #4]
  400762:	4770      	bx	lr

00400764 <vsync_handler>:
void vsync_handler(uint32_t ul_id, uint32_t ul_mask){
	// Handler for vertical synchronisation using by the OV7740 image sensor
	unused(ul_id);
	unused(ul_mask);

	g_ul_vsync_flag = true;
  400764:	2201      	movs	r2, #1
  400766:	4b01      	ldr	r3, [pc, #4]	; (40076c <vsync_handler+0x8>)
  400768:	601a      	str	r2, [r3, #0]
  40076a:	4770      	bx	lr
  40076c:	20000a58 	.word	0x20000a58

00400770 <init_vsync_interrupts>:
}

void init_vsync_interrupts(void){
  400770:	b510      	push	{r4, lr}
  400772:	b082      	sub	sp, #8
	pio_handler_set(OV7740_VSYNC_PIO, OV7740_VSYNC_ID, OV7740_VSYNC_MASK,
  400774:	4b07      	ldr	r3, [pc, #28]	; (400794 <init_vsync_interrupts+0x24>)
  400776:	9300      	str	r3, [sp, #0]
  400778:	2301      	movs	r3, #1
  40077a:	f44f 4200 	mov.w	r2, #32768	; 0x8000
  40077e:	210b      	movs	r1, #11
  400780:	4805      	ldr	r0, [pc, #20]	; (400798 <init_vsync_interrupts+0x28>)
  400782:	4c06      	ldr	r4, [pc, #24]	; (40079c <init_vsync_interrupts+0x2c>)
  400784:	47a0      	blx	r4
 */
__STATIC_INLINE void __NVIC_EnableIRQ(IRQn_Type IRQn)
{
  if ((int32_t)(IRQn) >= 0)
  {
    NVIC->ISER[(((uint32_t)IRQn) >> 5UL)] = (uint32_t)(1UL << (((uint32_t)IRQn) & 0x1FUL));
  400786:	f44f 6200 	mov.w	r2, #2048	; 0x800
  40078a:	4b05      	ldr	r3, [pc, #20]	; (4007a0 <init_vsync_interrupts+0x30>)
  40078c:	601a      	str	r2, [r3, #0]
			OV7740_VSYNC_TYPE, vsync_handler);	

	NVIC_EnableIRQ((IRQn_Type)OV7740_VSYNC_ID);
}
  40078e:	b002      	add	sp, #8
  400790:	bd10      	pop	{r4, pc}
  400792:	bf00      	nop
  400794:	00400765 	.word	0x00400765
  400798:	400e0e00 	.word	0x400e0e00
  40079c:	004001a1 	.word	0x004001a1
  4007a0:	e000e100 	.word	0xe000e100

004007a4 <configure_twi>:

void configure_twi(void){
  4007a4:	b500      	push	{lr}
  4007a6:	b085      	sub	sp, #20
	// Two Wire Interface
	twi_options_t opt;
	pmc_enable_periph_clk(ID_BOARD_TWI);
  4007a8:	2013      	movs	r0, #19
  4007aa:	4b0e      	ldr	r3, [pc, #56]	; (4007e4 <configure_twi+0x40>)
  4007ac:	4798      	blx	r3

	// Init TWI peripheral
	opt.master_clk = sysclk_get_cpu_hz();
  4007ae:	4b0e      	ldr	r3, [pc, #56]	; (4007e8 <configure_twi+0x44>)
  4007b0:	9301      	str	r3, [sp, #4]
	opt.speed      = TWI_CLK;
  4007b2:	4b0e      	ldr	r3, [pc, #56]	; (4007ec <configure_twi+0x48>)
  4007b4:	9302      	str	r3, [sp, #8]
	twi_master_init(BOARD_TWI, &opt);
  4007b6:	a901      	add	r1, sp, #4
  4007b8:	480d      	ldr	r0, [pc, #52]	; (4007f0 <configure_twi+0x4c>)
  4007ba:	4b0e      	ldr	r3, [pc, #56]	; (4007f4 <configure_twi+0x50>)
  4007bc:	4798      	blx	r3
 */
__STATIC_INLINE void __NVIC_DisableIRQ(IRQn_Type IRQn)
{
  if ((int32_t)(IRQn) >= 0)
  {
    NVIC->ICER[(((uint32_t)IRQn) >> 5UL)] = (uint32_t)(1UL << (((uint32_t)IRQn) & 0x1FUL));
  4007be:	4b0e      	ldr	r3, [pc, #56]	; (4007f8 <configure_twi+0x54>)
  4007c0:	f44f 2200 	mov.w	r2, #524288	; 0x80000
  4007c4:	f8c3 2080 	str.w	r2, [r3, #128]	; 0x80
  \details Acts as a special kind of Data Memory Barrier.
           It completes when all explicit memory accesses before this instruction complete.
 */
__STATIC_FORCEINLINE void __DSB(void)
{
  __ASM volatile ("dsb 0xF":::"memory");
  4007c8:	f3bf 8f4f 	dsb	sy
  __ASM volatile ("isb 0xF":::"memory");
  4007cc:	f3bf 8f6f 	isb	sy
 */
__STATIC_INLINE void __NVIC_ClearPendingIRQ(IRQn_Type IRQn)
{
  if ((int32_t)(IRQn) >= 0)
  {
    NVIC->ICPR[(((uint32_t)IRQn) >> 5UL)] = (uint32_t)(1UL << (((uint32_t)IRQn) & 0x1FUL));
  4007d0:	f8c3 2180 	str.w	r2, [r3, #384]	; 0x180
 */
__STATIC_INLINE void __NVIC_SetPriority(IRQn_Type IRQn, uint32_t priority)
{
  if ((int32_t)(IRQn) >= 0)
  {
    NVIC->IP[((uint32_t)IRQn)]               = (uint8_t)((priority << (8U - __NVIC_PRIO_BITS)) & (uint32_t)0xFFUL);
  4007d4:	2100      	movs	r1, #0
  4007d6:	f883 1313 	strb.w	r1, [r3, #787]	; 0x313
    NVIC->ISER[(((uint32_t)IRQn) >> 5UL)] = (uint32_t)(1UL << (((uint32_t)IRQn) & 0x1FUL));
  4007da:	601a      	str	r2, [r3, #0]
	// Configure TWI interrupts */
	NVIC_DisableIRQ(BOARD_TWI_IRQn);
	NVIC_ClearPendingIRQ(BOARD_TWI_IRQn);
	NVIC_SetPriority(BOARD_TWI_IRQn, 0);
	NVIC_EnableIRQ(BOARD_TWI_IRQn);
}
  4007dc:	b005      	add	sp, #20
  4007de:	f85d fb04 	ldr.w	pc, [sp], #4
  4007e2:	bf00      	nop
  4007e4:	0040149d 	.word	0x0040149d
  4007e8:	07270e00 	.word	0x07270e00
  4007ec:	00061a80 	.word	0x00061a80
  4007f0:	40018000 	.word	0x40018000
  4007f4:	00400471 	.word	0x00400471
  4007f8:	e000e100 	.word	0xe000e100

004007fc <configure_camera>:
	// ov7740 Initialization */
	while (ov_init(BOARD_TWI) == 1) {}

}

void configure_camera(void){
  4007fc:	b538      	push	{r3, r4, r5, lr}
	// Don't touch: From Firmware PDF
	ov_configure(BOARD_TWI, JPEG_INIT);
  4007fe:	4d07      	ldr	r5, [pc, #28]	; (40081c <configure_camera+0x20>)
  400800:	2100      	movs	r1, #0
  400802:	4628      	mov	r0, r5
  400804:	4c06      	ldr	r4, [pc, #24]	; (400820 <configure_camera+0x24>)
  400806:	47a0      	blx	r4
	ov_configure(BOARD_TWI, YUV422);
  400808:	2101      	movs	r1, #1
  40080a:	4628      	mov	r0, r5
  40080c:	47a0      	blx	r4
	ov_configure(BOARD_TWI, JPEG);
  40080e:	2102      	movs	r1, #2
  400810:	4628      	mov	r0, r5
  400812:	47a0      	blx	r4
	ov_configure(BOARD_TWI, JPEG_320x240);
  400814:	2103      	movs	r1, #3
  400816:	4628      	mov	r0, r5
  400818:	47a0      	blx	r4
  40081a:	bd38      	pop	{r3, r4, r5, pc}
  40081c:	40018000 	.word	0x40018000
  400820:	00400bb1 	.word	0x00400bb1

00400824 <pio_capture_init>:
 * \brief Initialize PIO capture for the OV7740 image sensor communication.
 *
 * \param p_pio PIO instance to be configured in PIO capture mode.
 * \param ul_id Corresponding PIO ID.
 */
void pio_capture_init(Pio *p_pio, uint32_t ul_id){
  400824:	b510      	push	{r4, lr}
  400826:	4604      	mov	r4, r0
	/* Enable peripheral clock */
	pmc_enable_periph_clk(ul_id);
  400828:	4608      	mov	r0, r1
  40082a:	4b13      	ldr	r3, [pc, #76]	; (400878 <pio_capture_init+0x54>)
  40082c:	4798      	blx	r3

	/* Disable PIO capture */
	p_pio->PIO_PCMR &= ~((uint32_t)PIO_PCMR_PCEN);
  40082e:	f8d4 3150 	ldr.w	r3, [r4, #336]	; 0x150
  400832:	f023 0301 	bic.w	r3, r3, #1
  400836:	f8c4 3150 	str.w	r3, [r4, #336]	; 0x150

	/* Disable RXBUFF interrupt */
	p_pio->PIO_PCIDR |= PIO_PCIDR_RXBUFF;
  40083a:	f8d4 3158 	ldr.w	r3, [r4, #344]	; 0x158
  40083e:	f043 0308 	orr.w	r3, r3, #8
  400842:	f8c4 3158 	str.w	r3, [r4, #344]	; 0x158

	/* 32bit width*/
	p_pio->PIO_PCMR &= ~((uint32_t)PIO_PCMR_DSIZE_Msk);
  400846:	f8d4 3150 	ldr.w	r3, [r4, #336]	; 0x150
  40084a:	f023 0330 	bic.w	r3, r3, #48	; 0x30
  40084e:	f8c4 3150 	str.w	r3, [r4, #336]	; 0x150
	p_pio->PIO_PCMR |= PIO_PCMR_DSIZE_WORD;
  400852:	f8d4 3150 	ldr.w	r3, [r4, #336]	; 0x150
  400856:	f043 0320 	orr.w	r3, r3, #32
  40085a:	f8c4 3150 	str.w	r3, [r4, #336]	; 0x150

	/* Only HREF and VSYNC enabled */
	p_pio->PIO_PCMR &= ~((uint32_t)PIO_PCMR_ALWYS);
  40085e:	f8d4 3150 	ldr.w	r3, [r4, #336]	; 0x150
  400862:	f423 7300 	bic.w	r3, r3, #512	; 0x200
  400866:	f8c4 3150 	str.w	r3, [r4, #336]	; 0x150
	p_pio->PIO_PCMR &= ~((uint32_t)PIO_PCMR_HALFS);
  40086a:	f8d4 3150 	ldr.w	r3, [r4, #336]	; 0x150
  40086e:	f423 6380 	bic.w	r3, r3, #1024	; 0x400
  400872:	f8c4 3150 	str.w	r3, [r4, #336]	; 0x150
  400876:	bd10      	pop	{r4, pc}
  400878:	0040149d 	.word	0x0040149d

0040087c <init_camera>:
void init_camera(void){
  40087c:	b538      	push	{r3, r4, r5, lr}
	configure_twi();
  40087e:	4b0f      	ldr	r3, [pc, #60]	; (4008bc <init_camera+0x40>)
  400880:	4798      	blx	r3
	init_vsync_interrupts();							// Init Vsync handler
  400882:	4b0f      	ldr	r3, [pc, #60]	; (4008c0 <init_camera+0x44>)
  400884:	4798      	blx	r3
	pio_capture_init(OV_DATA_BUS_PIO, OV_DATA_BUS_ID);	// Init PIO capture
  400886:	210b      	movs	r1, #11
  400888:	480e      	ldr	r0, [pc, #56]	; (4008c4 <init_camera+0x48>)
  40088a:	4b0f      	ldr	r3, [pc, #60]	; (4008c8 <init_camera+0x4c>)
  40088c:	4798      	blx	r3
	pmc_enable_pllbck(7, 0x1, 1);						/* PLLA work at 96 Mhz */
  40088e:	2201      	movs	r2, #1
  400890:	4611      	mov	r1, r2
  400892:	2007      	movs	r0, #7
  400894:	4b0d      	ldr	r3, [pc, #52]	; (4008cc <init_camera+0x50>)
  400896:	4798      	blx	r3
	PMC->PMC_PCK[1] = (PMC_PCK_PRES_CLK_4 | PMC_PCK_CSS_PLLB_CLK);
  400898:	4b0d      	ldr	r3, [pc, #52]	; (4008d0 <init_camera+0x54>)
  40089a:	2223      	movs	r2, #35	; 0x23
  40089c:	645a      	str	r2, [r3, #68]	; 0x44
	PMC->PMC_SCER = PMC_SCER_PCK1;
  40089e:	f44f 7200 	mov.w	r2, #512	; 0x200
  4008a2:	601a      	str	r2, [r3, #0]
	while (!(PMC->PMC_SCSR & PMC_SCSR_PCK1)) {}	
  4008a4:	461a      	mov	r2, r3
  4008a6:	6893      	ldr	r3, [r2, #8]
  4008a8:	f413 7f00 	tst.w	r3, #512	; 0x200
  4008ac:	d0fb      	beq.n	4008a6 <init_camera+0x2a>
	while (ov_init(BOARD_TWI) == 1) {}
  4008ae:	4d09      	ldr	r5, [pc, #36]	; (4008d4 <init_camera+0x58>)
  4008b0:	4c09      	ldr	r4, [pc, #36]	; (4008d8 <init_camera+0x5c>)
  4008b2:	4628      	mov	r0, r5
  4008b4:	47a0      	blx	r4
  4008b6:	2801      	cmp	r0, #1
  4008b8:	d0fb      	beq.n	4008b2 <init_camera+0x36>
}
  4008ba:	bd38      	pop	{r3, r4, r5, pc}
  4008bc:	004007a5 	.word	0x004007a5
  4008c0:	00400771 	.word	0x00400771
  4008c4:	400e0e00 	.word	0x400e0e00
  4008c8:	00400825 	.word	0x00400825
  4008cc:	00401469 	.word	0x00401469
  4008d0:	400e0400 	.word	0x400e0400
  4008d4:	40018000 	.word	0x40018000
  4008d8:	00400a75 	.word	0x00400a75

004008dc <pio_capture_to_buffer>:
 * \param p_uc_buf Buffer address where captured data must be stored.
 * \param ul_size Data frame size.
 */
uint8_t pio_capture_to_buffer(Pio *p_pio, uint8_t *uc_buf, uint32_t ul_size){
	/* Check if the first PDC bank is free */
	if ((p_pio->PIO_RCR == 0) && (p_pio->PIO_RNCR == 0)) {
  4008dc:	f8d0 316c 	ldr.w	r3, [r0, #364]	; 0x16c
  4008e0:	b913      	cbnz	r3, 4008e8 <pio_capture_to_buffer+0xc>
  4008e2:	f8d0 317c 	ldr.w	r3, [r0, #380]	; 0x17c
  4008e6:	b143      	cbz	r3, 4008fa <pio_capture_to_buffer+0x1e>
		p_pio->PIO_RPR = (uint32_t)uc_buf;
		p_pio->PIO_RCR = ul_size;
		p_pio->PIO_PTCR = PIO_PTCR_RXTEN;
		return 1;
	} else if (p_pio->PIO_RNCR == 0) {
  4008e8:	f8d0 317c 	ldr.w	r3, [r0, #380]	; 0x17c
  4008ec:	b973      	cbnz	r3, 40090c <pio_capture_to_buffer+0x30>
		p_pio->PIO_RNPR = (uint32_t)uc_buf;
  4008ee:	f8c0 1178 	str.w	r1, [r0, #376]	; 0x178
		p_pio->PIO_RNCR = ul_size;
  4008f2:	f8c0 217c 	str.w	r2, [r0, #380]	; 0x17c
		return 1;
  4008f6:	2001      	movs	r0, #1
  4008f8:	4770      	bx	lr
		p_pio->PIO_RPR = (uint32_t)uc_buf;
  4008fa:	f8c0 1168 	str.w	r1, [r0, #360]	; 0x168
		p_pio->PIO_RCR = ul_size;
  4008fe:	f8c0 216c 	str.w	r2, [r0, #364]	; 0x16c
		p_pio->PIO_PTCR = PIO_PTCR_RXTEN;
  400902:	2301      	movs	r3, #1
  400904:	f8c0 3188 	str.w	r3, [r0, #392]	; 0x188
		return 1;
  400908:	4618      	mov	r0, r3
  40090a:	4770      	bx	lr
	} else {
		return 0;
  40090c:	2000      	movs	r0, #0
	}
}
  40090e:	4770      	bx	lr

00400910 <find_image_len>:
	/* Check Size  */
	uint8_t success = find_image_len();
	return success;
}

uint8_t find_image_len(void){
  400910:	b5f0      	push	{r4, r5, r6, r7, lr}
	// Finds image length based on JPEG protocol. Returns 1 on success
	// (i.e. able to find ?end of image? and ?start of image? markers),
	// 0 on error.
	
	image_size = 0;
  400912:	2000      	movs	r0, #0
  400914:	4b17      	ldr	r3, [pc, #92]	; (400974 <find_image_len+0x64>)
  400916:	6018      	str	r0, [r3, #0]
	image_started = 0;
  400918:	4b17      	ldr	r3, [pc, #92]	; (400978 <find_image_len+0x68>)
  40091a:	7018      	strb	r0, [r3, #0]
	uint8_t next_byte;
	uint8_t success = 0;
	
	for (uint32_t i = 0; i < 100000; ++i){
	
		current_byte = g_p_uc_cap_dest_buf[i];
  40091c:	4c17      	ldr	r4, [pc, #92]	; (40097c <find_image_len+0x6c>)
		
		if (current_byte == 0xff && next_byte == 0xd8) {
			image_started = 1;
			image_start = i;	// => gs_ul_transfer_index
		}
		else if (image_started && current_byte == 0xff && next_byte == 0xd9) {  
  40091e:	461d      	mov	r5, r3
			image_started = 1;
  400920:	f04f 0e01 	mov.w	lr, #1
			image_start = i;	// => gs_ul_transfer_index
  400924:	4f16      	ldr	r7, [pc, #88]	; (400980 <find_image_len+0x70>)
	for (uint32_t i = 0; i < 100000; ++i){
  400926:	4e17      	ldr	r6, [pc, #92]	; (400984 <find_image_len+0x74>)
  400928:	e008      	b.n	40093c <find_image_len+0x2c>
		if (current_byte == 0xff && next_byte == 0xd8) {
  40092a:	29d8      	cmp	r1, #216	; 0xd8
  40092c:	d00f      	beq.n	40094e <find_image_len+0x3e>
		else if (image_started && current_byte == 0xff && next_byte == 0xd9) {  
  40092e:	782b      	ldrb	r3, [r5, #0]
  400930:	b10b      	cbz	r3, 400936 <find_image_len+0x26>
  400932:	29d9      	cmp	r1, #217	; 0xd9
  400934:	d00f      	beq.n	400956 <find_image_len+0x46>
		next_byte = g_p_uc_cap_dest_buf[i+1];
  400936:	4610      	mov	r0, r2
	for (uint32_t i = 0; i < 100000; ++i){
  400938:	42b2      	cmp	r2, r6
  40093a:	d017      	beq.n	40096c <find_image_len+0x5c>
		current_byte = g_p_uc_cap_dest_buf[i];
  40093c:	5c23      	ldrb	r3, [r4, r0]
  40093e:	b2db      	uxtb	r3, r3
		next_byte = g_p_uc_cap_dest_buf[i+1];
  400940:	1c42      	adds	r2, r0, #1
  400942:	5ca1      	ldrb	r1, [r4, r2]
  400944:	b2c9      	uxtb	r1, r1
		if (current_byte == 0xff && next_byte == 0xd8) {
  400946:	2bff      	cmp	r3, #255	; 0xff
  400948:	d0ef      	beq.n	40092a <find_image_len+0x1a>
		else if (image_started && current_byte == 0xff && next_byte == 0xd9) {  
  40094a:	782b      	ldrb	r3, [r5, #0]
  40094c:	e7f3      	b.n	400936 <find_image_len+0x26>
			image_started = 1;
  40094e:	f885 e000 	strb.w	lr, [r5]
			image_start = i;	// => gs_ul_transfer_index
  400952:	6038      	str	r0, [r7, #0]
  400954:	e7ef      	b.n	400936 <find_image_len+0x26>
			image_end = i+1;
  400956:	4b0c      	ldr	r3, [pc, #48]	; (400988 <find_image_len+0x78>)
  400958:	601a      	str	r2, [r3, #0]
			break;
		}
	}
	
	if (success) {
        image_size = image_end - image_start - 1 ; 
  40095a:	681b      	ldr	r3, [r3, #0]
  40095c:	4a08      	ldr	r2, [pc, #32]	; (400980 <find_image_len+0x70>)
  40095e:	6812      	ldr	r2, [r2, #0]
  400960:	3b01      	subs	r3, #1
  400962:	1a9b      	subs	r3, r3, r2
  400964:	4a03      	ldr	r2, [pc, #12]	; (400974 <find_image_len+0x64>)
  400966:	6013      	str	r3, [r2, #0]
			success = 1;
  400968:	2001      	movs	r0, #1
  40096a:	bdf0      	pop	{r4, r5, r6, r7, pc}
    } else {
        image_size = 0;
  40096c:	2000      	movs	r0, #0
  40096e:	4b01      	ldr	r3, [pc, #4]	; (400974 <find_image_len+0x64>)
  400970:	6018      	str	r0, [r3, #0]
    }
	return success;	// 1 if both SOI and EOI are found
  400972:	bdf0      	pop	{r4, r5, r6, r7, pc}
  400974:	20000aa0 	.word	0x20000aa0
  400978:	2001915d 	.word	0x2001915d
  40097c:	20000aa8 	.word	0x20000aa8
  400980:	20019148 	.word	0x20019148
  400984:	000186a0 	.word	0x000186a0
  400988:	20019150 	.word	0x20019150

0040098c <start_capture>:
uint8_t start_capture(void){
  40098c:	b510      	push	{r4, lr}
	pio_enable_interrupt(OV7740_VSYNC_PIO, OV7740_VSYNC_MASK);	// Enable vsync interrupt*/
  40098e:	f44f 4100 	mov.w	r1, #32768	; 0x8000
  400992:	4812      	ldr	r0, [pc, #72]	; (4009dc <start_capture+0x50>)
  400994:	4b12      	ldr	r3, [pc, #72]	; (4009e0 <start_capture+0x54>)
  400996:	4798      	blx	r3
	while (!g_ul_vsync_flag){}
  400998:	4a12      	ldr	r2, [pc, #72]	; (4009e4 <start_capture+0x58>)
  40099a:	6813      	ldr	r3, [r2, #0]
  40099c:	2b00      	cmp	r3, #0
  40099e:	d0fc      	beq.n	40099a <start_capture+0xe>
	pio_disable_interrupt(OV7740_VSYNC_PIO, OV7740_VSYNC_MASK);
  4009a0:	4c0e      	ldr	r4, [pc, #56]	; (4009dc <start_capture+0x50>)
  4009a2:	f44f 4100 	mov.w	r1, #32768	; 0x8000
  4009a6:	4620      	mov	r0, r4
  4009a8:	4b0f      	ldr	r3, [pc, #60]	; (4009e8 <start_capture+0x5c>)
  4009aa:	4798      	blx	r3
	pio_capture_enable(OV7740_DATA_BUS_PIO);
  4009ac:	4620      	mov	r0, r4
  4009ae:	4b0f      	ldr	r3, [pc, #60]	; (4009ec <start_capture+0x60>)
  4009b0:	4798      	blx	r3
	pio_capture_to_buffer(OV7740_DATA_BUS_PIO, g_p_uc_cap_dest_buf, 25000);		// 100000 >> 2 = 25000
  4009b2:	f246 12a8 	movw	r2, #25000	; 0x61a8
  4009b6:	490e      	ldr	r1, [pc, #56]	; (4009f0 <start_capture+0x64>)
  4009b8:	4620      	mov	r0, r4
  4009ba:	4b0e      	ldr	r3, [pc, #56]	; (4009f4 <start_capture+0x68>)
  4009bc:	4798      	blx	r3
	while (!((OV7740_DATA_BUS_PIO->PIO_PCISR & PIO_PCIMR_RXBUFF) == PIO_PCIMR_RXBUFF)) {}
  4009be:	4622      	mov	r2, r4
  4009c0:	f8d2 3160 	ldr.w	r3, [r2, #352]	; 0x160
  4009c4:	f013 0f08 	tst.w	r3, #8
  4009c8:	d0fa      	beq.n	4009c0 <start_capture+0x34>
	pio_capture_disable(OV7740_DATA_BUS_PIO);
  4009ca:	4804      	ldr	r0, [pc, #16]	; (4009dc <start_capture+0x50>)
  4009cc:	4b0a      	ldr	r3, [pc, #40]	; (4009f8 <start_capture+0x6c>)
  4009ce:	4798      	blx	r3
	g_ul_vsync_flag = false;
  4009d0:	2200      	movs	r2, #0
  4009d2:	4b04      	ldr	r3, [pc, #16]	; (4009e4 <start_capture+0x58>)
  4009d4:	601a      	str	r2, [r3, #0]
	uint8_t success = find_image_len();
  4009d6:	4b09      	ldr	r3, [pc, #36]	; (4009fc <start_capture+0x70>)
  4009d8:	4798      	blx	r3
}
  4009da:	bd10      	pop	{r4, pc}
  4009dc:	400e0e00 	.word	0x400e0e00
  4009e0:	0040121f 	.word	0x0040121f
  4009e4:	20000a58 	.word	0x20000a58
  4009e8:	00401223 	.word	0x00401223
  4009ec:	00401351 	.word	0x00401351
  4009f0:	20000aa8 	.word	0x20000aa8
  4009f4:	004008dd 	.word	0x004008dd
  4009f8:	00401369 	.word	0x00401369
  4009fc:	00400911 	.word	0x00400911

00400a00 <ov_read_reg>:
 * \param p_twi TWI interface.
 * \param p_packet TWI packet.
 * \return 0 on success, TWID_ERROR_BUSY otherwise.
 */
uint32_t ov_read_reg(Twi* const p_twi, twi_packet_t* const p_packet)
{
  400a00:	b508      	push	{r3, lr}
	uint32_t ul_status;

	ul_status = twi_master_read(p_twi, p_packet);
  400a02:	4b01      	ldr	r3, [pc, #4]	; (400a08 <ov_read_reg+0x8>)
  400a04:	4798      	blx	r3

	return ul_status;
}
  400a06:	bd08      	pop	{r3, pc}
  400a08:	004004d5 	.word	0x004004d5

00400a0c <ov_write_reg>:
 * \param p_twi TWI interface.
 * \param p_packet TWI packet.
 * \return 0 on success, TWID_ERROR_BUSY otherwise.
 */
uint32_t ov_write_reg(Twi* const p_twi, twi_packet_t* const p_packet)
{
  400a0c:	b508      	push	{r3, lr}
	uint32_t ul_status;

	ul_status = twi_master_write(p_twi, p_packet);
  400a0e:	4b01      	ldr	r3, [pc, #4]	; (400a14 <ov_write_reg+0x8>)
  400a10:	4798      	blx	r3

	return ul_status;
}
  400a12:	bd08      	pop	{r3, pc}
  400a14:	00400595 	.word	0x00400595

00400a18 <ov_write_regs>:
 * \param p_twi TWI interface.
 * \param p_reg_list Register list to be written.
 * \return 0 on success, TWID_ERROR_BUSY otherwise.
 */
uint32_t ov_write_regs(Twi* const p_twi, const ov_reg *p_reg_list)
{
  400a18:	e92d 41f0 	stmdb	sp!, {r4, r5, r6, r7, r8, lr}
  400a1c:	b086      	sub	sp, #24
  400a1e:	4607      	mov	r7, r0
  400a20:	1c4c      	adds	r4, r1, #1
			(p_next->val == OV_VAL_TERM))) {
		if (p_next->reg == 0xFE) {
			delay_ms(5);
		} else {
			twi_packet_regs.addr[0] = p_next->reg;
			twi_packet_regs.addr_length = 1;
  400a22:	2501      	movs	r5, #1
			twi_packet_regs.chip = OV_I2C_SENSOR_ADDRESS;
			twi_packet_regs.length = 1;
			twi_packet_regs.buffer = &(p_next->val);

			ul_err = ov_write_reg(p_twi, &twi_packet_regs);
  400a24:	4e11      	ldr	r6, [pc, #68]	; (400a6c <ov_write_regs+0x54>)
			delay_ms(5);
  400a26:	f8df 8048 	ldr.w	r8, [pc, #72]	; 400a70 <ov_write_regs+0x58>
	while (!((p_next->reg == OV_REG_TERM) &&
  400a2a:	e010      	b.n	400a4e <ov_write_regs+0x36>
  400a2c:	7821      	ldrb	r1, [r4, #0]
  400a2e:	29ff      	cmp	r1, #255	; 0xff
  400a30:	d018      	beq.n	400a64 <ov_write_regs+0x4c>
			twi_packet_regs.addr[0] = p_next->reg;
  400a32:	f88d 3004 	strb.w	r3, [sp, #4]
			twi_packet_regs.addr_length = 1;
  400a36:	9502      	str	r5, [sp, #8]
			twi_packet_regs.chip = OV_I2C_SENSOR_ADDRESS;
  400a38:	2330      	movs	r3, #48	; 0x30
  400a3a:	f88d 3014 	strb.w	r3, [sp, #20]
			twi_packet_regs.length = 1;
  400a3e:	9504      	str	r5, [sp, #16]
			twi_packet_regs.buffer = &(p_next->val);
  400a40:	9203      	str	r2, [sp, #12]
			ul_err = ov_write_reg(p_twi, &twi_packet_regs);
  400a42:	a901      	add	r1, sp, #4
  400a44:	4638      	mov	r0, r7
  400a46:	47b0      	blx	r6
			ul_size++;

			if (ul_err == TWI_BUSY) {
  400a48:	2808      	cmp	r0, #8
  400a4a:	d00c      	beq.n	400a66 <ov_write_regs+0x4e>
  400a4c:	3402      	adds	r4, #2
  400a4e:	4622      	mov	r2, r4
	while (!((p_next->reg == OV_REG_TERM) &&
  400a50:	f814 3c01 	ldrb.w	r3, [r4, #-1]
  400a54:	2bff      	cmp	r3, #255	; 0xff
  400a56:	d0e9      	beq.n	400a2c <ov_write_regs+0x14>
		if (p_next->reg == 0xFE) {
  400a58:	2bfe      	cmp	r3, #254	; 0xfe
  400a5a:	d1ea      	bne.n	400a32 <ov_write_regs+0x1a>
			delay_ms(5);
  400a5c:	f24a 706a 	movw	r0, #42858	; 0xa76a
  400a60:	47c0      	blx	r8
  400a62:	e7f3      	b.n	400a4c <ov_write_regs+0x34>
			}
		}

		p_next++;
	}
	return 0;
  400a64:	2000      	movs	r0, #0
}
  400a66:	b006      	add	sp, #24
  400a68:	e8bd 81f0 	ldmia.w	sp!, {r4, r5, r6, r7, r8, pc}
  400a6c:	00400a0d 	.word	0x00400a0d
  400a70:	20000001 	.word	0x20000001

00400a74 <ov_init>:
 *
 * \param p_twi TWI interface.
 * \return 0 on success, 1 otherwise.
 */
uint32_t ov_init(Twi* const p_twi)
{
  400a74:	b5f0      	push	{r4, r5, r6, r7, lr}
  400a76:	b093      	sub	sp, #76	; 0x4c
  400a78:	4607      	mov	r7, r0
	const uint8_t cont_reg_val = 1;
  400a7a:	2401      	movs	r4, #1
  400a7c:	f88d 4047 	strb.w	r4, [sp, #71]	; 0x47
	twi_packet_t init_packet = {
  400a80:	2500      	movs	r5, #0
  400a82:	950c      	str	r5, [sp, #48]	; 0x30
  400a84:	9510      	str	r5, [sp, #64]	; 0x40
  400a86:	23ff      	movs	r3, #255	; 0xff
  400a88:	f88d 3030 	strb.w	r3, [sp, #48]	; 0x30
  400a8c:	940d      	str	r4, [sp, #52]	; 0x34
  400a8e:	f10d 0347 	add.w	r3, sp, #71	; 0x47
  400a92:	930e      	str	r3, [sp, #56]	; 0x38
  400a94:	940f      	str	r4, [sp, #60]	; 0x3c
  400a96:	2630      	movs	r6, #48	; 0x30
  400a98:	f88d 6040 	strb.w	r6, [sp, #64]	; 0x40
		.addr_length  = 1, //sizeof (uint16_t),    // TWI slave memory address data size
		.chip         = OV_I2C_SENSOR_ADDRESS,      // TWI slave bus address
		.buffer       = &cont_reg_val,        // transfer data destination buffer
		.length       = 1                    // transfer data size (bytes)
	};
	ov_write_reg(p_twi, &init_packet);
  400a9c:	eb0d 0106 	add.w	r1, sp, r6
  400aa0:	4b41      	ldr	r3, [pc, #260]	; (400ba8 <ov_init+0x134>)
  400aa2:	4798      	blx	r3
	uint32_t ul_id = 0;
  400aa4:	9500      	str	r5, [sp, #0]
	uint32_t ul_ver = 0;
  400aa6:	9501      	str	r5, [sp, #4]
	packet_pid.chip = OV_I2C_SENSOR_ADDRESS;
  400aa8:	f88d 6018 	strb.w	r6, [sp, #24]
	packet_pid.addr[0] = OV2640_PIDH;
  400aac:	230a      	movs	r3, #10
  400aae:	f88d 3008 	strb.w	r3, [sp, #8]
	packet_pid.addr_length = 1;
  400ab2:	9403      	str	r4, [sp, #12]
	packet_pid.buffer = &ul_id;
  400ab4:	f8cd d010 	str.w	sp, [sp, #16]
	packet_pid.length = 1;
  400ab8:	9405      	str	r4, [sp, #20]
	ov_read_reg(p_twi, &packet_pid);
  400aba:	a902      	add	r1, sp, #8
  400abc:	4638      	mov	r0, r7
  400abe:	4d3b      	ldr	r5, [pc, #236]	; (400bac <ov_init+0x138>)
  400ac0:	47a8      	blx	r5
	packet_ver.chip = OV_I2C_SENSOR_ADDRESS;
  400ac2:	f88d 602c 	strb.w	r6, [sp, #44]	; 0x2c
	packet_ver.addr[0] = OV2640_PIDL;
  400ac6:	230b      	movs	r3, #11
  400ac8:	f88d 301c 	strb.w	r3, [sp, #28]
	packet_ver.addr_length = 1;
  400acc:	9408      	str	r4, [sp, #32]
	packet_ver.buffer = &ul_ver;
  400ace:	ab01      	add	r3, sp, #4
  400ad0:	9309      	str	r3, [sp, #36]	; 0x24
	packet_ver.length = 1;
  400ad2:	940a      	str	r4, [sp, #40]	; 0x28
	ov_read_reg(p_twi, &packet_ver);
  400ad4:	a907      	add	r1, sp, #28
  400ad6:	4638      	mov	r0, r7
  400ad8:	47a8      	blx	r5
	return ((uint32_t)(ul_id << 8) | ul_ver);
  400ada:	9b01      	ldr	r3, [sp, #4]
  400adc:	9a00      	ldr	r2, [sp, #0]
  400ade:	ea43 2302 	orr.w	r3, r3, r2, lsl #8
	
	uint32_t ul_id = 0;

	ul_id = ov_id( p_twi );

	if (((ul_id >> 8)&0xff)  == OV2640_PIDH_DEFAULT) {
  400ae2:	f3c3 2307 	ubfx	r3, r3, #8, #8
  400ae6:	2b26      	cmp	r3, #38	; 0x26
  400ae8:	d002      	beq.n	400af0 <ov_init+0x7c>
				return 0;
			}
		}
	}

	return 1;
  400aea:	2001      	movs	r0, #1
}
  400aec:	b013      	add	sp, #76	; 0x4c
  400aee:	bdf0      	pop	{r4, r5, r6, r7, pc}
	uint32_t ul_midh = 0;
  400af0:	2300      	movs	r3, #0
  400af2:	9301      	str	r3, [sp, #4]
	uint32_t ul_midl = 0;
  400af4:	9302      	str	r3, [sp, #8]
	twi_packet.addr[0] = OV2640_MIDH;
  400af6:	231c      	movs	r3, #28
  400af8:	f88d 301c 	strb.w	r3, [sp, #28]
	twi_packet.addr_length = 1;
  400afc:	9408      	str	r4, [sp, #32]
	twi_packet.chip = OV_I2C_SENSOR_ADDRESS;
  400afe:	f88d 602c 	strb.w	r6, [sp, #44]	; 0x2c
	twi_packet.buffer = &ul_midh;
  400b02:	ab01      	add	r3, sp, #4
  400b04:	9309      	str	r3, [sp, #36]	; 0x24
	twi_packet.length = 1;
  400b06:	940a      	str	r4, [sp, #40]	; 0x28
	ov_read_reg(p_twi, &twi_packet);
  400b08:	a907      	add	r1, sp, #28
  400b0a:	4638      	mov	r0, r7
  400b0c:	47a8      	blx	r5
	twi_packet.addr[0] = OV2640_MIDL;
  400b0e:	231d      	movs	r3, #29
  400b10:	f88d 301c 	strb.w	r3, [sp, #28]
	twi_packet.addr_length = 1;
  400b14:	9408      	str	r4, [sp, #32]
	twi_packet.chip = OV_I2C_SENSOR_ADDRESS;
  400b16:	f88d 602c 	strb.w	r6, [sp, #44]	; 0x2c
	twi_packet.buffer = &ul_midl;
  400b1a:	ab02      	add	r3, sp, #8
  400b1c:	9309      	str	r3, [sp, #36]	; 0x24
	twi_packet.length = 1;
  400b1e:	940a      	str	r4, [sp, #40]	; 0x28
	ov_read_reg(p_twi, &twi_packet);
  400b20:	a907      	add	r1, sp, #28
  400b22:	4638      	mov	r0, r7
  400b24:	47a8      	blx	r5
	if ((ul_midh == OV2640_MIDH_DEFAULT) && (ul_midl == OV2640_MIDL_DEFAULT)) {
  400b26:	9b01      	ldr	r3, [sp, #4]
  400b28:	2b7f      	cmp	r3, #127	; 0x7f
  400b2a:	d001      	beq.n	400b30 <ov_init+0xbc>
	return 1;
  400b2c:	2001      	movs	r0, #1
  400b2e:	e7dd      	b.n	400aec <ov_init+0x78>
	if ((ul_midh == OV2640_MIDH_DEFAULT) && (ul_midl == OV2640_MIDL_DEFAULT)) {
  400b30:	9b02      	ldr	r3, [sp, #8]
  400b32:	2ba2      	cmp	r3, #162	; 0xa2
  400b34:	d1fa      	bne.n	400b2c <ov_init+0xb8>
	uint32_t ul_value = 0;
  400b36:	2300      	movs	r3, #0
  400b38:	9300      	str	r3, [sp, #0]
	uint32_t ul_oldvalue = 0;
  400b3a:	9301      	str	r3, [sp, #4]
	uint32_t ul_entervalue = 0;
  400b3c:	9302      	str	r3, [sp, #8]
	twi_packet.addr[0] = 0x01;
  400b3e:	2301      	movs	r3, #1
  400b40:	f88d 301c 	strb.w	r3, [sp, #28]
	twi_packet.addr_length = 1;
  400b44:	9308      	str	r3, [sp, #32]
	twi_packet.chip = OV_I2C_SENSOR_ADDRESS;
  400b46:	2230      	movs	r2, #48	; 0x30
  400b48:	f88d 202c 	strb.w	r2, [sp, #44]	; 0x2c
	twi_packet.length = 1;
  400b4c:	930a      	str	r3, [sp, #40]	; 0x28
	twi_packet.buffer = &ul_oldvalue;
  400b4e:	ab01      	add	r3, sp, #4
  400b50:	9309      	str	r3, [sp, #36]	; 0x24
	ov_read_reg(p_twi, &twi_packet);
  400b52:	a907      	add	r1, sp, #28
  400b54:	4638      	mov	r0, r7
  400b56:	4c15      	ldr	r4, [pc, #84]	; (400bac <ov_init+0x138>)
  400b58:	47a0      	blx	r4
	ul_entervalue = 0xAD;
  400b5a:	ab12      	add	r3, sp, #72	; 0x48
  400b5c:	22ad      	movs	r2, #173	; 0xad
  400b5e:	f843 2d40 	str.w	r2, [r3, #-64]!
	twi_packet.buffer = &ul_entervalue;
  400b62:	9309      	str	r3, [sp, #36]	; 0x24
	ov_write_reg(p_twi, &twi_packet);
  400b64:	a907      	add	r1, sp, #28
  400b66:	4638      	mov	r0, r7
  400b68:	4b0f      	ldr	r3, [pc, #60]	; (400ba8 <ov_init+0x134>)
  400b6a:	4798      	blx	r3
	twi_packet.buffer = &ul_value;
  400b6c:	f8cd d024 	str.w	sp, [sp, #36]	; 0x24
	ov_read_reg(p_twi, &twi_packet);
  400b70:	a907      	add	r1, sp, #28
  400b72:	4638      	mov	r0, r7
  400b74:	47a0      	blx	r4
	if (ul_value != ul_entervalue) {
  400b76:	9b02      	ldr	r3, [sp, #8]
  400b78:	9a00      	ldr	r2, [sp, #0]
  400b7a:	429a      	cmp	r2, r3
  400b7c:	d001      	beq.n	400b82 <ov_init+0x10e>
		return 1;
  400b7e:	2001      	movs	r0, #1
  400b80:	e7b4      	b.n	400aec <ov_init+0x78>
	twi_packet.buffer = &ul_oldvalue;
  400b82:	ab01      	add	r3, sp, #4
  400b84:	9309      	str	r3, [sp, #36]	; 0x24
	ov_write_reg(p_twi, &twi_packet);
  400b86:	a907      	add	r1, sp, #28
  400b88:	4638      	mov	r0, r7
  400b8a:	4b07      	ldr	r3, [pc, #28]	; (400ba8 <ov_init+0x134>)
  400b8c:	4798      	blx	r3
	twi_packet.buffer = &ul_value;
  400b8e:	f8cd d024 	str.w	sp, [sp, #36]	; 0x24
	ov_read_reg(p_twi, &twi_packet);
  400b92:	a907      	add	r1, sp, #28
  400b94:	4638      	mov	r0, r7
  400b96:	4b05      	ldr	r3, [pc, #20]	; (400bac <ov_init+0x138>)
  400b98:	4798      	blx	r3
	if (ul_value != ul_oldvalue) {
  400b9a:	9b01      	ldr	r3, [sp, #4]
  400b9c:	9800      	ldr	r0, [sp, #0]
  400b9e:	1ac0      	subs	r0, r0, r3
  400ba0:	bf18      	it	ne
  400ba2:	2001      	movne	r0, #1
  400ba4:	e7a2      	b.n	400aec <ov_init+0x78>
  400ba6:	bf00      	nop
  400ba8:	00400a0d 	.word	0x00400a0d
  400bac:	00400a01 	.word	0x00400a01

00400bb0 <ov_configure>:
 * \param p_twi TWI interface.
 * \param format Specific format to configure.
 * \return 0 on success, 1 otherwise.
 */
uint32_t ov_configure(Twi* const p_twi, const e_OV2640_format format)
{
  400bb0:	b508      	push	{r3, lr}
	const ov_reg *p_regs_conf = NULL;

	/* Common register initialization */
	switch (format) {
  400bb2:	2911      	cmp	r1, #17
  400bb4:	d82a      	bhi.n	400c0c <ov_configure+0x5c>
  400bb6:	e8df f001 	tbb	[pc, r1]
  400bba:	092b      	.short	0x092b
  400bbc:	0f0d0b2d 	.word	0x0f0d0b2d
  400bc0:	17151311 	.word	0x17151311
  400bc4:	1f1d1b19 	.word	0x1f1d1b19
  400bc8:	27252321 	.word	0x27252321
	case JPEG_INIT:
		p_regs_conf = OV2640_JPEG_INIT;
		break;
		
	case YUV422:
		p_regs_conf = OV2640_YUV422;
  400bcc:	4914      	ldr	r1, [pc, #80]	; (400c20 <ov_configure+0x70>)
  400bce:	e022      	b.n	400c16 <ov_configure+0x66>
	case JPEG:
		p_regs_conf = OV2640_JPEG;
		break;
		
	case JPEG_320x240:
		p_regs_conf = OV2640_JPEG_320x240;
  400bd0:	4914      	ldr	r1, [pc, #80]	; (400c24 <ov_configure+0x74>)
		break;
  400bd2:	e020      	b.n	400c16 <ov_configure+0x66>
		
	case JPEG_640x480:
		p_regs_conf = OV2640_JPEG_640x480;
  400bd4:	4914      	ldr	r1, [pc, #80]	; (400c28 <ov_configure+0x78>)
		break;
  400bd6:	e01e      	b.n	400c16 <ov_configure+0x66>
		
	case JPEG_800x600:
		p_regs_conf = OV2640_JPEG_800x600;
  400bd8:	4914      	ldr	r1, [pc, #80]	; (400c2c <ov_configure+0x7c>)
		break;
  400bda:	e01c      	b.n	400c16 <ov_configure+0x66>
		
	case JPEG_1024x768:
		p_regs_conf = OV2640_JPEG_1024x768;
  400bdc:	4914      	ldr	r1, [pc, #80]	; (400c30 <ov_configure+0x80>)
		break;
  400bde:	e01a      	b.n	400c16 <ov_configure+0x66>
		
	case JPEG_1280x1024:
		p_regs_conf = OV2640_JPEG_1280x1024;
  400be0:	4914      	ldr	r1, [pc, #80]	; (400c34 <ov_configure+0x84>)
		break;
  400be2:	e018      	b.n	400c16 <ov_configure+0x66>
		
	case JPEG_1600x1200:
		p_regs_conf = OV2640_JPEG_1600x1200;
  400be4:	4914      	ldr	r1, [pc, #80]	; (400c38 <ov_configure+0x88>)
		break;
  400be6:	e016      	b.n	400c16 <ov_configure+0x66>
		
	case QVGA_YUV422_10FPS:
		p_regs_conf = OV2640_QVGA_YUV422_10FPS;
  400be8:	4914      	ldr	r1, [pc, #80]	; (400c3c <ov_configure+0x8c>)
		break;
  400bea:	e014      	b.n	400c16 <ov_configure+0x66>

	case QVGA_YUV422_15FPS:
		p_regs_conf = OV2640_QVGA_YUV422_15FPS;
  400bec:	4914      	ldr	r1, [pc, #80]	; (400c40 <ov_configure+0x90>)
		break;
  400bee:	e012      	b.n	400c16 <ov_configure+0x66>

	case QVGA_YUV422_20FPS:
		p_regs_conf = OV2640_QVGA_YUV422_20FPS;
  400bf0:	4914      	ldr	r1, [pc, #80]	; (400c44 <ov_configure+0x94>)
		break;
  400bf2:	e010      	b.n	400c16 <ov_configure+0x66>

	case QVGA_YUV422_30FPS:
		p_regs_conf = OV2640_QVGA_YUV422_30FPS;
  400bf4:	4914      	ldr	r1, [pc, #80]	; (400c48 <ov_configure+0x98>)
		break;
  400bf6:	e00e      	b.n	400c16 <ov_configure+0x66>

	case QVGA_RGB888:
		p_regs_conf = OV2640_QVGA_RGB888;
  400bf8:	4914      	ldr	r1, [pc, #80]	; (400c4c <ov_configure+0x9c>)
		break;
  400bfa:	e00c      	b.n	400c16 <ov_configure+0x66>

	case QQVGA_YUV422:
		p_regs_conf = OV2640_QQVGA_YUV422;
  400bfc:	4914      	ldr	r1, [pc, #80]	; (400c50 <ov_configure+0xa0>)
		break;
  400bfe:	e00a      	b.n	400c16 <ov_configure+0x66>

	case QQVGA_RGB888:
		p_regs_conf = OV2640_QQVGA_RGB888;
  400c00:	4914      	ldr	r1, [pc, #80]	; (400c54 <ov_configure+0xa4>)
		break;
  400c02:	e008      	b.n	400c16 <ov_configure+0x66>

	case TEST_PATTERN:
		p_regs_conf = OV2640_TEST_PATTERN;
  400c04:	4914      	ldr	r1, [pc, #80]	; (400c58 <ov_configure+0xa8>)
		break;
  400c06:	e006      	b.n	400c16 <ov_configure+0x66>

	case VGA_YUV422_20FPS:
		p_regs_conf = OV2640_VGA_YUV422_20FPS;
  400c08:	4914      	ldr	r1, [pc, #80]	; (400c5c <ov_configure+0xac>)
		break;
  400c0a:	e004      	b.n	400c16 <ov_configure+0x66>
	if (p_regs_conf != NULL) {
		ov_write_regs( p_twi, p_regs_conf );
		return 0;
	}

	return 1;
  400c0c:	2001      	movs	r0, #1
  400c0e:	bd08      	pop	{r3, pc}
		p_regs_conf = OV2640_JPEG_INIT;
  400c10:	4913      	ldr	r1, [pc, #76]	; (400c60 <ov_configure+0xb0>)
  400c12:	e000      	b.n	400c16 <ov_configure+0x66>
		p_regs_conf = OV2640_JPEG;
  400c14:	4913      	ldr	r1, [pc, #76]	; (400c64 <ov_configure+0xb4>)
		ov_write_regs( p_twi, p_regs_conf );
  400c16:	4b14      	ldr	r3, [pc, #80]	; (400c68 <ov_configure+0xb8>)
  400c18:	4798      	blx	r3
		return 0;
  400c1a:	2000      	movs	r0, #0
}
  400c1c:	bd08      	pop	{r3, pc}
  400c1e:	bf00      	nop
  400c20:	00407578 	.word	0x00407578
  400c24:	00406a80 	.word	0x00406a80
  400c28:	00406ad0 	.word	0x00406ad0
  400c2c:	00406b24 	.word	0x00406b24
  400c30:	00406988 	.word	0x00406988
  400c34:	004069d8 	.word	0x004069d8
  400c38:	00406a2c 	.word	0x00406a2c
  400c3c:	00406fd4 	.word	0x00406fd4
  400c40:	004070c4 	.word	0x004070c4
  400c44:	004071b4 	.word	0x004071b4
  400c48:	004072a4 	.word	0x004072a4
  400c4c:	00406ee0 	.word	0x00406ee0
  400c50:	00406dec 	.word	0x00406dec
  400c54:	00406cf8 	.word	0x00406cf8
  400c58:	00407394 	.word	0x00407394
  400c5c:	00407488 	.word	0x00407488
  400c60:	00406b78 	.word	0x00406b78
  400c64:	00406974 	.word	0x00406974
  400c68:	00400a19 	.word	0x00400a19

00400c6c <TC0_Handler>:
 */ 

#include "timer_interface.h"

void TC0_Handler(void)
{
  400c6c:	b508      	push	{r3, lr}
	uint32_t ul_status;

	// Read TC0 status.
	ul_status = tc_get_status(TC0, 0);
  400c6e:	2100      	movs	r1, #0
  400c70:	4805      	ldr	r0, [pc, #20]	; (400c88 <TC0_Handler+0x1c>)
  400c72:	4b06      	ldr	r3, [pc, #24]	; (400c8c <TC0_Handler+0x20>)
  400c74:	4798      	blx	r3

	// RC compare.
	if ((ul_status & TC_SR_CPCS) == TC_SR_CPCS) {
  400c76:	f010 0f10 	tst.w	r0, #16
  400c7a:	d004      	beq.n	400c86 <TC0_Handler+0x1a>
		counts++;
  400c7c:	4a04      	ldr	r2, [pc, #16]	; (400c90 <TC0_Handler+0x24>)
  400c7e:	7813      	ldrb	r3, [r2, #0]
  400c80:	3301      	adds	r3, #1
  400c82:	b2db      	uxtb	r3, r3
  400c84:	7013      	strb	r3, [r2, #0]
  400c86:	bd08      	pop	{r3, pc}
  400c88:	40010000 	.word	0x40010000
  400c8c:	00400341 	.word	0x00400341
  400c90:	20019164 	.word	0x20019164

00400c94 <configure_tc>:
	}
}

void configure_tc(void)
{
  400c94:	b530      	push	{r4, r5, lr}
  400c96:	b085      	sub	sp, #20

	// Get system clock.
	ul_sysclk = sysclk_get_cpu_hz();

	// Configure PMC.
	pmc_enable_periph_clk(ID_TC0);
  400c98:	2017      	movs	r0, #23
  400c9a:	4b14      	ldr	r3, [pc, #80]	; (400cec <configure_tc+0x58>)
  400c9c:	4798      	blx	r3

	// Configure TC for a 1Hz frequency and trigger on RC compare.
	tc_find_mck_divisor(TC_FREQ, ul_sysclk, &ul_div, &ul_tcclks, ul_sysclk);
  400c9e:	4d14      	ldr	r5, [pc, #80]	; (400cf0 <configure_tc+0x5c>)
  400ca0:	9500      	str	r5, [sp, #0]
  400ca2:	ab02      	add	r3, sp, #8
  400ca4:	aa03      	add	r2, sp, #12
  400ca6:	4629      	mov	r1, r5
  400ca8:	2001      	movs	r0, #1
  400caa:	4c12      	ldr	r4, [pc, #72]	; (400cf4 <configure_tc+0x60>)
  400cac:	47a0      	blx	r4
	tc_init(TC0, 0, ul_tcclks | TC_CMR_CPCTRG);
  400cae:	4c12      	ldr	r4, [pc, #72]	; (400cf8 <configure_tc+0x64>)
  400cb0:	9a02      	ldr	r2, [sp, #8]
  400cb2:	f442 4280 	orr.w	r2, r2, #16384	; 0x4000
  400cb6:	2100      	movs	r1, #0
  400cb8:	4620      	mov	r0, r4
  400cba:	4b10      	ldr	r3, [pc, #64]	; (400cfc <configure_tc+0x68>)
  400cbc:	4798      	blx	r3
	tc_write_rc(TC0, 0, (ul_sysclk / ul_div) / TC_FREQ);
  400cbe:	9a03      	ldr	r2, [sp, #12]
  400cc0:	fbb5 f2f2 	udiv	r2, r5, r2
  400cc4:	2100      	movs	r1, #0
  400cc6:	4620      	mov	r0, r4
  400cc8:	4b0d      	ldr	r3, [pc, #52]	; (400d00 <configure_tc+0x6c>)
  400cca:	4798      	blx	r3
  400ccc:	f44f 0200 	mov.w	r2, #8388608	; 0x800000
  400cd0:	4b0c      	ldr	r3, [pc, #48]	; (400d04 <configure_tc+0x70>)
  400cd2:	601a      	str	r2, [r3, #0]

	// Configure and enable interrupt on RC compare.
	NVIC_EnableIRQ((IRQn_Type) ID_TC0);
	tc_enable_interrupt(TC0, 0, TC_IER_CPCS);
  400cd4:	2210      	movs	r2, #16
  400cd6:	2100      	movs	r1, #0
  400cd8:	4620      	mov	r0, r4
  400cda:	4b0b      	ldr	r3, [pc, #44]	; (400d08 <configure_tc+0x74>)
  400cdc:	4798      	blx	r3
	
	// Start the timer
	tc_start(TC0, 0);
  400cde:	2100      	movs	r1, #0
  400ce0:	4620      	mov	r0, r4
  400ce2:	4b0a      	ldr	r3, [pc, #40]	; (400d0c <configure_tc+0x78>)
  400ce4:	4798      	blx	r3
  400ce6:	b005      	add	sp, #20
  400ce8:	bd30      	pop	{r4, r5, pc}
  400cea:	bf00      	nop
  400cec:	0040149d 	.word	0x0040149d
  400cf0:	07270e00 	.word	0x07270e00
  400cf4:	00400349 	.word	0x00400349
  400cf8:	40010000 	.word	0x40010000
  400cfc:	00400311 	.word	0x00400311
  400d00:	00400331 	.word	0x00400331
  400d04:	e000e100 	.word	0xe000e100
  400d08:	00400339 	.word	0x00400339
  400d0c:	00400329 	.word	0x00400329

00400d10 <wifi_provision_handler>:
}


void wifi_provision_handler(uint32_t ul_id, uint32_t ul_mask)
{
	provisioning_flag = true;
  400d10:	2201      	movs	r2, #1
  400d12:	4b01      	ldr	r3, [pc, #4]	; (400d18 <wifi_provision_handler+0x8>)
  400d14:	701a      	strb	r2, [r3, #0]
  400d16:	4770      	bx	lr
  400d18:	20019560 	.word	0x20019560

00400d1c <process_incoming_byte_wifi>:
	wifi_buffer_in[wifi_buffer_in_index++] = in_byte;
  400d1c:	4a03      	ldr	r2, [pc, #12]	; (400d2c <process_incoming_byte_wifi+0x10>)
  400d1e:	6813      	ldr	r3, [r2, #0]
  400d20:	1c59      	adds	r1, r3, #1
  400d22:	6011      	str	r1, [r2, #0]
  400d24:	4a02      	ldr	r2, [pc, #8]	; (400d30 <process_incoming_byte_wifi+0x14>)
  400d26:	54d0      	strb	r0, [r2, r3]
  400d28:	4770      	bx	lr
  400d2a:	bf00      	nop
  400d2c:	20000a64 	.word	0x20000a64
  400d30:	20019168 	.word	0x20019168

00400d34 <USART0_Handler>:
{
  400d34:	b510      	push	{r4, lr}
	ul_status = usart_get_status(WIFI_USART);
  400d36:	4808      	ldr	r0, [pc, #32]	; (400d58 <USART0_Handler+0x24>)
  400d38:	4b08      	ldr	r3, [pc, #32]	; (400d5c <USART0_Handler+0x28>)
  400d3a:	4798      	blx	r3
	if (ul_status & US_CSR_RXBUFF)
  400d3c:	f410 5f80 	tst.w	r0, #4096	; 0x1000
  400d40:	d100      	bne.n	400d44 <USART0_Handler+0x10>
  400d42:	bd10      	pop	{r4, pc}
		usart_read(WIFI_USART, &received_byte_wifi);
  400d44:	4c06      	ldr	r4, [pc, #24]	; (400d60 <USART0_Handler+0x2c>)
  400d46:	4621      	mov	r1, r4
  400d48:	4803      	ldr	r0, [pc, #12]	; (400d58 <USART0_Handler+0x24>)
  400d4a:	4b06      	ldr	r3, [pc, #24]	; (400d64 <USART0_Handler+0x30>)
  400d4c:	4798      	blx	r3
		process_incoming_byte_wifi((uint8_t)received_byte_wifi);
  400d4e:	6820      	ldr	r0, [r4, #0]
  400d50:	b2c0      	uxtb	r0, r0
  400d52:	4b05      	ldr	r3, [pc, #20]	; (400d68 <USART0_Handler+0x34>)
  400d54:	4798      	blx	r3
}
  400d56:	e7f4      	b.n	400d42 <USART0_Handler+0xe>
  400d58:	40024000 	.word	0x40024000
  400d5c:	0040070d 	.word	0x0040070d
  400d60:	20000a60 	.word	0x20000a60
  400d64:	00400745 	.word	0x00400745
  400d68:	00400d1d 	.word	0x00400d1d

00400d6c <process_data_wifi>:
{
  400d6c:	b508      	push	{r3, lr}
	if (strstr(wifi_buffer_in, "SUCCESS"))
  400d6e:	4904      	ldr	r1, [pc, #16]	; (400d80 <process_data_wifi+0x14>)
  400d70:	4804      	ldr	r0, [pc, #16]	; (400d84 <process_data_wifi+0x18>)
  400d72:	4b05      	ldr	r3, [pc, #20]	; (400d88 <process_data_wifi+0x1c>)
  400d74:	4798      	blx	r3
  400d76:	b110      	cbz	r0, 400d7e <process_data_wifi+0x12>
		reading_wifi_flag = true;
  400d78:	2201      	movs	r2, #1
  400d7a:	4b04      	ldr	r3, [pc, #16]	; (400d8c <process_data_wifi+0x20>)
  400d7c:	701a      	strb	r2, [r3, #0]
  400d7e:	bd08      	pop	{r3, pc}
  400d80:	004075a4 	.word	0x004075a4
  400d84:	20019168 	.word	0x20019168
  400d88:	00401e35 	.word	0x00401e35
  400d8c:	20019554 	.word	0x20019554

00400d90 <wifi_command_response_handler>:
{
  400d90:	b508      	push	{r3, lr}
	process_data_wifi();
  400d92:	4b07      	ldr	r3, [pc, #28]	; (400db0 <wifi_command_response_handler+0x20>)
  400d94:	4798      	blx	r3
	memset(wifi_buffer_in, 0, sizeof(wifi_buffer_in));
  400d96:	f44f 727a 	mov.w	r2, #1000	; 0x3e8
  400d9a:	2100      	movs	r1, #0
  400d9c:	4805      	ldr	r0, [pc, #20]	; (400db4 <wifi_command_response_handler+0x24>)
  400d9e:	4b06      	ldr	r3, [pc, #24]	; (400db8 <wifi_command_response_handler+0x28>)
  400da0:	4798      	blx	r3
	wifi_buffer_in_index = 0;
  400da2:	2200      	movs	r2, #0
  400da4:	4b05      	ldr	r3, [pc, #20]	; (400dbc <wifi_command_response_handler+0x2c>)
  400da6:	601a      	str	r2, [r3, #0]
	command_flag = true;
  400da8:	2201      	movs	r2, #1
  400daa:	4b05      	ldr	r3, [pc, #20]	; (400dc0 <wifi_command_response_handler+0x30>)
  400dac:	701a      	strb	r2, [r3, #0]
  400dae:	bd08      	pop	{r3, pc}
  400db0:	00400d6d 	.word	0x00400d6d
  400db4:	20019168 	.word	0x20019168
  400db8:	00401a9d 	.word	0x00401a9d
  400dbc:	20000a64 	.word	0x20000a64
  400dc0:	20000a5c 	.word	0x20000a5c

00400dc4 <configure_usart>:
{	
  400dc4:	b530      	push	{r4, r5, lr}
  400dc6:	b087      	sub	sp, #28
	const sam_usart_opt_t usart_console_settings =
  400dc8:	466c      	mov	r4, sp
  400dca:	4d12      	ldr	r5, [pc, #72]	; (400e14 <configure_usart+0x50>)
  400dcc:	cd0f      	ldmia	r5!, {r0, r1, r2, r3}
  400dce:	c40f      	stmia	r4!, {r0, r1, r2, r3}
  400dd0:	e895 0003 	ldmia.w	r5, {r0, r1}
  400dd4:	e884 0003 	stmia.w	r4, {r0, r1}
  400dd8:	200e      	movs	r0, #14
  400dda:	4b0f      	ldr	r3, [pc, #60]	; (400e18 <configure_usart+0x54>)
  400ddc:	4798      	blx	r3
	usart_init_rs232(WIFI_USART, &usart_console_settings, sysclk_get_peripheral_hz());
  400dde:	4c0f      	ldr	r4, [pc, #60]	; (400e1c <configure_usart+0x58>)
  400de0:	4a0f      	ldr	r2, [pc, #60]	; (400e20 <configure_usart+0x5c>)
  400de2:	4669      	mov	r1, sp
  400de4:	4620      	mov	r0, r4
  400de6:	4b0f      	ldr	r3, [pc, #60]	; (400e24 <configure_usart+0x60>)
  400de8:	4798      	blx	r3
	usart_disable_interrupt(WIFI_USART, ALL_INTERRUPT_MASK);
  400dea:	f04f 31ff 	mov.w	r1, #4294967295
  400dee:	4620      	mov	r0, r4
  400df0:	4b0d      	ldr	r3, [pc, #52]	; (400e28 <configure_usart+0x64>)
  400df2:	4798      	blx	r3
	usart_enable_tx(WIFI_USART);
  400df4:	4620      	mov	r0, r4
  400df6:	4b0d      	ldr	r3, [pc, #52]	; (400e2c <configure_usart+0x68>)
  400df8:	4798      	blx	r3
	usart_enable_rx(WIFI_USART);
  400dfa:	4620      	mov	r0, r4
  400dfc:	4b0c      	ldr	r3, [pc, #48]	; (400e30 <configure_usart+0x6c>)
  400dfe:	4798      	blx	r3
  400e00:	f44f 4280 	mov.w	r2, #16384	; 0x4000
  400e04:	4b0b      	ldr	r3, [pc, #44]	; (400e34 <configure_usart+0x70>)
  400e06:	601a      	str	r2, [r3, #0]
	usart_enable_interrupt(WIFI_USART, US_IER_RXRDY);
  400e08:	2101      	movs	r1, #1
  400e0a:	4620      	mov	r0, r4
  400e0c:	4b0a      	ldr	r3, [pc, #40]	; (400e38 <configure_usart+0x74>)
  400e0e:	4798      	blx	r3
}
  400e10:	b007      	add	sp, #28
  400e12:	bd30      	pop	{r4, r5, pc}
  400e14:	0040758c 	.word	0x0040758c
  400e18:	0040149d 	.word	0x0040149d
  400e1c:	40024000 	.word	0x40024000
  400e20:	07270e00 	.word	0x07270e00
  400e24:	004006a5 	.word	0x004006a5
  400e28:	00400709 	.word	0x00400709
  400e2c:	004006f9 	.word	0x004006f9
  400e30:	004006ff 	.word	0x004006ff
  400e34:	e000e100 	.word	0xe000e100
  400e38:	00400705 	.word	0x00400705

00400e3c <configure_wifi_comm_pin>:
{
  400e3c:	b530      	push	{r4, r5, lr}
  400e3e:	b083      	sub	sp, #12
	pmc_enable_periph_clk(WIFI_COMM_ID);
  400e40:	200b      	movs	r0, #11
  400e42:	4b0b      	ldr	r3, [pc, #44]	; (400e70 <configure_wifi_comm_pin+0x34>)
  400e44:	4798      	blx	r3
	pio_handler_set(WIFI_COMM_PIO, WIFI_COMM_ID, WIFI_COMM_PIN_NUM, WIFI_COMM_ATTR, wifi_command_response_handler);
  400e46:	4c0b      	ldr	r4, [pc, #44]	; (400e74 <configure_wifi_comm_pin+0x38>)
  400e48:	4b0b      	ldr	r3, [pc, #44]	; (400e78 <configure_wifi_comm_pin+0x3c>)
  400e4a:	9300      	str	r3, [sp, #0]
  400e4c:	2370      	movs	r3, #112	; 0x70
  400e4e:	f44f 7200 	mov.w	r2, #512	; 0x200
  400e52:	210b      	movs	r1, #11
  400e54:	4620      	mov	r0, r4
  400e56:	4d09      	ldr	r5, [pc, #36]	; (400e7c <configure_wifi_comm_pin+0x40>)
  400e58:	47a8      	blx	r5
  400e5a:	f44f 6200 	mov.w	r2, #2048	; 0x800
  400e5e:	4b08      	ldr	r3, [pc, #32]	; (400e80 <configure_wifi_comm_pin+0x44>)
  400e60:	601a      	str	r2, [r3, #0]
	pio_enable_interrupt(WIFI_COMM_PIO, WIFI_COMM_PIN_NUM);
  400e62:	f44f 7100 	mov.w	r1, #512	; 0x200
  400e66:	4620      	mov	r0, r4
  400e68:	4b06      	ldr	r3, [pc, #24]	; (400e84 <configure_wifi_comm_pin+0x48>)
  400e6a:	4798      	blx	r3
}
  400e6c:	b003      	add	sp, #12
  400e6e:	bd30      	pop	{r4, r5, pc}
  400e70:	0040149d 	.word	0x0040149d
  400e74:	400e0e00 	.word	0x400e0e00
  400e78:	00400d91 	.word	0x00400d91
  400e7c:	004001a1 	.word	0x004001a1
  400e80:	e000e100 	.word	0xe000e100
  400e84:	0040121f 	.word	0x0040121f

00400e88 <write_wifi_command>:
{
  400e88:	b510      	push	{r4, lr}
  400e8a:	b09a      	sub	sp, #104	; 0x68
  400e8c:	460c      	mov	r4, r1
	counts = 0;
  400e8e:	2300      	movs	r3, #0
  400e90:	4a0e      	ldr	r2, [pc, #56]	; (400ecc <write_wifi_command+0x44>)
  400e92:	7013      	strb	r3, [r2, #0]
	command_flag = false;
  400e94:	4a0e      	ldr	r2, [pc, #56]	; (400ed0 <write_wifi_command+0x48>)
  400e96:	7013      	strb	r3, [r2, #0]
	sprintf (wifi_buff, "%s\r\n", comm);
  400e98:	4602      	mov	r2, r0
  400e9a:	490e      	ldr	r1, [pc, #56]	; (400ed4 <write_wifi_command+0x4c>)
  400e9c:	a801      	add	r0, sp, #4
  400e9e:	4b0e      	ldr	r3, [pc, #56]	; (400ed8 <write_wifi_command+0x50>)
  400ea0:	4798      	blx	r3
	usart_write_line(WIFI_USART, wifi_buff);
  400ea2:	a901      	add	r1, sp, #4
  400ea4:	480d      	ldr	r0, [pc, #52]	; (400edc <write_wifi_command+0x54>)
  400ea6:	4b0e      	ldr	r3, [pc, #56]	; (400ee0 <write_wifi_command+0x58>)
  400ea8:	4798      	blx	r3
		if (counts >= cnt)
  400eaa:	4a08      	ldr	r2, [pc, #32]	; (400ecc <write_wifi_command+0x44>)
		else if (command_flag)
  400eac:	4908      	ldr	r1, [pc, #32]	; (400ed0 <write_wifi_command+0x48>)
		if (counts >= cnt)
  400eae:	7813      	ldrb	r3, [r2, #0]
  400eb0:	b2db      	uxtb	r3, r3
  400eb2:	42a3      	cmp	r3, r4
  400eb4:	d202      	bcs.n	400ebc <write_wifi_command+0x34>
		else if (command_flag)
  400eb6:	780b      	ldrb	r3, [r1, #0]
  400eb8:	2b00      	cmp	r3, #0
  400eba:	d0f8      	beq.n	400eae <write_wifi_command+0x26>
	if (command_flag)
  400ebc:	4b04      	ldr	r3, [pc, #16]	; (400ed0 <write_wifi_command+0x48>)
  400ebe:	781b      	ldrb	r3, [r3, #0]
  400ec0:	b113      	cbz	r3, 400ec8 <write_wifi_command+0x40>
		command_flag = false;
  400ec2:	2200      	movs	r2, #0
  400ec4:	4b02      	ldr	r3, [pc, #8]	; (400ed0 <write_wifi_command+0x48>)
  400ec6:	701a      	strb	r2, [r3, #0]
}
  400ec8:	b01a      	add	sp, #104	; 0x68
  400eca:	bd10      	pop	{r4, pc}
  400ecc:	20019164 	.word	0x20019164
  400ed0:	20000a5c 	.word	0x20000a5c
  400ed4:	004075c0 	.word	0x004075c0
  400ed8:	00401b39 	.word	0x00401b39
  400edc:	40024000 	.word	0x40024000
  400ee0:	00400725 	.word	0x00400725

00400ee4 <configure_wifi_provision_pin>:
}


void configure_wifi_provision_pin(void)
{
  400ee4:	b530      	push	{r4, r5, lr}
  400ee6:	b083      	sub	sp, #12
	/* Configure PIO clock. */
	pmc_enable_periph_clk(WIFI_SETUP_BUTTON_ID);
  400ee8:	200b      	movs	r0, #11
  400eea:	4b0b      	ldr	r3, [pc, #44]	; (400f18 <configure_wifi_provision_pin+0x34>)
  400eec:	4798      	blx	r3

	/* Initialize PIO interrupt handler, see PIO definition in conf_board.h **/
	pio_handler_set(WIFI_SETUP_BUTTON_PIO, WIFI_SETUP_BUTTON_ID, WIFI_SETUP_BUTTON_NUM, WIFI_SETUP_BUTTON_ATTR, wifi_provision_handler);
  400eee:	4c0b      	ldr	r4, [pc, #44]	; (400f1c <configure_wifi_provision_pin+0x38>)
  400ef0:	4b0b      	ldr	r3, [pc, #44]	; (400f20 <configure_wifi_provision_pin+0x3c>)
  400ef2:	9300      	str	r3, [sp, #0]
  400ef4:	2359      	movs	r3, #89	; 0x59
  400ef6:	f44f 2200 	mov.w	r2, #524288	; 0x80000
  400efa:	210b      	movs	r1, #11
  400efc:	4620      	mov	r0, r4
  400efe:	4d09      	ldr	r5, [pc, #36]	; (400f24 <configure_wifi_provision_pin+0x40>)
  400f00:	47a8      	blx	r5
  400f02:	f44f 6200 	mov.w	r2, #2048	; 0x800
  400f06:	4b08      	ldr	r3, [pc, #32]	; (400f28 <configure_wifi_provision_pin+0x44>)
  400f08:	601a      	str	r2, [r3, #0]

	/* Enable PIO controller IRQs. */
	NVIC_EnableIRQ((IRQn_Type)WIFI_SETUP_BUTTON_ID);

	/* Enable PIO interrupt lines. */
	pio_enable_interrupt(WIFI_SETUP_BUTTON_PIO, WIFI_SETUP_BUTTON_NUM);
  400f0a:	f44f 2100 	mov.w	r1, #524288	; 0x80000
  400f0e:	4620      	mov	r0, r4
  400f10:	4b06      	ldr	r3, [pc, #24]	; (400f2c <configure_wifi_provision_pin+0x48>)
  400f12:	4798      	blx	r3
}
  400f14:	b003      	add	sp, #12
  400f16:	bd30      	pop	{r4, r5, pc}
  400f18:	0040149d 	.word	0x0040149d
  400f1c:	400e0e00 	.word	0x400e0e00
  400f20:	00400d11 	.word	0x00400d11
  400f24:	004001a1 	.word	0x004001a1
  400f28:	e000e100 	.word	0xe000e100
  400f2c:	0040121f 	.word	0x0040121f

00400f30 <SPI_Handler>:
 *
 * \return SPI status register value.
 */
static inline uint32_t spi_read_status(Spi *p_spi)
{
	return p_spi->SPI_SR;
  400f30:	4b10      	ldr	r3, [pc, #64]	; (400f74 <SPI_Handler+0x44>)
  400f32:	691b      	ldr	r3, [r3, #16]
	
	uint32_t new_cmd = 0;
	static uint16_t data;
	uint8_t uc_pcs;

	if (spi_read_status(SPI_SLAVE_BASE) & SPI_SR_RDRF)
  400f34:	f013 0f01 	tst.w	r3, #1
  400f38:	d100      	bne.n	400f3c <SPI_Handler+0xc>
  400f3a:	4770      	bx	lr
{	// Handler for peripheral mode interrupts on SPI bus. When the
  400f3c:	b510      	push	{r4, lr}
  400f3e:	b082      	sub	sp, #8
	{		
		spi_read(SPI_SLAVE_BASE, &data, &uc_pcs);
  400f40:	f10d 0207 	add.w	r2, sp, #7
  400f44:	490c      	ldr	r1, [pc, #48]	; (400f78 <SPI_Handler+0x48>)
  400f46:	480b      	ldr	r0, [pc, #44]	; (400f74 <SPI_Handler+0x44>)
  400f48:	4b0c      	ldr	r3, [pc, #48]	; (400f7c <SPI_Handler+0x4c>)
  400f4a:	4798      	blx	r3
		if (gs_ul_transfer_length--)
  400f4c:	4a0c      	ldr	r2, [pc, #48]	; (400f80 <SPI_Handler+0x50>)
  400f4e:	6813      	ldr	r3, [r2, #0]
  400f50:	1e59      	subs	r1, r3, #1
  400f52:	6011      	str	r1, [r2, #0]
  400f54:	b90b      	cbnz	r3, 400f5a <SPI_Handler+0x2a>
		{
			//transfer one byte of image
			spi_write(SPI_SLAVE_BASE, g_p_uc_cap_dest_buf[gs_ul_transfer_index++], 0, 0);
		}
	}
}
  400f56:	b002      	add	sp, #8
  400f58:	bd10      	pop	{r4, pc}
			spi_write(SPI_SLAVE_BASE, g_p_uc_cap_dest_buf[gs_ul_transfer_index++], 0, 0);
  400f5a:	4a0a      	ldr	r2, [pc, #40]	; (400f84 <SPI_Handler+0x54>)
  400f5c:	6813      	ldr	r3, [r2, #0]
  400f5e:	1c59      	adds	r1, r3, #1
  400f60:	6011      	str	r1, [r2, #0]
  400f62:	4a09      	ldr	r2, [pc, #36]	; (400f88 <SPI_Handler+0x58>)
  400f64:	5cd1      	ldrb	r1, [r2, r3]
  400f66:	2300      	movs	r3, #0
  400f68:	461a      	mov	r2, r3
  400f6a:	4802      	ldr	r0, [pc, #8]	; (400f74 <SPI_Handler+0x44>)
  400f6c:	4c07      	ldr	r4, [pc, #28]	; (400f8c <SPI_Handler+0x5c>)
  400f6e:	47a0      	blx	r4
}
  400f70:	e7f1      	b.n	400f56 <SPI_Handler+0x26>
  400f72:	bf00      	nop
  400f74:	40008000 	.word	0x40008000
  400f78:	20000a5e 	.word	0x20000a5e
  400f7c:	0040025f 	.word	0x0040025f
  400f80:	20019558 	.word	0x20019558
  400f84:	20019550 	.word	0x20019550
  400f88:	20000aa8 	.word	0x20000aa8
  400f8c:	0040028d 	.word	0x0040028d

00400f90 <spi_peripheral_initialize>:
	spi_peripheral_initialize();
	prepare_spi_transfer();
}

void spi_peripheral_initialize(void)
{
  400f90:	b510      	push	{r4, lr}
	// Initialize the SPI port as a peripheral (slave) device.
	spi_enable_clock(SPI_SLAVE_BASE);
  400f92:	4c13      	ldr	r4, [pc, #76]	; (400fe0 <spi_peripheral_initialize+0x50>)
  400f94:	4620      	mov	r0, r4
  400f96:	4b13      	ldr	r3, [pc, #76]	; (400fe4 <spi_peripheral_initialize+0x54>)
  400f98:	4798      	blx	r3
	p_spi->SPI_CR = SPI_CR_SPIDIS;
  400f9a:	2302      	movs	r3, #2
  400f9c:	6023      	str	r3, [r4, #0]
	p_spi->SPI_CR = SPI_CR_SWRST;
  400f9e:	2380      	movs	r3, #128	; 0x80
  400fa0:	6023      	str	r3, [r4, #0]
	p_spi->SPI_MR &= (~SPI_MR_MSTR);
  400fa2:	6863      	ldr	r3, [r4, #4]
  400fa4:	f023 0301 	bic.w	r3, r3, #1
  400fa8:	6063      	str	r3, [r4, #4]
	p_spi->SPI_MR |= SPI_MR_MODFDIS;
  400faa:	6863      	ldr	r3, [r4, #4]
  400fac:	f043 0310 	orr.w	r3, r3, #16
  400fb0:	6063      	str	r3, [r4, #4]
	spi_disable(SPI_SLAVE_BASE);
	spi_reset(SPI_SLAVE_BASE);
	spi_set_slave_mode(SPI_SLAVE_BASE);
	spi_disable_mode_fault_detect(SPI_SLAVE_BASE);
	spi_set_peripheral_chip_select_value(SPI_SLAVE_BASE, SPI_CHIP_PCS);
  400fb2:	210e      	movs	r1, #14
  400fb4:	4620      	mov	r0, r4
  400fb6:	4b0c      	ldr	r3, [pc, #48]	; (400fe8 <spi_peripheral_initialize+0x58>)
  400fb8:	4798      	blx	r3
	spi_set_clock_polarity(SPI_SLAVE_BASE, SPI_CHIP_SEL, SPI_CLK_POLARITY);
  400fba:	2200      	movs	r2, #0
  400fbc:	4611      	mov	r1, r2
  400fbe:	4620      	mov	r0, r4
  400fc0:	4b0a      	ldr	r3, [pc, #40]	; (400fec <spi_peripheral_initialize+0x5c>)
  400fc2:	4798      	blx	r3
	spi_set_clock_phase(SPI_SLAVE_BASE, SPI_CHIP_SEL, SPI_CLK_PHASE);
  400fc4:	2201      	movs	r2, #1
  400fc6:	2100      	movs	r1, #0
  400fc8:	4620      	mov	r0, r4
  400fca:	4b09      	ldr	r3, [pc, #36]	; (400ff0 <spi_peripheral_initialize+0x60>)
  400fcc:	4798      	blx	r3
	spi_set_bits_per_transfer(SPI_SLAVE_BASE, SPI_CHIP_SEL, SPI_CSR_BITS_8_BIT);
  400fce:	2200      	movs	r2, #0
  400fd0:	4611      	mov	r1, r2
  400fd2:	4620      	mov	r0, r4
  400fd4:	4b07      	ldr	r3, [pc, #28]	; (400ff4 <spi_peripheral_initialize+0x64>)
  400fd6:	4798      	blx	r3
 * \param p_spi Pointer to an SPI instance.
 * \param ul_sources Interrupts to be enabled.
 */
static inline void spi_enable_interrupt(Spi *p_spi, uint32_t ul_sources)
{
	p_spi->SPI_IER = ul_sources;
  400fd8:	2301      	movs	r3, #1
  400fda:	6163      	str	r3, [r4, #20]
	p_spi->SPI_CR = SPI_CR_SPIEN;
  400fdc:	6023      	str	r3, [r4, #0]
  400fde:	bd10      	pop	{r4, pc}
  400fe0:	40008000 	.word	0x40008000
  400fe4:	00400239 	.word	0x00400239
  400fe8:	00400249 	.word	0x00400249
  400fec:	004002c1 	.word	0x004002c1
  400ff0:	004002df 	.word	0x004002df
  400ff4:	004002fd 	.word	0x004002fd

00400ff8 <prepare_spi_transfer>:
}

void prepare_spi_transfer(void)
{
	// Set necessary parameters to prepare for SPI transfer.
	gs_puc_transfer_buffer = g_p_uc_cap_dest_buf;
  400ff8:	4a06      	ldr	r2, [pc, #24]	; (401014 <prepare_spi_transfer+0x1c>)
  400ffa:	4b07      	ldr	r3, [pc, #28]	; (401018 <prepare_spi_transfer+0x20>)
  400ffc:	601a      	str	r2, [r3, #0]
	gs_ul_transfer_length = image_size + 1;
  400ffe:	4b07      	ldr	r3, [pc, #28]	; (40101c <prepare_spi_transfer+0x24>)
  401000:	681b      	ldr	r3, [r3, #0]
  401002:	3301      	adds	r3, #1
  401004:	4a06      	ldr	r2, [pc, #24]	; (401020 <prepare_spi_transfer+0x28>)
  401006:	6013      	str	r3, [r2, #0]
	gs_ul_transfer_index = image_start;
  401008:	4b06      	ldr	r3, [pc, #24]	; (401024 <prepare_spi_transfer+0x2c>)
  40100a:	681a      	ldr	r2, [r3, #0]
  40100c:	4b06      	ldr	r3, [pc, #24]	; (401028 <prepare_spi_transfer+0x30>)
  40100e:	601a      	str	r2, [r3, #0]
  401010:	4770      	bx	lr
  401012:	bf00      	nop
  401014:	20000aa8 	.word	0x20000aa8
  401018:	2001955c 	.word	0x2001955c
  40101c:	20000aa0 	.word	0x20000aa0
  401020:	20019558 	.word	0x20019558
  401024:	20019148 	.word	0x20019148
  401028:	20019550 	.word	0x20019550

0040102c <configure_spi>:
{
  40102c:	b508      	push	{r3, lr}
    NVIC->ICER[(((uint32_t)IRQn) >> 5UL)] = (uint32_t)(1UL << (((uint32_t)IRQn) & 0x1FUL));
  40102e:	4b0a      	ldr	r3, [pc, #40]	; (401058 <configure_spi+0x2c>)
  401030:	f44f 1200 	mov.w	r2, #2097152	; 0x200000
  401034:	f8c3 2080 	str.w	r2, [r3, #128]	; 0x80
  __ASM volatile ("dsb 0xF":::"memory");
  401038:	f3bf 8f4f 	dsb	sy
  __ASM volatile ("isb 0xF":::"memory");
  40103c:	f3bf 8f6f 	isb	sy
    NVIC->ICPR[(((uint32_t)IRQn) >> 5UL)] = (uint32_t)(1UL << (((uint32_t)IRQn) & 0x1FUL));
  401040:	f8c3 2180 	str.w	r2, [r3, #384]	; 0x180
    NVIC->IP[((uint32_t)IRQn)]               = (uint8_t)((priority << (8U - __NVIC_PRIO_BITS)) & (uint32_t)0xFFUL);
  401044:	2100      	movs	r1, #0
  401046:	f883 1315 	strb.w	r1, [r3, #789]	; 0x315
    NVIC->ISER[(((uint32_t)IRQn) >> 5UL)] = (uint32_t)(1UL << (((uint32_t)IRQn) & 0x1FUL));
  40104a:	601a      	str	r2, [r3, #0]
	spi_peripheral_initialize();
  40104c:	4b03      	ldr	r3, [pc, #12]	; (40105c <configure_spi+0x30>)
  40104e:	4798      	blx	r3
	prepare_spi_transfer();
  401050:	4b03      	ldr	r3, [pc, #12]	; (401060 <configure_spi+0x34>)
  401052:	4798      	blx	r3
  401054:	bd08      	pop	{r3, pc}
  401056:	bf00      	nop
  401058:	e000e100 	.word	0xe000e100
  40105c:	00400f91 	.word	0x00400f91
  401060:	00400ff9 	.word	0x00400ff9

00401064 <write_image_to_web>:
void write_image_to_web(void)
{
	 // Writes an image from the SAM4S8B to the ESP32. If the length of the image is zero 
	 // (i.e. the image is not valid), return. Otherwise, follow this protocol
	 // (illustrated in Appendix C):
	if (image_size == 0)
  401064:	4b0a      	ldr	r3, [pc, #40]	; (401090 <write_image_to_web+0x2c>)
  401066:	681b      	ldr	r3, [r3, #0]
  401068:	b903      	cbnz	r3, 40106c <write_image_to_web+0x8>
  40106a:	4770      	bx	lr
{
  40106c:	b500      	push	{lr}
  40106e:	b09b      	sub	sp, #108	; 0x6c
	{
		return;
	}
	else
	{
		prepare_spi_transfer();
  401070:	4b08      	ldr	r3, [pc, #32]	; (401094 <write_image_to_web+0x30>)
  401072:	4798      	blx	r3
		char command_buffer[100];
		sprintf(command_buffer, "image_transfer %d", image_size+3);
  401074:	4b06      	ldr	r3, [pc, #24]	; (401090 <write_image_to_web+0x2c>)
  401076:	681a      	ldr	r2, [r3, #0]
  401078:	3203      	adds	r2, #3
  40107a:	4907      	ldr	r1, [pc, #28]	; (401098 <write_image_to_web+0x34>)
  40107c:	a801      	add	r0, sp, #4
  40107e:	4b07      	ldr	r3, [pc, #28]	; (40109c <write_image_to_web+0x38>)
  401080:	4798      	blx	r3
		write_wifi_command(command_buffer, 1);
  401082:	2101      	movs	r1, #1
  401084:	a801      	add	r0, sp, #4
  401086:	4b06      	ldr	r3, [pc, #24]	; (4010a0 <write_image_to_web+0x3c>)
  401088:	4798      	blx	r3
	}
  40108a:	b01b      	add	sp, #108	; 0x6c
  40108c:	f85d fb04 	ldr.w	pc, [sp], #4
  401090:	20000aa0 	.word	0x20000aa0
  401094:	00400ff9 	.word	0x00400ff9
  401098:	004075ac 	.word	0x004075ac
  40109c:	00401b39 	.word	0x00401b39
  4010a0:	00400e89 	.word	0x00400e89

004010a4 <sysclk_init>:
	pmc_disable_udpck();
}
#endif // CONFIG_USBCLK_SOURCE

void sysclk_init(void)
{
  4010a4:	b510      	push	{r4, lr}
	/* Set flash wait state to max in case the below clock switching. */
	system_init_flash(CHIP_FREQ_CPU_MAX);
  4010a6:	480e      	ldr	r0, [pc, #56]	; (4010e0 <sysclk_init+0x3c>)
  4010a8:	4b0e      	ldr	r3, [pc, #56]	; (4010e4 <sysclk_init+0x40>)
  4010aa:	4798      	blx	r3
		pmc_switch_mainck_to_fastrc(CKGR_MOR_MOSCRCF_12_MHz);
		break;


	case OSC_MAINCK_XTAL:
		pmc_switch_mainck_to_xtal(PMC_OSC_XTAL,
  4010ac:	213e      	movs	r1, #62	; 0x3e
  4010ae:	2000      	movs	r0, #0
  4010b0:	4b0d      	ldr	r3, [pc, #52]	; (4010e8 <sysclk_init+0x44>)
  4010b2:	4798      	blx	r3
	case OSC_MAINCK_4M_RC:
	case OSC_MAINCK_8M_RC:
	case OSC_MAINCK_12M_RC:
	case OSC_MAINCK_XTAL:
	case OSC_MAINCK_BYPASS:
		return pmc_osc_is_ready_mainck();
  4010b4:	4c0d      	ldr	r4, [pc, #52]	; (4010ec <sysclk_init+0x48>)
  4010b6:	47a0      	blx	r4
 *
 * \param id A number identifying the oscillator to wait for.
 */
static inline void osc_wait_ready(uint8_t id)
{
	while (!osc_is_ready(id)) {
  4010b8:	2800      	cmp	r0, #0
  4010ba:	d0fc      	beq.n	4010b6 <sysclk_init+0x12>
static inline void pll_enable(const struct pll_config *p_cfg, uint32_t ul_pll_id)
{
	Assert(ul_pll_id < NR_PLLS);

	if (ul_pll_id == PLLA_ID) {
		pmc_disable_pllack(); // Always stop PLL first!
  4010bc:	4b0c      	ldr	r3, [pc, #48]	; (4010f0 <sysclk_init+0x4c>)
  4010be:	4798      	blx	r3
		PMC->CKGR_PLLAR = CKGR_PLLAR_ONE | p_cfg->ctrl;
  4010c0:	4a0c      	ldr	r2, [pc, #48]	; (4010f4 <sysclk_init+0x50>)
  4010c2:	4b0d      	ldr	r3, [pc, #52]	; (4010f8 <sysclk_init+0x54>)
  4010c4:	629a      	str	r2, [r3, #40]	; 0x28
static inline uint32_t pll_is_locked(uint32_t ul_pll_id)
{
	Assert(ul_pll_id < NR_PLLS);

	if (ul_pll_id == PLLA_ID) {
		return pmc_is_locked_pllack();
  4010c6:	4c0d      	ldr	r4, [pc, #52]	; (4010fc <sysclk_init+0x58>)
  4010c8:	47a0      	blx	r4
 */
static inline int pll_wait_for_lock(unsigned int pll_id)
{
	Assert(pll_id < NR_PLLS);

	while (!pll_is_locked(pll_id)) {
  4010ca:	2800      	cmp	r0, #0
  4010cc:	d0fc      	beq.n	4010c8 <sysclk_init+0x24>

		pll_enable_source(CONFIG_PLL0_SOURCE);
		pll_config_defaults(&pllcfg, 0);
		pll_enable(&pllcfg, 0);
		pll_wait_for_lock(0);
		pmc_switch_mck_to_pllack(CONFIG_SYSCLK_PRES);
  4010ce:	2010      	movs	r0, #16
  4010d0:	4b0b      	ldr	r3, [pc, #44]	; (401100 <sysclk_init+0x5c>)
  4010d2:	4798      	blx	r3
		pmc_switch_mck_to_pllbck(CONFIG_SYSCLK_PRES);
	}
#endif

	/* Update the SystemFrequency variable */
	SystemCoreClockUpdate();
  4010d4:	4b0b      	ldr	r3, [pc, #44]	; (401104 <sysclk_init+0x60>)
  4010d6:	4798      	blx	r3

	/* Set a flash wait state depending on the new cpu frequency */
	system_init_flash(sysclk_get_cpu_hz());
  4010d8:	4801      	ldr	r0, [pc, #4]	; (4010e0 <sysclk_init+0x3c>)
  4010da:	4b02      	ldr	r3, [pc, #8]	; (4010e4 <sysclk_init+0x40>)
  4010dc:	4798      	blx	r3
  4010de:	bd10      	pop	{r4, pc}
  4010e0:	07270e00 	.word	0x07270e00
  4010e4:	004017b5 	.word	0x004017b5
  4010e8:	004013e5 	.word	0x004013e5
  4010ec:	00401439 	.word	0x00401439
  4010f0:	00401449 	.word	0x00401449
  4010f4:	20133f01 	.word	0x20133f01
  4010f8:	400e0400 	.word	0x400e0400
  4010fc:	00401459 	.word	0x00401459
  401100:	00401381 	.word	0x00401381
  401104:	004016a5 	.word	0x004016a5

00401108 <pio_set_peripheral>:
  401108:	6442      	str	r2, [r0, #68]	; 0x44
  40110a:	f1b1 5fc0 	cmp.w	r1, #402653184	; 0x18000000
  40110e:	d039      	beq.n	401184 <pio_set_peripheral+0x7c>
  401110:	d813      	bhi.n	40113a <pio_set_peripheral+0x32>
  401112:	f1b1 6f00 	cmp.w	r1, #134217728	; 0x8000000
  401116:	d025      	beq.n	401164 <pio_set_peripheral+0x5c>
  401118:	f1b1 5f80 	cmp.w	r1, #268435456	; 0x10000000
  40111c:	d10a      	bne.n	401134 <pio_set_peripheral+0x2c>
  40111e:	6f03      	ldr	r3, [r0, #112]	; 0x70
  401120:	4313      	orrs	r3, r2
  401122:	6703      	str	r3, [r0, #112]	; 0x70
  401124:	6f43      	ldr	r3, [r0, #116]	; 0x74
  401126:	6f41      	ldr	r1, [r0, #116]	; 0x74
  401128:	400b      	ands	r3, r1
  40112a:	ea23 0302 	bic.w	r3, r3, r2
  40112e:	6743      	str	r3, [r0, #116]	; 0x74
  401130:	6042      	str	r2, [r0, #4]
  401132:	4770      	bx	lr
  401134:	2900      	cmp	r1, #0
  401136:	d1fb      	bne.n	401130 <pio_set_peripheral+0x28>
  401138:	4770      	bx	lr
  40113a:	f1b1 5f20 	cmp.w	r1, #671088640	; 0x28000000
  40113e:	d020      	beq.n	401182 <pio_set_peripheral+0x7a>
  401140:	d809      	bhi.n	401156 <pio_set_peripheral+0x4e>
  401142:	f1b1 5f00 	cmp.w	r1, #536870912	; 0x20000000
  401146:	d1f3      	bne.n	401130 <pio_set_peripheral+0x28>
  401148:	6f03      	ldr	r3, [r0, #112]	; 0x70
  40114a:	4313      	orrs	r3, r2
  40114c:	6703      	str	r3, [r0, #112]	; 0x70
  40114e:	6f43      	ldr	r3, [r0, #116]	; 0x74
  401150:	4313      	orrs	r3, r2
  401152:	6743      	str	r3, [r0, #116]	; 0x74
  401154:	e7ec      	b.n	401130 <pio_set_peripheral+0x28>
  401156:	f1b1 5f40 	cmp.w	r1, #805306368	; 0x30000000
  40115a:	d012      	beq.n	401182 <pio_set_peripheral+0x7a>
  40115c:	f1b1 5f60 	cmp.w	r1, #939524096	; 0x38000000
  401160:	d00f      	beq.n	401182 <pio_set_peripheral+0x7a>
  401162:	e7e5      	b.n	401130 <pio_set_peripheral+0x28>
  401164:	b410      	push	{r4}
  401166:	6f01      	ldr	r1, [r0, #112]	; 0x70
  401168:	6f04      	ldr	r4, [r0, #112]	; 0x70
  40116a:	43d3      	mvns	r3, r2
  40116c:	4021      	ands	r1, r4
  40116e:	461c      	mov	r4, r3
  401170:	4019      	ands	r1, r3
  401172:	6701      	str	r1, [r0, #112]	; 0x70
  401174:	6f43      	ldr	r3, [r0, #116]	; 0x74
  401176:	6f41      	ldr	r1, [r0, #116]	; 0x74
  401178:	400b      	ands	r3, r1
  40117a:	4023      	ands	r3, r4
  40117c:	6743      	str	r3, [r0, #116]	; 0x74
  40117e:	6042      	str	r2, [r0, #4]
  401180:	bc10      	pop	{r4}
  401182:	4770      	bx	lr
  401184:	6f03      	ldr	r3, [r0, #112]	; 0x70
  401186:	6f01      	ldr	r1, [r0, #112]	; 0x70
  401188:	400b      	ands	r3, r1
  40118a:	ea23 0302 	bic.w	r3, r3, r2
  40118e:	6703      	str	r3, [r0, #112]	; 0x70
  401190:	6f43      	ldr	r3, [r0, #116]	; 0x74
  401192:	4313      	orrs	r3, r2
  401194:	6743      	str	r3, [r0, #116]	; 0x74
  401196:	e7cb      	b.n	401130 <pio_set_peripheral+0x28>

00401198 <pio_set_input>:
  401198:	6441      	str	r1, [r0, #68]	; 0x44
  40119a:	f012 0f01 	tst.w	r2, #1
  40119e:	bf14      	ite	ne
  4011a0:	6641      	strne	r1, [r0, #100]	; 0x64
  4011a2:	6601      	streq	r1, [r0, #96]	; 0x60
  4011a4:	f012 0f0a 	tst.w	r2, #10
  4011a8:	bf14      	ite	ne
  4011aa:	6201      	strne	r1, [r0, #32]
  4011ac:	6241      	streq	r1, [r0, #36]	; 0x24
  4011ae:	f012 0f02 	tst.w	r2, #2
  4011b2:	d107      	bne.n	4011c4 <pio_set_input+0x2c>
  4011b4:	f012 0f08 	tst.w	r2, #8
  4011b8:	bf18      	it	ne
  4011ba:	f8c0 1084 	strne.w	r1, [r0, #132]	; 0x84
  4011be:	6141      	str	r1, [r0, #20]
  4011c0:	6001      	str	r1, [r0, #0]
  4011c2:	4770      	bx	lr
  4011c4:	f8c0 1080 	str.w	r1, [r0, #128]	; 0x80
  4011c8:	e7f9      	b.n	4011be <pio_set_input+0x26>

004011ca <pio_set_output>:
  4011ca:	b410      	push	{r4}
  4011cc:	9c01      	ldr	r4, [sp, #4]
  4011ce:	6441      	str	r1, [r0, #68]	; 0x44
  4011d0:	b944      	cbnz	r4, 4011e4 <pio_set_output+0x1a>
  4011d2:	6601      	str	r1, [r0, #96]	; 0x60
  4011d4:	b143      	cbz	r3, 4011e8 <pio_set_output+0x1e>
  4011d6:	6501      	str	r1, [r0, #80]	; 0x50
  4011d8:	b942      	cbnz	r2, 4011ec <pio_set_output+0x22>
  4011da:	6341      	str	r1, [r0, #52]	; 0x34
  4011dc:	6101      	str	r1, [r0, #16]
  4011de:	6001      	str	r1, [r0, #0]
  4011e0:	bc10      	pop	{r4}
  4011e2:	4770      	bx	lr
  4011e4:	6641      	str	r1, [r0, #100]	; 0x64
  4011e6:	e7f5      	b.n	4011d4 <pio_set_output+0xa>
  4011e8:	6541      	str	r1, [r0, #84]	; 0x54
  4011ea:	e7f5      	b.n	4011d8 <pio_set_output+0xe>
  4011ec:	6301      	str	r1, [r0, #48]	; 0x30
  4011ee:	e7f5      	b.n	4011dc <pio_set_output+0x12>

004011f0 <pio_configure_interrupt>:
  4011f0:	f012 0f10 	tst.w	r2, #16
  4011f4:	d010      	beq.n	401218 <pio_configure_interrupt+0x28>
  4011f6:	f8c0 10b0 	str.w	r1, [r0, #176]	; 0xb0
  4011fa:	f012 0f20 	tst.w	r2, #32
  4011fe:	bf14      	ite	ne
  401200:	f8c0 10d4 	strne.w	r1, [r0, #212]	; 0xd4
  401204:	f8c0 10d0 	streq.w	r1, [r0, #208]	; 0xd0
  401208:	f012 0f40 	tst.w	r2, #64	; 0x40
  40120c:	bf14      	ite	ne
  40120e:	f8c0 10c0 	strne.w	r1, [r0, #192]	; 0xc0
  401212:	f8c0 10c4 	streq.w	r1, [r0, #196]	; 0xc4
  401216:	4770      	bx	lr
  401218:	f8c0 10b4 	str.w	r1, [r0, #180]	; 0xb4
  40121c:	4770      	bx	lr

0040121e <pio_enable_interrupt>:
  40121e:	6401      	str	r1, [r0, #64]	; 0x40
  401220:	4770      	bx	lr

00401222 <pio_disable_interrupt>:
  401222:	6441      	str	r1, [r0, #68]	; 0x44
  401224:	4770      	bx	lr

00401226 <pio_get_interrupt_status>:
  401226:	6cc0      	ldr	r0, [r0, #76]	; 0x4c
  401228:	4770      	bx	lr

0040122a <pio_get_interrupt_mask>:
  40122a:	6c80      	ldr	r0, [r0, #72]	; 0x48
  40122c:	4770      	bx	lr
	...

00401230 <pio_configure_pin>:
  401230:	b570      	push	{r4, r5, r6, lr}
  401232:	b082      	sub	sp, #8
  401234:	460d      	mov	r5, r1
  401236:	0943      	lsrs	r3, r0, #5
  401238:	f503 1300 	add.w	r3, r3, #2097152	; 0x200000
  40123c:	f203 7307 	addw	r3, r3, #1799	; 0x707
  401240:	025c      	lsls	r4, r3, #9
  401242:	f001 43f0 	and.w	r3, r1, #2013265920	; 0x78000000
  401246:	f1b3 5f00 	cmp.w	r3, #536870912	; 0x20000000
  40124a:	d053      	beq.n	4012f4 <pio_configure_pin+0xc4>
  40124c:	d80a      	bhi.n	401264 <pio_configure_pin+0x34>
  40124e:	f1b3 5f80 	cmp.w	r3, #268435456	; 0x10000000
  401252:	d02d      	beq.n	4012b0 <pio_configure_pin+0x80>
  401254:	f1b3 5fc0 	cmp.w	r3, #402653184	; 0x18000000
  401258:	d03b      	beq.n	4012d2 <pio_configure_pin+0xa2>
  40125a:	f1b3 6f00 	cmp.w	r3, #134217728	; 0x8000000
  40125e:	d015      	beq.n	40128c <pio_configure_pin+0x5c>
  401260:	2000      	movs	r0, #0
  401262:	e023      	b.n	4012ac <pio_configure_pin+0x7c>
  401264:	f1b3 5f40 	cmp.w	r3, #805306368	; 0x30000000
  401268:	d055      	beq.n	401316 <pio_configure_pin+0xe6>
  40126a:	f1b3 5f60 	cmp.w	r3, #939524096	; 0x38000000
  40126e:	d052      	beq.n	401316 <pio_configure_pin+0xe6>
  401270:	f1b3 5f20 	cmp.w	r3, #671088640	; 0x28000000
  401274:	d1f4      	bne.n	401260 <pio_configure_pin+0x30>
  401276:	f000 011f 	and.w	r1, r0, #31
  40127a:	2601      	movs	r6, #1
  40127c:	462a      	mov	r2, r5
  40127e:	fa06 f101 	lsl.w	r1, r6, r1
  401282:	4620      	mov	r0, r4
  401284:	4b2f      	ldr	r3, [pc, #188]	; (401344 <pio_configure_pin+0x114>)
  401286:	4798      	blx	r3
  401288:	4630      	mov	r0, r6
  40128a:	e00f      	b.n	4012ac <pio_configure_pin+0x7c>
  40128c:	f000 001f 	and.w	r0, r0, #31
  401290:	2601      	movs	r6, #1
  401292:	4086      	lsls	r6, r0
  401294:	4632      	mov	r2, r6
  401296:	f04f 6100 	mov.w	r1, #134217728	; 0x8000000
  40129a:	4620      	mov	r0, r4
  40129c:	4b2a      	ldr	r3, [pc, #168]	; (401348 <pio_configure_pin+0x118>)
  40129e:	4798      	blx	r3
  4012a0:	f015 0f01 	tst.w	r5, #1
  4012a4:	bf14      	ite	ne
  4012a6:	6666      	strne	r6, [r4, #100]	; 0x64
  4012a8:	6626      	streq	r6, [r4, #96]	; 0x60
  4012aa:	2001      	movs	r0, #1
  4012ac:	b002      	add	sp, #8
  4012ae:	bd70      	pop	{r4, r5, r6, pc}
  4012b0:	f000 001f 	and.w	r0, r0, #31
  4012b4:	2601      	movs	r6, #1
  4012b6:	4086      	lsls	r6, r0
  4012b8:	4632      	mov	r2, r6
  4012ba:	f04f 5180 	mov.w	r1, #268435456	; 0x10000000
  4012be:	4620      	mov	r0, r4
  4012c0:	4b21      	ldr	r3, [pc, #132]	; (401348 <pio_configure_pin+0x118>)
  4012c2:	4798      	blx	r3
  4012c4:	f015 0f01 	tst.w	r5, #1
  4012c8:	bf14      	ite	ne
  4012ca:	6666      	strne	r6, [r4, #100]	; 0x64
  4012cc:	6626      	streq	r6, [r4, #96]	; 0x60
  4012ce:	2001      	movs	r0, #1
  4012d0:	e7ec      	b.n	4012ac <pio_configure_pin+0x7c>
  4012d2:	f000 001f 	and.w	r0, r0, #31
  4012d6:	2601      	movs	r6, #1
  4012d8:	4086      	lsls	r6, r0
  4012da:	4632      	mov	r2, r6
  4012dc:	f04f 51c0 	mov.w	r1, #402653184	; 0x18000000
  4012e0:	4620      	mov	r0, r4
  4012e2:	4b19      	ldr	r3, [pc, #100]	; (401348 <pio_configure_pin+0x118>)
  4012e4:	4798      	blx	r3
  4012e6:	f015 0f01 	tst.w	r5, #1
  4012ea:	bf14      	ite	ne
  4012ec:	6666      	strne	r6, [r4, #100]	; 0x64
  4012ee:	6626      	streq	r6, [r4, #96]	; 0x60
  4012f0:	2001      	movs	r0, #1
  4012f2:	e7db      	b.n	4012ac <pio_configure_pin+0x7c>
  4012f4:	f000 001f 	and.w	r0, r0, #31
  4012f8:	2601      	movs	r6, #1
  4012fa:	4086      	lsls	r6, r0
  4012fc:	4632      	mov	r2, r6
  4012fe:	f04f 5100 	mov.w	r1, #536870912	; 0x20000000
  401302:	4620      	mov	r0, r4
  401304:	4b10      	ldr	r3, [pc, #64]	; (401348 <pio_configure_pin+0x118>)
  401306:	4798      	blx	r3
  401308:	f015 0f01 	tst.w	r5, #1
  40130c:	bf14      	ite	ne
  40130e:	6666      	strne	r6, [r4, #100]	; 0x64
  401310:	6626      	streq	r6, [r4, #96]	; 0x60
  401312:	2001      	movs	r0, #1
  401314:	e7ca      	b.n	4012ac <pio_configure_pin+0x7c>
  401316:	f005 5260 	and.w	r2, r5, #939524096	; 0x38000000
  40131a:	f000 011f 	and.w	r1, r0, #31
  40131e:	2601      	movs	r6, #1
  401320:	ea05 0306 	and.w	r3, r5, r6
  401324:	9300      	str	r3, [sp, #0]
  401326:	f3c5 0380 	ubfx	r3, r5, #2, #1
  40132a:	f1b2 5f60 	cmp.w	r2, #939524096	; 0x38000000
  40132e:	bf14      	ite	ne
  401330:	2200      	movne	r2, #0
  401332:	2201      	moveq	r2, #1
  401334:	fa06 f101 	lsl.w	r1, r6, r1
  401338:	4620      	mov	r0, r4
  40133a:	4c04      	ldr	r4, [pc, #16]	; (40134c <pio_configure_pin+0x11c>)
  40133c:	47a0      	blx	r4
  40133e:	4630      	mov	r0, r6
  401340:	e7b4      	b.n	4012ac <pio_configure_pin+0x7c>
  401342:	bf00      	nop
  401344:	00401199 	.word	0x00401199
  401348:	00401109 	.word	0x00401109
  40134c:	004011cb 	.word	0x004011cb

00401350 <pio_capture_enable>:
  401350:	f8d0 3150 	ldr.w	r3, [r0, #336]	; 0x150
  401354:	f043 0301 	orr.w	r3, r3, #1
  401358:	f8c0 3150 	str.w	r3, [r0, #336]	; 0x150
  40135c:	2201      	movs	r2, #1
  40135e:	4b01      	ldr	r3, [pc, #4]	; (401364 <pio_capture_enable+0x14>)
  401360:	601a      	str	r2, [r3, #0]
  401362:	4770      	bx	lr
  401364:	20019564 	.word	0x20019564

00401368 <pio_capture_disable>:
  401368:	f8d0 3150 	ldr.w	r3, [r0, #336]	; 0x150
  40136c:	f023 0301 	bic.w	r3, r3, #1
  401370:	f8c0 3150 	str.w	r3, [r0, #336]	; 0x150
  401374:	2200      	movs	r2, #0
  401376:	4b01      	ldr	r3, [pc, #4]	; (40137c <pio_capture_disable+0x14>)
  401378:	601a      	str	r2, [r3, #0]
  40137a:	4770      	bx	lr
  40137c:	20019564 	.word	0x20019564

00401380 <pmc_switch_mck_to_pllack>:
  401380:	4a17      	ldr	r2, [pc, #92]	; (4013e0 <pmc_switch_mck_to_pllack+0x60>)
  401382:	6b13      	ldr	r3, [r2, #48]	; 0x30
  401384:	f023 0370 	bic.w	r3, r3, #112	; 0x70
  401388:	4318      	orrs	r0, r3
  40138a:	6310      	str	r0, [r2, #48]	; 0x30
  40138c:	6e93      	ldr	r3, [r2, #104]	; 0x68
  40138e:	f013 0f08 	tst.w	r3, #8
  401392:	d10a      	bne.n	4013aa <pmc_switch_mck_to_pllack+0x2a>
  401394:	f44f 6300 	mov.w	r3, #2048	; 0x800
  401398:	4911      	ldr	r1, [pc, #68]	; (4013e0 <pmc_switch_mck_to_pllack+0x60>)
  40139a:	6e8a      	ldr	r2, [r1, #104]	; 0x68
  40139c:	f012 0f08 	tst.w	r2, #8
  4013a0:	d103      	bne.n	4013aa <pmc_switch_mck_to_pllack+0x2a>
  4013a2:	3b01      	subs	r3, #1
  4013a4:	d1f9      	bne.n	40139a <pmc_switch_mck_to_pllack+0x1a>
  4013a6:	2001      	movs	r0, #1
  4013a8:	4770      	bx	lr
  4013aa:	4a0d      	ldr	r2, [pc, #52]	; (4013e0 <pmc_switch_mck_to_pllack+0x60>)
  4013ac:	6b13      	ldr	r3, [r2, #48]	; 0x30
  4013ae:	f023 0303 	bic.w	r3, r3, #3
  4013b2:	f043 0302 	orr.w	r3, r3, #2
  4013b6:	6313      	str	r3, [r2, #48]	; 0x30
  4013b8:	6e93      	ldr	r3, [r2, #104]	; 0x68
  4013ba:	f013 0f08 	tst.w	r3, #8
  4013be:	d10a      	bne.n	4013d6 <pmc_switch_mck_to_pllack+0x56>
  4013c0:	f44f 6300 	mov.w	r3, #2048	; 0x800
  4013c4:	4906      	ldr	r1, [pc, #24]	; (4013e0 <pmc_switch_mck_to_pllack+0x60>)
  4013c6:	6e8a      	ldr	r2, [r1, #104]	; 0x68
  4013c8:	f012 0f08 	tst.w	r2, #8
  4013cc:	d105      	bne.n	4013da <pmc_switch_mck_to_pllack+0x5a>
  4013ce:	3b01      	subs	r3, #1
  4013d0:	d1f9      	bne.n	4013c6 <pmc_switch_mck_to_pllack+0x46>
  4013d2:	2001      	movs	r0, #1
  4013d4:	4770      	bx	lr
  4013d6:	2000      	movs	r0, #0
  4013d8:	4770      	bx	lr
  4013da:	2000      	movs	r0, #0
  4013dc:	4770      	bx	lr
  4013de:	bf00      	nop
  4013e0:	400e0400 	.word	0x400e0400

004013e4 <pmc_switch_mainck_to_xtal>:
  4013e4:	b9c8      	cbnz	r0, 40141a <pmc_switch_mainck_to_xtal+0x36>
  4013e6:	4a11      	ldr	r2, [pc, #68]	; (40142c <pmc_switch_mainck_to_xtal+0x48>)
  4013e8:	6a13      	ldr	r3, [r2, #32]
  4013ea:	0209      	lsls	r1, r1, #8
  4013ec:	b289      	uxth	r1, r1
  4013ee:	f423 135c 	bic.w	r3, r3, #3604480	; 0x370000
  4013f2:	f023 0303 	bic.w	r3, r3, #3
  4013f6:	f443 135c 	orr.w	r3, r3, #3604480	; 0x370000
  4013fa:	f043 0301 	orr.w	r3, r3, #1
  4013fe:	430b      	orrs	r3, r1
  401400:	6213      	str	r3, [r2, #32]
  401402:	6e93      	ldr	r3, [r2, #104]	; 0x68
  401404:	f013 0f01 	tst.w	r3, #1
  401408:	d0fb      	beq.n	401402 <pmc_switch_mainck_to_xtal+0x1e>
  40140a:	4a08      	ldr	r2, [pc, #32]	; (40142c <pmc_switch_mainck_to_xtal+0x48>)
  40140c:	6a13      	ldr	r3, [r2, #32]
  40140e:	f043 739b 	orr.w	r3, r3, #20316160	; 0x1360000
  401412:	f443 3380 	orr.w	r3, r3, #65536	; 0x10000
  401416:	6213      	str	r3, [r2, #32]
  401418:	4770      	bx	lr
  40141a:	4904      	ldr	r1, [pc, #16]	; (40142c <pmc_switch_mainck_to_xtal+0x48>)
  40141c:	6a0b      	ldr	r3, [r1, #32]
  40141e:	4a04      	ldr	r2, [pc, #16]	; (401430 <pmc_switch_mainck_to_xtal+0x4c>)
  401420:	401a      	ands	r2, r3
  401422:	4b04      	ldr	r3, [pc, #16]	; (401434 <pmc_switch_mainck_to_xtal+0x50>)
  401424:	4313      	orrs	r3, r2
  401426:	620b      	str	r3, [r1, #32]
  401428:	4770      	bx	lr
  40142a:	bf00      	nop
  40142c:	400e0400 	.word	0x400e0400
  401430:	fec8fffc 	.word	0xfec8fffc
  401434:	01370002 	.word	0x01370002

00401438 <pmc_osc_is_ready_mainck>:
  401438:	4b02      	ldr	r3, [pc, #8]	; (401444 <pmc_osc_is_ready_mainck+0xc>)
  40143a:	6e98      	ldr	r0, [r3, #104]	; 0x68
  40143c:	f400 3080 	and.w	r0, r0, #65536	; 0x10000
  401440:	4770      	bx	lr
  401442:	bf00      	nop
  401444:	400e0400 	.word	0x400e0400

00401448 <pmc_disable_pllack>:
  401448:	f04f 5200 	mov.w	r2, #536870912	; 0x20000000
  40144c:	4b01      	ldr	r3, [pc, #4]	; (401454 <pmc_disable_pllack+0xc>)
  40144e:	629a      	str	r2, [r3, #40]	; 0x28
  401450:	4770      	bx	lr
  401452:	bf00      	nop
  401454:	400e0400 	.word	0x400e0400

00401458 <pmc_is_locked_pllack>:
  401458:	4b02      	ldr	r3, [pc, #8]	; (401464 <pmc_is_locked_pllack+0xc>)
  40145a:	6e98      	ldr	r0, [r3, #104]	; 0x68
  40145c:	f000 0002 	and.w	r0, r0, #2
  401460:	4770      	bx	lr
  401462:	bf00      	nop
  401464:	400e0400 	.word	0x400e0400

00401468 <pmc_enable_pllbck>:
  401468:	b410      	push	{r4}
  40146a:	4c0a      	ldr	r4, [pc, #40]	; (401494 <pmc_enable_pllbck+0x2c>)
  40146c:	2300      	movs	r3, #0
  40146e:	62e3      	str	r3, [r4, #44]	; 0x2c
  401470:	0209      	lsls	r1, r1, #8
  401472:	f401 517c 	and.w	r1, r1, #16128	; 0x3f00
  401476:	b2d2      	uxtb	r2, r2
  401478:	4311      	orrs	r1, r2
  40147a:	4b07      	ldr	r3, [pc, #28]	; (401498 <pmc_enable_pllbck+0x30>)
  40147c:	ea03 4000 	and.w	r0, r3, r0, lsl #16
  401480:	4301      	orrs	r1, r0
  401482:	62e1      	str	r1, [r4, #44]	; 0x2c
  401484:	4622      	mov	r2, r4
  401486:	6e93      	ldr	r3, [r2, #104]	; 0x68
  401488:	f013 0f04 	tst.w	r3, #4
  40148c:	d0fb      	beq.n	401486 <pmc_enable_pllbck+0x1e>
  40148e:	bc10      	pop	{r4}
  401490:	4770      	bx	lr
  401492:	bf00      	nop
  401494:	400e0400 	.word	0x400e0400
  401498:	07ff0000 	.word	0x07ff0000

0040149c <pmc_enable_periph_clk>:
  40149c:	2822      	cmp	r0, #34	; 0x22
  40149e:	d81e      	bhi.n	4014de <pmc_enable_periph_clk+0x42>
  4014a0:	281f      	cmp	r0, #31
  4014a2:	d80c      	bhi.n	4014be <pmc_enable_periph_clk+0x22>
  4014a4:	4b11      	ldr	r3, [pc, #68]	; (4014ec <pmc_enable_periph_clk+0x50>)
  4014a6:	699a      	ldr	r2, [r3, #24]
  4014a8:	2301      	movs	r3, #1
  4014aa:	4083      	lsls	r3, r0
  4014ac:	4393      	bics	r3, r2
  4014ae:	d018      	beq.n	4014e2 <pmc_enable_periph_clk+0x46>
  4014b0:	2301      	movs	r3, #1
  4014b2:	fa03 f000 	lsl.w	r0, r3, r0
  4014b6:	4b0d      	ldr	r3, [pc, #52]	; (4014ec <pmc_enable_periph_clk+0x50>)
  4014b8:	6118      	str	r0, [r3, #16]
  4014ba:	2000      	movs	r0, #0
  4014bc:	4770      	bx	lr
  4014be:	3820      	subs	r0, #32
  4014c0:	4b0a      	ldr	r3, [pc, #40]	; (4014ec <pmc_enable_periph_clk+0x50>)
  4014c2:	f8d3 2108 	ldr.w	r2, [r3, #264]	; 0x108
  4014c6:	2301      	movs	r3, #1
  4014c8:	4083      	lsls	r3, r0
  4014ca:	4393      	bics	r3, r2
  4014cc:	d00b      	beq.n	4014e6 <pmc_enable_periph_clk+0x4a>
  4014ce:	2301      	movs	r3, #1
  4014d0:	fa03 f000 	lsl.w	r0, r3, r0
  4014d4:	4b05      	ldr	r3, [pc, #20]	; (4014ec <pmc_enable_periph_clk+0x50>)
  4014d6:	f8c3 0100 	str.w	r0, [r3, #256]	; 0x100
  4014da:	2000      	movs	r0, #0
  4014dc:	4770      	bx	lr
  4014de:	2001      	movs	r0, #1
  4014e0:	4770      	bx	lr
  4014e2:	2000      	movs	r0, #0
  4014e4:	4770      	bx	lr
  4014e6:	2000      	movs	r0, #0
  4014e8:	4770      	bx	lr
  4014ea:	bf00      	nop
  4014ec:	400e0400 	.word	0x400e0400

004014f0 <board_init>:
#include <asf.h>
#include <board.h>
#include <conf_board.h>

void board_init(void)
{
  4014f0:	b538      	push	{r3, r4, r5, lr}
	/* This function is meant to contain board-specific initialization code
	 * for, e.g., the I/O pins. The initialization can rely on application-
	 * specific board configuration, found in conf_board.h.
	 */
	// TWI Pin config
	gpio_configure_pin(TWI0_DATA_GPIO, TWI0_DATA_FLAGS);
  4014f2:	f04f 6100 	mov.w	r1, #134217728	; 0x8000000
  4014f6:	2003      	movs	r0, #3
  4014f8:	4c3a      	ldr	r4, [pc, #232]	; (4015e4 <board_init+0xf4>)
  4014fa:	47a0      	blx	r4
	gpio_configure_pin(TWI0_CLK_GPIO, TWI0_CLK_FLAGS);
  4014fc:	f04f 6100 	mov.w	r1, #134217728	; 0x8000000
  401500:	2004      	movs	r0, #4
  401502:	47a0      	blx	r4
		
	// Data Bus and Camera Utility Pin config
	gpio_configure_pin(OV_RST_GPIO, OV_RST_TYPE);
  401504:	f04f 5160 	mov.w	r1, #939524096	; 0x38000000
  401508:	2014      	movs	r0, #20
  40150a:	47a0      	blx	r4
	gpio_configure_pin(OV_HREF_GPIO, OV_HREF_FLAGS);
  40150c:	2171      	movs	r1, #113	; 0x71
  40150e:	2010      	movs	r0, #16
  401510:	47a0      	blx	r4
	gpio_configure_pin(OV_VSYNC_GPIO, OV_VSYNC_FLAGS);
  401512:	2171      	movs	r1, #113	; 0x71
  401514:	200f      	movs	r0, #15
  401516:	47a0      	blx	r4
	gpio_configure_pin(OV_DATA_BUS_D0, OV_DATA_BUS_FLAGS);
  401518:	4d33      	ldr	r5, [pc, #204]	; (4015e8 <board_init+0xf8>)
  40151a:	4629      	mov	r1, r5
  40151c:	2018      	movs	r0, #24
  40151e:	47a0      	blx	r4
	gpio_configure_pin(OV_DATA_BUS_D1, OV_DATA_BUS_FLAGS);
  401520:	4629      	mov	r1, r5
  401522:	2019      	movs	r0, #25
  401524:	47a0      	blx	r4
	gpio_configure_pin(OV_DATA_BUS_D2, OV_DATA_BUS_FLAGS);
  401526:	4629      	mov	r1, r5
  401528:	201a      	movs	r0, #26
  40152a:	47a0      	blx	r4
	gpio_configure_pin(OV_DATA_BUS_D3, OV_DATA_BUS_FLAGS);
  40152c:	4629      	mov	r1, r5
  40152e:	201b      	movs	r0, #27
  401530:	47a0      	blx	r4
	gpio_configure_pin(OV_DATA_BUS_D4, OV_DATA_BUS_FLAGS);
  401532:	4629      	mov	r1, r5
  401534:	201c      	movs	r0, #28
  401536:	47a0      	blx	r4
	gpio_configure_pin(OV_DATA_BUS_D5, OV_DATA_BUS_FLAGS);
  401538:	4629      	mov	r1, r5
  40153a:	201d      	movs	r0, #29
  40153c:	47a0      	blx	r4
	gpio_configure_pin(OV_DATA_BUS_D6, OV_DATA_BUS_FLAGS);
  40153e:	4629      	mov	r1, r5
  401540:	201e      	movs	r0, #30
  401542:	47a0      	blx	r4
	gpio_configure_pin(OV_DATA_BUS_D7, OV_DATA_BUS_FLAGS);
  401544:	4629      	mov	r1, r5
  401546:	201f      	movs	r0, #31
  401548:	47a0      	blx	r4
		
	// XCLK
	gpio_configure_pin(PIN_PCK1, PIN_PCK1_FLAGS);
  40154a:	f04f 5180 	mov.w	r1, #268435456	; 0x10000000
  40154e:	2011      	movs	r0, #17
  401550:	47a0      	blx	r4
		
	// SPI
	gpio_configure_pin(SPI_MISO_GPIO, SPI_MISO_FLAGS);
  401552:	f04f 6100 	mov.w	r1, #134217728	; 0x8000000
  401556:	200c      	movs	r0, #12
  401558:	47a0      	blx	r4
	gpio_configure_pin(SPI_MOSI_GPIO, SPI_MOSI_FLAGS);
  40155a:	f04f 6100 	mov.w	r1, #134217728	; 0x8000000
  40155e:	200d      	movs	r0, #13
  401560:	47a0      	blx	r4
	gpio_configure_pin(SPI_SPCK_GPIO, SPI_SPCK_FLAGS);
  401562:	f04f 6100 	mov.w	r1, #134217728	; 0x8000000
  401566:	200e      	movs	r0, #14
  401568:	47a0      	blx	r4
	gpio_configure_pin(SPI_NPCS0_GPIO, SPI_NPCS0_FLAGS);
  40156a:	f04f 6100 	mov.w	r1, #134217728	; 0x8000000
  40156e:	200b      	movs	r0, #11
  401570:	47a0      	blx	r4
		
	// USART
	gpio_configure_pin(PIN_USART0_TXD_IDX, PIN_USART0_TXD_FLAGS);
  401572:	f105 4560 	add.w	r5, r5, #3758096384	; 0xe0000000
  401576:	4629      	mov	r1, r5
  401578:	2006      	movs	r0, #6
  40157a:	47a0      	blx	r4
	gpio_configure_pin(PIN_USART0_RXD_IDX, PIN_USART0_RXD_FLAGS);
  40157c:	4629      	mov	r1, r5
  40157e:	2005      	movs	r0, #5
  401580:	47a0      	blx	r4
	Pio *base = arch_ioport_pin_to_base(pin);

	if (dir == IOPORT_DIR_OUTPUT) {
		base->PIO_OER = arch_ioport_pin_to_mask(pin);
	} else if (dir == IOPORT_DIR_INPUT) {
		base->PIO_ODR = arch_ioport_pin_to_mask(pin);
  401582:	4a1a      	ldr	r2, [pc, #104]	; (4015ec <board_init+0xfc>)
  401584:	f44f 6380 	mov.w	r3, #1024	; 0x400
  401588:	6153      	str	r3, [r2, #20]
	}

	base->PIO_OWER = arch_ioport_pin_to_mask(pin);
  40158a:	f8c2 30a0 	str.w	r3, [r2, #160]	; 0xa0
		base->PIO_ODR = arch_ioport_pin_to_mask(pin);
  40158e:	4b18      	ldr	r3, [pc, #96]	; (4015f0 <board_init+0x100>)
  401590:	2108      	movs	r1, #8
  401592:	6159      	str	r1, [r3, #20]
	base->PIO_OWER = arch_ioport_pin_to_mask(pin);
  401594:	f8c3 10a0 	str.w	r1, [r3, #160]	; 0xa0
		base->PIO_PUER = mask;
  401598:	f44f 2100 	mov.w	r1, #524288	; 0x80000
  40159c:	6651      	str	r1, [r2, #100]	; 0x64
		base->PIO_PPDDR = mask;
  40159e:	f8c2 1090 	str.w	r1, [r2, #144]	; 0x90
		base->PIO_MDDR = mask;
  4015a2:	6551      	str	r1, [r2, #84]	; 0x54
		base->PIO_IFDR = mask;
  4015a4:	6251      	str	r1, [r2, #36]	; 0x24
		base->PIO_IFSCDR = mask;
  4015a6:	f8c2 1080 	str.w	r1, [r2, #128]	; 0x80
		base->PIO_ABCDSR[0] &= ~mask;
  4015aa:	6f11      	ldr	r1, [r2, #112]	; 0x70
  4015ac:	f421 2100 	bic.w	r1, r1, #524288	; 0x80000
  4015b0:	6711      	str	r1, [r2, #112]	; 0x70
		base->PIO_ABCDSR[1] &= ~mask;
  4015b2:	6f51      	ldr	r1, [r2, #116]	; 0x74
  4015b4:	f421 2100 	bic.w	r1, r1, #524288	; 0x80000
  4015b8:	6751      	str	r1, [r2, #116]	; 0x74
		base->PIO_OER = arch_ioport_pin_to_mask(pin);
  4015ba:	2201      	movs	r2, #1
  4015bc:	611a      	str	r2, [r3, #16]
	base->PIO_OWER = arch_ioport_pin_to_mask(pin);
  4015be:	f8c3 20a0 	str.w	r2, [r3, #160]	; 0xa0
		base->PIO_PUER = mask;
  4015c2:	665a      	str	r2, [r3, #100]	; 0x64
		base->PIO_PPDDR = mask;
  4015c4:	f8c3 2090 	str.w	r2, [r3, #144]	; 0x90
		base->PIO_MDDR = mask;
  4015c8:	655a      	str	r2, [r3, #84]	; 0x54
		base->PIO_IFDR = mask;
  4015ca:	625a      	str	r2, [r3, #36]	; 0x24
		base->PIO_IFSCDR = mask;
  4015cc:	f8c3 2080 	str.w	r2, [r3, #128]	; 0x80
		base->PIO_ABCDSR[0] &= ~mask;
  4015d0:	6f1a      	ldr	r2, [r3, #112]	; 0x70
  4015d2:	f022 0201 	bic.w	r2, r2, #1
  4015d6:	671a      	str	r2, [r3, #112]	; 0x70
		base->PIO_ABCDSR[1] &= ~mask;
  4015d8:	6f5a      	ldr	r2, [r3, #116]	; 0x74
  4015da:	f022 0201 	bic.w	r2, r2, #1
  4015de:	675a      	str	r2, [r3, #116]	; 0x74
  4015e0:	bd38      	pop	{r3, r4, r5, pc}
  4015e2:	bf00      	nop
  4015e4:	00401231 	.word	0x00401231
  4015e8:	28000001 	.word	0x28000001
  4015ec:	400e0e00 	.word	0x400e0e00
  4015f0:	400e1000 	.word	0x400e1000

004015f4 <Dummy_Handler>:
  4015f4:	e7fe      	b.n	4015f4 <Dummy_Handler>
	...

004015f8 <Reset_Handler>:
  4015f8:	b508      	push	{r3, lr}
  4015fa:	4b21      	ldr	r3, [pc, #132]	; (401680 <Reset_Handler+0x88>)
  4015fc:	4a21      	ldr	r2, [pc, #132]	; (401684 <Reset_Handler+0x8c>)
  4015fe:	429a      	cmp	r2, r3
  401600:	d928      	bls.n	401654 <Reset_Handler+0x5c>
  401602:	4b21      	ldr	r3, [pc, #132]	; (401688 <Reset_Handler+0x90>)
  401604:	4a1e      	ldr	r2, [pc, #120]	; (401680 <Reset_Handler+0x88>)
  401606:	429a      	cmp	r2, r3
  401608:	d20c      	bcs.n	401624 <Reset_Handler+0x2c>
  40160a:	3b01      	subs	r3, #1
  40160c:	1a9b      	subs	r3, r3, r2
  40160e:	f023 0303 	bic.w	r3, r3, #3
  401612:	3304      	adds	r3, #4
  401614:	4413      	add	r3, r2
  401616:	491b      	ldr	r1, [pc, #108]	; (401684 <Reset_Handler+0x8c>)
  401618:	f851 0b04 	ldr.w	r0, [r1], #4
  40161c:	f842 0b04 	str.w	r0, [r2], #4
  401620:	429a      	cmp	r2, r3
  401622:	d1f9      	bne.n	401618 <Reset_Handler+0x20>
  401624:	bf00      	nop
  401626:	4b19      	ldr	r3, [pc, #100]	; (40168c <Reset_Handler+0x94>)
  401628:	4a19      	ldr	r2, [pc, #100]	; (401690 <Reset_Handler+0x98>)
  40162a:	429a      	cmp	r2, r3
  40162c:	d20a      	bcs.n	401644 <Reset_Handler+0x4c>
  40162e:	3b01      	subs	r3, #1
  401630:	1a9b      	subs	r3, r3, r2
  401632:	f023 0303 	bic.w	r3, r3, #3
  401636:	3304      	adds	r3, #4
  401638:	4413      	add	r3, r2
  40163a:	2100      	movs	r1, #0
  40163c:	f842 1b04 	str.w	r1, [r2], #4
  401640:	429a      	cmp	r2, r3
  401642:	d1fb      	bne.n	40163c <Reset_Handler+0x44>
  401644:	4b13      	ldr	r3, [pc, #76]	; (401694 <Reset_Handler+0x9c>)
  401646:	4a14      	ldr	r2, [pc, #80]	; (401698 <Reset_Handler+0xa0>)
  401648:	609a      	str	r2, [r3, #8]
  40164a:	4b14      	ldr	r3, [pc, #80]	; (40169c <Reset_Handler+0xa4>)
  40164c:	4798      	blx	r3
  40164e:	4b14      	ldr	r3, [pc, #80]	; (4016a0 <Reset_Handler+0xa8>)
  401650:	4798      	blx	r3
  401652:	e7fe      	b.n	401652 <Reset_Handler+0x5a>
  401654:	4b0a      	ldr	r3, [pc, #40]	; (401680 <Reset_Handler+0x88>)
  401656:	4a0b      	ldr	r2, [pc, #44]	; (401684 <Reset_Handler+0x8c>)
  401658:	429a      	cmp	r2, r3
  40165a:	d2e3      	bcs.n	401624 <Reset_Handler+0x2c>
  40165c:	4b0a      	ldr	r3, [pc, #40]	; (401688 <Reset_Handler+0x90>)
  40165e:	4808      	ldr	r0, [pc, #32]	; (401680 <Reset_Handler+0x88>)
  401660:	1a18      	subs	r0, r3, r0
  401662:	4611      	mov	r1, r2
  401664:	3a04      	subs	r2, #4
  401666:	4402      	add	r2, r0
  401668:	2800      	cmp	r0, #0
  40166a:	d0db      	beq.n	401624 <Reset_Handler+0x2c>
  40166c:	f1c1 0104 	rsb	r1, r1, #4
  401670:	f852 0904 	ldr.w	r0, [r2], #-4
  401674:	f843 0d04 	str.w	r0, [r3, #-4]!
  401678:	42ca      	cmn	r2, r1
  40167a:	d1f9      	bne.n	401670 <Reset_Handler+0x78>
  40167c:	e7d2      	b.n	401624 <Reset_Handler+0x2c>
  40167e:	bf00      	nop
  401680:	20000000 	.word	0x20000000
  401684:	0040791c 	.word	0x0040791c
  401688:	200009c0 	.word	0x200009c0
  40168c:	20019720 	.word	0x20019720
  401690:	200009c0 	.word	0x200009c0
  401694:	e000ed00 	.word	0xe000ed00
  401698:	00400000 	.word	0x00400000
  40169c:	00401a4d 	.word	0x00401a4d
  4016a0:	00401861 	.word	0x00401861

004016a4 <SystemCoreClockUpdate>:
  4016a4:	4b3c      	ldr	r3, [pc, #240]	; (401798 <SystemCoreClockUpdate+0xf4>)
  4016a6:	6b1b      	ldr	r3, [r3, #48]	; 0x30
  4016a8:	f003 0303 	and.w	r3, r3, #3
  4016ac:	2b03      	cmp	r3, #3
  4016ae:	d80e      	bhi.n	4016ce <SystemCoreClockUpdate+0x2a>
  4016b0:	e8df f003 	tbb	[pc, r3]
  4016b4:	38381c02 	.word	0x38381c02
  4016b8:	4b38      	ldr	r3, [pc, #224]	; (40179c <SystemCoreClockUpdate+0xf8>)
  4016ba:	695b      	ldr	r3, [r3, #20]
  4016bc:	f013 0f80 	tst.w	r3, #128	; 0x80
  4016c0:	bf14      	ite	ne
  4016c2:	f44f 4200 	movne.w	r2, #32768	; 0x8000
  4016c6:	f44f 42fa 	moveq.w	r2, #32000	; 0x7d00
  4016ca:	4b35      	ldr	r3, [pc, #212]	; (4017a0 <SystemCoreClockUpdate+0xfc>)
  4016cc:	601a      	str	r2, [r3, #0]
  4016ce:	4b32      	ldr	r3, [pc, #200]	; (401798 <SystemCoreClockUpdate+0xf4>)
  4016d0:	6b1b      	ldr	r3, [r3, #48]	; 0x30
  4016d2:	f003 0370 	and.w	r3, r3, #112	; 0x70
  4016d6:	2b70      	cmp	r3, #112	; 0x70
  4016d8:	d055      	beq.n	401786 <SystemCoreClockUpdate+0xe2>
  4016da:	4b2f      	ldr	r3, [pc, #188]	; (401798 <SystemCoreClockUpdate+0xf4>)
  4016dc:	6b1a      	ldr	r2, [r3, #48]	; 0x30
  4016de:	4930      	ldr	r1, [pc, #192]	; (4017a0 <SystemCoreClockUpdate+0xfc>)
  4016e0:	f3c2 1202 	ubfx	r2, r2, #4, #3
  4016e4:	680b      	ldr	r3, [r1, #0]
  4016e6:	40d3      	lsrs	r3, r2
  4016e8:	600b      	str	r3, [r1, #0]
  4016ea:	4770      	bx	lr
  4016ec:	4b2a      	ldr	r3, [pc, #168]	; (401798 <SystemCoreClockUpdate+0xf4>)
  4016ee:	6a1b      	ldr	r3, [r3, #32]
  4016f0:	f013 7f80 	tst.w	r3, #16777216	; 0x1000000
  4016f4:	d003      	beq.n	4016fe <SystemCoreClockUpdate+0x5a>
  4016f6:	4a2b      	ldr	r2, [pc, #172]	; (4017a4 <SystemCoreClockUpdate+0x100>)
  4016f8:	4b29      	ldr	r3, [pc, #164]	; (4017a0 <SystemCoreClockUpdate+0xfc>)
  4016fa:	601a      	str	r2, [r3, #0]
  4016fc:	e7e7      	b.n	4016ce <SystemCoreClockUpdate+0x2a>
  4016fe:	4a2a      	ldr	r2, [pc, #168]	; (4017a8 <SystemCoreClockUpdate+0x104>)
  401700:	4b27      	ldr	r3, [pc, #156]	; (4017a0 <SystemCoreClockUpdate+0xfc>)
  401702:	601a      	str	r2, [r3, #0]
  401704:	4b24      	ldr	r3, [pc, #144]	; (401798 <SystemCoreClockUpdate+0xf4>)
  401706:	6a1b      	ldr	r3, [r3, #32]
  401708:	f003 0370 	and.w	r3, r3, #112	; 0x70
  40170c:	2b10      	cmp	r3, #16
  40170e:	d005      	beq.n	40171c <SystemCoreClockUpdate+0x78>
  401710:	2b20      	cmp	r3, #32
  401712:	d1dc      	bne.n	4016ce <SystemCoreClockUpdate+0x2a>
  401714:	4a23      	ldr	r2, [pc, #140]	; (4017a4 <SystemCoreClockUpdate+0x100>)
  401716:	4b22      	ldr	r3, [pc, #136]	; (4017a0 <SystemCoreClockUpdate+0xfc>)
  401718:	601a      	str	r2, [r3, #0]
  40171a:	e7d8      	b.n	4016ce <SystemCoreClockUpdate+0x2a>
  40171c:	4a23      	ldr	r2, [pc, #140]	; (4017ac <SystemCoreClockUpdate+0x108>)
  40171e:	4b20      	ldr	r3, [pc, #128]	; (4017a0 <SystemCoreClockUpdate+0xfc>)
  401720:	601a      	str	r2, [r3, #0]
  401722:	e7d4      	b.n	4016ce <SystemCoreClockUpdate+0x2a>
  401724:	4b1c      	ldr	r3, [pc, #112]	; (401798 <SystemCoreClockUpdate+0xf4>)
  401726:	6a1b      	ldr	r3, [r3, #32]
  401728:	f013 7f80 	tst.w	r3, #16777216	; 0x1000000
  40172c:	d018      	beq.n	401760 <SystemCoreClockUpdate+0xbc>
  40172e:	4a1d      	ldr	r2, [pc, #116]	; (4017a4 <SystemCoreClockUpdate+0x100>)
  401730:	4b1b      	ldr	r3, [pc, #108]	; (4017a0 <SystemCoreClockUpdate+0xfc>)
  401732:	601a      	str	r2, [r3, #0]
  401734:	4b18      	ldr	r3, [pc, #96]	; (401798 <SystemCoreClockUpdate+0xf4>)
  401736:	6b1b      	ldr	r3, [r3, #48]	; 0x30
  401738:	f003 0303 	and.w	r3, r3, #3
  40173c:	2b02      	cmp	r3, #2
  40173e:	4a16      	ldr	r2, [pc, #88]	; (401798 <SystemCoreClockUpdate+0xf4>)
  401740:	bf07      	ittee	eq
  401742:	6a91      	ldreq	r1, [r2, #40]	; 0x28
  401744:	6a92      	ldreq	r2, [r2, #40]	; 0x28
  401746:	6ad1      	ldrne	r1, [r2, #44]	; 0x2c
  401748:	6ad2      	ldrne	r2, [r2, #44]	; 0x2c
  40174a:	4815      	ldr	r0, [pc, #84]	; (4017a0 <SystemCoreClockUpdate+0xfc>)
  40174c:	f3c1 410a 	ubfx	r1, r1, #16, #11
  401750:	6803      	ldr	r3, [r0, #0]
  401752:	fb01 3303 	mla	r3, r1, r3, r3
  401756:	b2d2      	uxtb	r2, r2
  401758:	fbb3 f3f2 	udiv	r3, r3, r2
  40175c:	6003      	str	r3, [r0, #0]
  40175e:	e7b6      	b.n	4016ce <SystemCoreClockUpdate+0x2a>
  401760:	4a11      	ldr	r2, [pc, #68]	; (4017a8 <SystemCoreClockUpdate+0x104>)
  401762:	4b0f      	ldr	r3, [pc, #60]	; (4017a0 <SystemCoreClockUpdate+0xfc>)
  401764:	601a      	str	r2, [r3, #0]
  401766:	4b0c      	ldr	r3, [pc, #48]	; (401798 <SystemCoreClockUpdate+0xf4>)
  401768:	6a1b      	ldr	r3, [r3, #32]
  40176a:	f003 0370 	and.w	r3, r3, #112	; 0x70
  40176e:	2b10      	cmp	r3, #16
  401770:	d005      	beq.n	40177e <SystemCoreClockUpdate+0xda>
  401772:	2b20      	cmp	r3, #32
  401774:	d1de      	bne.n	401734 <SystemCoreClockUpdate+0x90>
  401776:	4a0b      	ldr	r2, [pc, #44]	; (4017a4 <SystemCoreClockUpdate+0x100>)
  401778:	4b09      	ldr	r3, [pc, #36]	; (4017a0 <SystemCoreClockUpdate+0xfc>)
  40177a:	601a      	str	r2, [r3, #0]
  40177c:	e7da      	b.n	401734 <SystemCoreClockUpdate+0x90>
  40177e:	4a0b      	ldr	r2, [pc, #44]	; (4017ac <SystemCoreClockUpdate+0x108>)
  401780:	4b07      	ldr	r3, [pc, #28]	; (4017a0 <SystemCoreClockUpdate+0xfc>)
  401782:	601a      	str	r2, [r3, #0]
  401784:	e7d6      	b.n	401734 <SystemCoreClockUpdate+0x90>
  401786:	4a06      	ldr	r2, [pc, #24]	; (4017a0 <SystemCoreClockUpdate+0xfc>)
  401788:	6813      	ldr	r3, [r2, #0]
  40178a:	4909      	ldr	r1, [pc, #36]	; (4017b0 <SystemCoreClockUpdate+0x10c>)
  40178c:	fba1 1303 	umull	r1, r3, r1, r3
  401790:	085b      	lsrs	r3, r3, #1
  401792:	6013      	str	r3, [r2, #0]
  401794:	4770      	bx	lr
  401796:	bf00      	nop
  401798:	400e0400 	.word	0x400e0400
  40179c:	400e1410 	.word	0x400e1410
  4017a0:	2000000c 	.word	0x2000000c
  4017a4:	00b71b00 	.word	0x00b71b00
  4017a8:	003d0900 	.word	0x003d0900
  4017ac:	007a1200 	.word	0x007a1200
  4017b0:	aaaaaaab 	.word	0xaaaaaaab

004017b4 <system_init_flash>:
  4017b4:	4b12      	ldr	r3, [pc, #72]	; (401800 <system_init_flash+0x4c>)
  4017b6:	4298      	cmp	r0, r3
  4017b8:	d911      	bls.n	4017de <system_init_flash+0x2a>
  4017ba:	4b12      	ldr	r3, [pc, #72]	; (401804 <system_init_flash+0x50>)
  4017bc:	4298      	cmp	r0, r3
  4017be:	d913      	bls.n	4017e8 <system_init_flash+0x34>
  4017c0:	4b11      	ldr	r3, [pc, #68]	; (401808 <system_init_flash+0x54>)
  4017c2:	4298      	cmp	r0, r3
  4017c4:	d914      	bls.n	4017f0 <system_init_flash+0x3c>
  4017c6:	4b11      	ldr	r3, [pc, #68]	; (40180c <system_init_flash+0x58>)
  4017c8:	4298      	cmp	r0, r3
  4017ca:	d915      	bls.n	4017f8 <system_init_flash+0x44>
  4017cc:	4b10      	ldr	r3, [pc, #64]	; (401810 <system_init_flash+0x5c>)
  4017ce:	4298      	cmp	r0, r3
  4017d0:	bf94      	ite	ls
  4017d2:	f04f 2204 	movls.w	r2, #67109888	; 0x4000400
  4017d6:	4a0f      	ldrhi	r2, [pc, #60]	; (401814 <system_init_flash+0x60>)
  4017d8:	4b0f      	ldr	r3, [pc, #60]	; (401818 <system_init_flash+0x64>)
  4017da:	601a      	str	r2, [r3, #0]
  4017dc:	4770      	bx	lr
  4017de:	f04f 6280 	mov.w	r2, #67108864	; 0x4000000
  4017e2:	4b0d      	ldr	r3, [pc, #52]	; (401818 <system_init_flash+0x64>)
  4017e4:	601a      	str	r2, [r3, #0]
  4017e6:	4770      	bx	lr
  4017e8:	4a0c      	ldr	r2, [pc, #48]	; (40181c <system_init_flash+0x68>)
  4017ea:	4b0b      	ldr	r3, [pc, #44]	; (401818 <system_init_flash+0x64>)
  4017ec:	601a      	str	r2, [r3, #0]
  4017ee:	4770      	bx	lr
  4017f0:	4a0b      	ldr	r2, [pc, #44]	; (401820 <system_init_flash+0x6c>)
  4017f2:	4b09      	ldr	r3, [pc, #36]	; (401818 <system_init_flash+0x64>)
  4017f4:	601a      	str	r2, [r3, #0]
  4017f6:	4770      	bx	lr
  4017f8:	4a0a      	ldr	r2, [pc, #40]	; (401824 <system_init_flash+0x70>)
  4017fa:	4b07      	ldr	r3, [pc, #28]	; (401818 <system_init_flash+0x64>)
  4017fc:	601a      	str	r2, [r3, #0]
  4017fe:	4770      	bx	lr
  401800:	01312cff 	.word	0x01312cff
  401804:	026259ff 	.word	0x026259ff
  401808:	039386ff 	.word	0x039386ff
  40180c:	04c4b3ff 	.word	0x04c4b3ff
  401810:	05f5e0ff 	.word	0x05f5e0ff
  401814:	04000500 	.word	0x04000500
  401818:	400e0a00 	.word	0x400e0a00
  40181c:	04000100 	.word	0x04000100
  401820:	04000200 	.word	0x04000200
  401824:	04000300 	.word	0x04000300

00401828 <_sbrk>:
  401828:	4b0a      	ldr	r3, [pc, #40]	; (401854 <_sbrk+0x2c>)
  40182a:	681b      	ldr	r3, [r3, #0]
  40182c:	b153      	cbz	r3, 401844 <_sbrk+0x1c>
  40182e:	4b09      	ldr	r3, [pc, #36]	; (401854 <_sbrk+0x2c>)
  401830:	681b      	ldr	r3, [r3, #0]
  401832:	181a      	adds	r2, r3, r0
  401834:	4908      	ldr	r1, [pc, #32]	; (401858 <_sbrk+0x30>)
  401836:	4291      	cmp	r1, r2
  401838:	db08      	blt.n	40184c <_sbrk+0x24>
  40183a:	4610      	mov	r0, r2
  40183c:	4a05      	ldr	r2, [pc, #20]	; (401854 <_sbrk+0x2c>)
  40183e:	6010      	str	r0, [r2, #0]
  401840:	4618      	mov	r0, r3
  401842:	4770      	bx	lr
  401844:	4a05      	ldr	r2, [pc, #20]	; (40185c <_sbrk+0x34>)
  401846:	4b03      	ldr	r3, [pc, #12]	; (401854 <_sbrk+0x2c>)
  401848:	601a      	str	r2, [r3, #0]
  40184a:	e7f0      	b.n	40182e <_sbrk+0x6>
  40184c:	f04f 30ff 	mov.w	r0, #4294967295
  401850:	4770      	bx	lr
  401852:	bf00      	nop
  401854:	20000a68 	.word	0x20000a68
  401858:	2001fffc 	.word	0x2001fffc
  40185c:	2001c720 	.word	0x2001c720

00401860 <main>:
#include "timer_interface.h"

char* buff[100];

int main (void)
{
  401860:	b580      	push	{r7, lr}
	// Board / Clock Initializations
	sysclk_init();
  401862:	4b56      	ldr	r3, [pc, #344]	; (4019bc <main+0x15c>)
  401864:	4798      	blx	r3
	wdt_disable(WDT);
  401866:	4856      	ldr	r0, [pc, #344]	; (4019c0 <main+0x160>)
  401868:	4b56      	ldr	r3, [pc, #344]	; (4019c4 <main+0x164>)
  40186a:	4798      	blx	r3
  40186c:	200b      	movs	r0, #11
  40186e:	4c56      	ldr	r4, [pc, #344]	; (4019c8 <main+0x168>)
  401870:	47a0      	blx	r4
  401872:	200c      	movs	r0, #12
  401874:	47a0      	blx	r4
	ioport_init();
	board_init();
  401876:	4b55      	ldr	r3, [pc, #340]	; (4019cc <main+0x16c>)
  401878:	4798      	blx	r3
	
	// Configurations and Timer
	configure_tc();
  40187a:	4b55      	ldr	r3, [pc, #340]	; (4019d0 <main+0x170>)
  40187c:	4798      	blx	r3
	configure_usart();
  40187e:	4b55      	ldr	r3, [pc, #340]	; (4019d4 <main+0x174>)
  401880:	4798      	blx	r3
	configure_spi();
  401882:	4b55      	ldr	r3, [pc, #340]	; (4019d8 <main+0x178>)
  401884:	4798      	blx	r3
	configure_wifi_comm_pin();
  401886:	4b55      	ldr	r3, [pc, #340]	; (4019dc <main+0x17c>)
  401888:	4798      	blx	r3
	configure_wifi_provision_pin();
  40188a:	4b55      	ldr	r3, [pc, #340]	; (4019e0 <main+0x180>)
  40188c:	4798      	blx	r3
	 
	// Camera Initializations
	init_camera();
  40188e:	4b55      	ldr	r3, [pc, #340]	; (4019e4 <main+0x184>)
  401890:	4798      	blx	r3
	configure_camera();
  401892:	4b55      	ldr	r3, [pc, #340]	; (4019e8 <main+0x188>)
  401894:	4798      	blx	r3
	Pio *base = arch_ioport_pin_to_base(pin);

	if (level) {
		base->PIO_SODR = arch_ioport_pin_to_mask(pin);
	} else {
		base->PIO_CODR = arch_ioport_pin_to_mask(pin);
  401896:	4e55      	ldr	r6, [pc, #340]	; (4019ec <main+0x18c>)
  401898:	2701      	movs	r7, #1
  40189a:	6377      	str	r7, [r6, #52]	; 0x34

	// Reset Wifi
	ioport_set_pin_level(WIFI_RESET_MASK, false);
	delay_ms(100);
  40189c:	4d54      	ldr	r5, [pc, #336]	; (4019f0 <main+0x190>)
  40189e:	4628      	mov	r0, r5
  4018a0:	4c54      	ldr	r4, [pc, #336]	; (4019f4 <main+0x194>)
  4018a2:	47a0      	blx	r4
		base->PIO_SODR = arch_ioport_pin_to_mask(pin);
  4018a4:	6337      	str	r7, [r6, #48]	; 0x30
	ioport_set_pin_level(WIFI_RESET_MASK, true);
	delay_ms(100);
  4018a6:	4628      	mov	r0, r5
  4018a8:	47a0      	blx	r4

	// Send ESP32 indicator LED config commands
	sprintf (buff, "set wlan_gpio %d", ESP_NET_LED);
  4018aa:	4c53      	ldr	r4, [pc, #332]	; (4019f8 <main+0x198>)
  4018ac:	2219      	movs	r2, #25
  4018ae:	4953      	ldr	r1, [pc, #332]	; (4019fc <main+0x19c>)
  4018b0:	4620      	mov	r0, r4
  4018b2:	4e53      	ldr	r6, [pc, #332]	; (401a00 <main+0x1a0>)
  4018b4:	47b0      	blx	r6
	write_wifi_command(buff, 2);
  4018b6:	2102      	movs	r1, #2
  4018b8:	4620      	mov	r0, r4
  4018ba:	4d52      	ldr	r5, [pc, #328]	; (401a04 <main+0x1a4>)
  4018bc:	47a8      	blx	r5
	sprintf (buff, "set websocket_gpio %d", ESP_CLIENT_LED);
  4018be:	221b      	movs	r2, #27
  4018c0:	4951      	ldr	r1, [pc, #324]	; (401a08 <main+0x1a8>)
  4018c2:	4620      	mov	r0, r4
  4018c4:	47b0      	blx	r6
	write_wifi_command(buff, 2);
  4018c6:	2102      	movs	r1, #2
  4018c8:	4620      	mov	r0, r4
  4018ca:	47a8      	blx	r5
	sprintf (buff, "set ap_gpio %d", ESP_PROV_LED);
  4018cc:	221a      	movs	r2, #26
  4018ce:	494f      	ldr	r1, [pc, #316]	; (401a0c <main+0x1ac>)
  4018d0:	4620      	mov	r0, r4
  4018d2:	47b0      	blx	r6
	write_wifi_command(buff, 2);
  4018d4:	2102      	movs	r1, #2
  4018d6:	4620      	mov	r0, r4
  4018d8:	47a8      	blx	r5

	// Wifi Board Control Line Pin Config
	sprintf (buff, "set comm_gpio %d", ESP_COMM_GPIO);
  4018da:	2215      	movs	r2, #21
  4018dc:	494c      	ldr	r1, [pc, #304]	; (401a10 <main+0x1b0>)
  4018de:	4620      	mov	r0, r4
  4018e0:	47b0      	blx	r6
	write_wifi_command(buff, 2);
  4018e2:	2102      	movs	r1, #2
  4018e4:	4620      	mov	r0, r4
  4018e6:	47a8      	blx	r5
	sprintf (buff, "set net_gpio %d", ESP_NET_GPIO);
  4018e8:	2216      	movs	r2, #22
  4018ea:	494a      	ldr	r1, [pc, #296]	; (401a14 <main+0x1b4>)
  4018ec:	4620      	mov	r0, r4
  4018ee:	47b0      	blx	r6
	write_wifi_command(buff, 2);
  4018f0:	2102      	movs	r1, #2
  4018f2:	4620      	mov	r0, r4
  4018f4:	47a8      	blx	r5
	sprintf (buff, "set clients_gpio %d", ESP_CLIENT_GPIO);
  4018f6:	2220      	movs	r2, #32
  4018f8:	4947      	ldr	r1, [pc, #284]	; (401a18 <main+0x1b8>)
  4018fa:	4620      	mov	r0, r4
  4018fc:	47b0      	blx	r6
	write_wifi_command(buff, 2);
  4018fe:	2102      	movs	r1, #2
  401900:	4620      	mov	r0, r4
  401902:	47a8      	blx	r5
	
	// Set SPI Baud Rate
	sprintf(buff, "set spi_baud %d", SPI_BAUDRATE);
  401904:	4a45      	ldr	r2, [pc, #276]	; (401a1c <main+0x1bc>)
  401906:	4946      	ldr	r1, [pc, #280]	; (401a20 <main+0x1c0>)
  401908:	4620      	mov	r0, r4
  40190a:	47b0      	blx	r6
	write_wifi_command(buff, 2);
  40190c:	2102      	movs	r1, #2
  40190e:	4620      	mov	r0, r4
  401910:	47a8      	blx	r5

	reading_wifi_flag = false;
  401912:	2300      	movs	r3, #0
  401914:	4a43      	ldr	r2, [pc, #268]	; (401a24 <main+0x1c4>)
  401916:	7013      	strb	r3, [r2, #0]
	provisioning_flag = false;
  401918:	4a43      	ldr	r2, [pc, #268]	; (401a28 <main+0x1c8>)
  40191a:	7013      	strb	r3, [r2, #0]
	}
}

__always_inline static bool arch_ioport_get_pin_level(ioport_pin_t pin)
{
	return arch_ioport_pin_to_base(pin)->PIO_PDSR & arch_ioport_pin_to_mask(pin);
  40191c:	4d43      	ldr	r5, [pc, #268]	; (401a2c <main+0x1cc>)

	// Wait for Network Connection ACK
	while (!wifi_ready)
	{
		if (provisioning_flag)  // if Wifi Setup button is pressed
  40191e:	4614      	mov	r4, r2
  401920:	6beb      	ldr	r3, [r5, #60]	; 0x3c
	while (!wifi_ready)
  401922:	f413 6f80 	tst.w	r3, #1024	; 0x400
  401926:	d10c      	bne.n	401942 <main+0xe2>
		if (provisioning_flag)  // if Wifi Setup button is pressed
  401928:	7823      	ldrb	r3, [r4, #0]
  40192a:	2b00      	cmp	r3, #0
  40192c:	d0f8      	beq.n	401920 <main+0xc0>
		{
			write_wifi_command("provision", 1);
  40192e:	2101      	movs	r1, #1
  401930:	483f      	ldr	r0, [pc, #252]	; (401a30 <main+0x1d0>)
  401932:	4e34      	ldr	r6, [pc, #208]	; (401a04 <main+0x1a4>)
  401934:	47b0      	blx	r6
			provisioning_flag = false;
  401936:	2300      	movs	r3, #0
  401938:	7023      	strb	r3, [r4, #0]
			write_wifi_command("get mac", 1);
  40193a:	2101      	movs	r1, #1
  40193c:	483d      	ldr	r0, [pc, #244]	; (401a34 <main+0x1d4>)
  40193e:	47b0      	blx	r6
  401940:	e7ee      	b.n	401920 <main+0xc0>
		}
	}

	delay_ms(100);
  401942:	482b      	ldr	r0, [pc, #172]	; (4019f0 <main+0x190>)
  401944:	4c2b      	ldr	r4, [pc, #172]	; (4019f4 <main+0x194>)
  401946:	47a0      	blx	r4
	write_wifi_command("test", 10);
  401948:	210a      	movs	r1, #10
  40194a:	483b      	ldr	r0, [pc, #236]	; (401a38 <main+0x1d8>)
  40194c:	4b2d      	ldr	r3, [pc, #180]	; (401a04 <main+0x1a4>)
  40194e:	4798      	blx	r3
	delay_ms(1000);	// test to find optimal time?
  401950:	483a      	ldr	r0, [pc, #232]	; (401a3c <main+0x1dc>)
  401952:	47a0      	blx	r4
	
	while (!reading_wifi_flag)
  401954:	4b33      	ldr	r3, [pc, #204]	; (401a24 <main+0x1c4>)
  401956:	781b      	ldrb	r3, [r3, #0]
  401958:	b9cb      	cbnz	r3, 40198e <main+0x12e>
		base->PIO_CODR = arch_ioport_pin_to_mask(pin);
  40195a:	4e24      	ldr	r6, [pc, #144]	; (4019ec <main+0x18c>)
  40195c:	2501      	movs	r5, #1
  40195e:	46aa      	mov	sl, r5
	{
		// Reset wifi chip
		ioport_set_pin_level(WIFI_RESET_MASK,false);
		delay_ms(100);
  401960:	f8df 908c 	ldr.w	r9, [pc, #140]	; 4019f0 <main+0x190>
		ioport_set_pin_level(WIFI_RESET_MASK,true);
		delay_ms(5000);
  401964:	f8df 80e0 	ldr.w	r8, [pc, #224]	; 401a48 <main+0x1e8>
		write_wifi_command("test", 10);
		delay_ms(1000);
  401968:	4f34      	ldr	r7, [pc, #208]	; (401a3c <main+0x1dc>)
  40196a:	f8c6 a034 	str.w	sl, [r6, #52]	; 0x34
		delay_ms(100);
  40196e:	4648      	mov	r0, r9
  401970:	4c20      	ldr	r4, [pc, #128]	; (4019f4 <main+0x194>)
  401972:	47a0      	blx	r4
		base->PIO_SODR = arch_ioport_pin_to_mask(pin);
  401974:	6335      	str	r5, [r6, #48]	; 0x30
		delay_ms(5000);
  401976:	4640      	mov	r0, r8
  401978:	47a0      	blx	r4
		write_wifi_command("test", 10);
  40197a:	210a      	movs	r1, #10
  40197c:	482e      	ldr	r0, [pc, #184]	; (401a38 <main+0x1d8>)
  40197e:	4b21      	ldr	r3, [pc, #132]	; (401a04 <main+0x1a4>)
  401980:	4798      	blx	r3
		delay_ms(1000);
  401982:	4638      	mov	r0, r7
  401984:	47a0      	blx	r4
	while (!reading_wifi_flag)
  401986:	4b27      	ldr	r3, [pc, #156]	; (401a24 <main+0x1c4>)
  401988:	781b      	ldrb	r3, [r3, #0]
  40198a:	2b00      	cmp	r3, #0
  40198c:	d0ed      	beq.n	40196a <main+0x10a>
	}

	// Start Main Loop
	while (true)
	{
		if (provisioning_flag) // if Wifi Setup button is pressed
  40198e:	4c26      	ldr	r4, [pc, #152]	; (401a28 <main+0x1c8>)
	return arch_ioport_pin_to_base(pin)->PIO_PDSR & arch_ioport_pin_to_mask(pin);
  401990:	4d16      	ldr	r5, [pc, #88]	; (4019ec <main+0x18c>)
			write_wifi_command("provision", 1);
			provisioning_flag = false;
		}
		else if (capture_ready)
		{
			if (start_capture())
  401992:	4e2b      	ldr	r6, [pc, #172]	; (401a40 <main+0x1e0>)
  401994:	e005      	b.n	4019a2 <main+0x142>
			write_wifi_command("provision", 1);
  401996:	2101      	movs	r1, #1
  401998:	4825      	ldr	r0, [pc, #148]	; (401a30 <main+0x1d0>)
  40199a:	4b1a      	ldr	r3, [pc, #104]	; (401a04 <main+0x1a4>)
  40199c:	4798      	blx	r3
			provisioning_flag = false;
  40199e:	2300      	movs	r3, #0
  4019a0:	7023      	strb	r3, [r4, #0]
		if (provisioning_flag) // if Wifi Setup button is pressed
  4019a2:	7823      	ldrb	r3, [r4, #0]
  4019a4:	2b00      	cmp	r3, #0
  4019a6:	d1f6      	bne.n	401996 <main+0x136>
  4019a8:	6beb      	ldr	r3, [r5, #60]	; 0x3c
		else if (capture_ready)
  4019aa:	f013 0f08 	tst.w	r3, #8
  4019ae:	d0f8      	beq.n	4019a2 <main+0x142>
			if (start_capture())
  4019b0:	47b0      	blx	r6
  4019b2:	2800      	cmp	r0, #0
  4019b4:	d0f5      	beq.n	4019a2 <main+0x142>
			{
				write_image_to_web();
  4019b6:	4b23      	ldr	r3, [pc, #140]	; (401a44 <main+0x1e4>)
  4019b8:	4798      	blx	r3
  4019ba:	e7f2      	b.n	4019a2 <main+0x142>
  4019bc:	004010a5 	.word	0x004010a5
  4019c0:	400e1450 	.word	0x400e1450
  4019c4:	0040075d 	.word	0x0040075d
  4019c8:	0040149d 	.word	0x0040149d
  4019cc:	004014f1 	.word	0x004014f1
  4019d0:	00400c95 	.word	0x00400c95
  4019d4:	00400dc5 	.word	0x00400dc5
  4019d8:	0040102d 	.word	0x0040102d
  4019dc:	00400e3d 	.word	0x00400e3d
  4019e0:	00400ee5 	.word	0x00400ee5
  4019e4:	0040087d 	.word	0x0040087d
  4019e8:	004007fd 	.word	0x004007fd
  4019ec:	400e1000 	.word	0x400e1000
  4019f0:	000d1437 	.word	0x000d1437
  4019f4:	20000001 	.word	0x20000001
  4019f8:	20019568 	.word	0x20019568
  4019fc:	004075c8 	.word	0x004075c8
  401a00:	00401b39 	.word	0x00401b39
  401a04:	00400e89 	.word	0x00400e89
  401a08:	004075dc 	.word	0x004075dc
  401a0c:	004075f4 	.word	0x004075f4
  401a10:	00407604 	.word	0x00407604
  401a14:	00407618 	.word	0x00407618
  401a18:	00407628 	.word	0x00407628
  401a1c:	000c3500 	.word	0x000c3500
  401a20:	0040763c 	.word	0x0040763c
  401a24:	20019554 	.word	0x20019554
  401a28:	20019560 	.word	0x20019560
  401a2c:	400e0e00 	.word	0x400e0e00
  401a30:	0040764c 	.word	0x0040764c
  401a34:	00407658 	.word	0x00407658
  401a38:	00407660 	.word	0x00407660
  401a3c:	0082ca25 	.word	0x0082ca25
  401a40:	0040098d 	.word	0x0040098d
  401a44:	00401065 	.word	0x00401065
  401a48:	028df2b7 	.word	0x028df2b7

00401a4c <__libc_init_array>:
  401a4c:	b570      	push	{r4, r5, r6, lr}
  401a4e:	4e0f      	ldr	r6, [pc, #60]	; (401a8c <__libc_init_array+0x40>)
  401a50:	4d0f      	ldr	r5, [pc, #60]	; (401a90 <__libc_init_array+0x44>)
  401a52:	1b76      	subs	r6, r6, r5
  401a54:	10b6      	asrs	r6, r6, #2
  401a56:	bf18      	it	ne
  401a58:	2400      	movne	r4, #0
  401a5a:	d005      	beq.n	401a68 <__libc_init_array+0x1c>
  401a5c:	3401      	adds	r4, #1
  401a5e:	f855 3b04 	ldr.w	r3, [r5], #4
  401a62:	4798      	blx	r3
  401a64:	42a6      	cmp	r6, r4
  401a66:	d1f9      	bne.n	401a5c <__libc_init_array+0x10>
  401a68:	4e0a      	ldr	r6, [pc, #40]	; (401a94 <__libc_init_array+0x48>)
  401a6a:	4d0b      	ldr	r5, [pc, #44]	; (401a98 <__libc_init_array+0x4c>)
  401a6c:	1b76      	subs	r6, r6, r5
  401a6e:	f005 ff3f 	bl	4078f0 <_init>
  401a72:	10b6      	asrs	r6, r6, #2
  401a74:	bf18      	it	ne
  401a76:	2400      	movne	r4, #0
  401a78:	d006      	beq.n	401a88 <__libc_init_array+0x3c>
  401a7a:	3401      	adds	r4, #1
  401a7c:	f855 3b04 	ldr.w	r3, [r5], #4
  401a80:	4798      	blx	r3
  401a82:	42a6      	cmp	r6, r4
  401a84:	d1f9      	bne.n	401a7a <__libc_init_array+0x2e>
  401a86:	bd70      	pop	{r4, r5, r6, pc}
  401a88:	bd70      	pop	{r4, r5, r6, pc}
  401a8a:	bf00      	nop
  401a8c:	004078fc 	.word	0x004078fc
  401a90:	004078fc 	.word	0x004078fc
  401a94:	00407904 	.word	0x00407904
  401a98:	004078fc 	.word	0x004078fc

00401a9c <memset>:
  401a9c:	b470      	push	{r4, r5, r6}
  401a9e:	0786      	lsls	r6, r0, #30
  401aa0:	d046      	beq.n	401b30 <memset+0x94>
  401aa2:	1e54      	subs	r4, r2, #1
  401aa4:	2a00      	cmp	r2, #0
  401aa6:	d041      	beq.n	401b2c <memset+0x90>
  401aa8:	b2ca      	uxtb	r2, r1
  401aaa:	4603      	mov	r3, r0
  401aac:	e002      	b.n	401ab4 <memset+0x18>
  401aae:	f114 34ff 	adds.w	r4, r4, #4294967295
  401ab2:	d33b      	bcc.n	401b2c <memset+0x90>
  401ab4:	f803 2b01 	strb.w	r2, [r3], #1
  401ab8:	079d      	lsls	r5, r3, #30
  401aba:	d1f8      	bne.n	401aae <memset+0x12>
  401abc:	2c03      	cmp	r4, #3
  401abe:	d92e      	bls.n	401b1e <memset+0x82>
  401ac0:	b2cd      	uxtb	r5, r1
  401ac2:	ea45 2505 	orr.w	r5, r5, r5, lsl #8
  401ac6:	2c0f      	cmp	r4, #15
  401ac8:	ea45 4505 	orr.w	r5, r5, r5, lsl #16
  401acc:	d919      	bls.n	401b02 <memset+0x66>
  401ace:	f103 0210 	add.w	r2, r3, #16
  401ad2:	4626      	mov	r6, r4
  401ad4:	3e10      	subs	r6, #16
  401ad6:	2e0f      	cmp	r6, #15
  401ad8:	f842 5c10 	str.w	r5, [r2, #-16]
  401adc:	f842 5c0c 	str.w	r5, [r2, #-12]
  401ae0:	f842 5c08 	str.w	r5, [r2, #-8]
  401ae4:	f842 5c04 	str.w	r5, [r2, #-4]
  401ae8:	f102 0210 	add.w	r2, r2, #16
  401aec:	d8f2      	bhi.n	401ad4 <memset+0x38>
  401aee:	f1a4 0210 	sub.w	r2, r4, #16
  401af2:	f022 020f 	bic.w	r2, r2, #15
  401af6:	f004 040f 	and.w	r4, r4, #15
  401afa:	3210      	adds	r2, #16
  401afc:	2c03      	cmp	r4, #3
  401afe:	4413      	add	r3, r2
  401b00:	d90d      	bls.n	401b1e <memset+0x82>
  401b02:	461e      	mov	r6, r3
  401b04:	4622      	mov	r2, r4
  401b06:	3a04      	subs	r2, #4
  401b08:	2a03      	cmp	r2, #3
  401b0a:	f846 5b04 	str.w	r5, [r6], #4
  401b0e:	d8fa      	bhi.n	401b06 <memset+0x6a>
  401b10:	1f22      	subs	r2, r4, #4
  401b12:	f022 0203 	bic.w	r2, r2, #3
  401b16:	3204      	adds	r2, #4
  401b18:	4413      	add	r3, r2
  401b1a:	f004 0403 	and.w	r4, r4, #3
  401b1e:	b12c      	cbz	r4, 401b2c <memset+0x90>
  401b20:	b2c9      	uxtb	r1, r1
  401b22:	441c      	add	r4, r3
  401b24:	f803 1b01 	strb.w	r1, [r3], #1
  401b28:	429c      	cmp	r4, r3
  401b2a:	d1fb      	bne.n	401b24 <memset+0x88>
  401b2c:	bc70      	pop	{r4, r5, r6}
  401b2e:	4770      	bx	lr
  401b30:	4614      	mov	r4, r2
  401b32:	4603      	mov	r3, r0
  401b34:	e7c2      	b.n	401abc <memset+0x20>
  401b36:	bf00      	nop

00401b38 <sprintf>:
  401b38:	b40e      	push	{r1, r2, r3}
  401b3a:	b5f0      	push	{r4, r5, r6, r7, lr}
  401b3c:	b09c      	sub	sp, #112	; 0x70
  401b3e:	ab21      	add	r3, sp, #132	; 0x84
  401b40:	490f      	ldr	r1, [pc, #60]	; (401b80 <sprintf+0x48>)
  401b42:	f853 2b04 	ldr.w	r2, [r3], #4
  401b46:	9301      	str	r3, [sp, #4]
  401b48:	4605      	mov	r5, r0
  401b4a:	f06f 4400 	mvn.w	r4, #2147483648	; 0x80000000
  401b4e:	6808      	ldr	r0, [r1, #0]
  401b50:	9502      	str	r5, [sp, #8]
  401b52:	f44f 7702 	mov.w	r7, #520	; 0x208
  401b56:	f64f 76ff 	movw	r6, #65535	; 0xffff
  401b5a:	a902      	add	r1, sp, #8
  401b5c:	9506      	str	r5, [sp, #24]
  401b5e:	f8ad 7014 	strh.w	r7, [sp, #20]
  401b62:	9404      	str	r4, [sp, #16]
  401b64:	9407      	str	r4, [sp, #28]
  401b66:	f8ad 6016 	strh.w	r6, [sp, #22]
  401b6a:	f000 fa6f 	bl	40204c <_svfprintf_r>
  401b6e:	9b02      	ldr	r3, [sp, #8]
  401b70:	2200      	movs	r2, #0
  401b72:	701a      	strb	r2, [r3, #0]
  401b74:	b01c      	add	sp, #112	; 0x70
  401b76:	e8bd 40f0 	ldmia.w	sp!, {r4, r5, r6, r7, lr}
  401b7a:	b003      	add	sp, #12
  401b7c:	4770      	bx	lr
  401b7e:	bf00      	nop
  401b80:	20000010 	.word	0x20000010

00401b84 <critical_factorization>:
  401b84:	e92d 41f0 	stmdb	sp!, {r4, r5, r6, r7, r8, lr}
  401b88:	f04f 0e01 	mov.w	lr, #1
  401b8c:	4674      	mov	r4, lr
  401b8e:	2500      	movs	r5, #0
  401b90:	f04f 36ff 	mov.w	r6, #4294967295
  401b94:	192b      	adds	r3, r5, r4
  401b96:	428b      	cmp	r3, r1
  401b98:	eb00 0706 	add.w	r7, r0, r6
  401b9c:	d20d      	bcs.n	401bba <critical_factorization+0x36>
  401b9e:	5d3f      	ldrb	r7, [r7, r4]
  401ba0:	f810 c003 	ldrb.w	ip, [r0, r3]
  401ba4:	45bc      	cmp	ip, r7
  401ba6:	d22d      	bcs.n	401c04 <critical_factorization+0x80>
  401ba8:	461d      	mov	r5, r3
  401baa:	2401      	movs	r4, #1
  401bac:	eba3 0e06 	sub.w	lr, r3, r6
  401bb0:	192b      	adds	r3, r5, r4
  401bb2:	428b      	cmp	r3, r1
  401bb4:	eb00 0706 	add.w	r7, r0, r6
  401bb8:	d3f1      	bcc.n	401b9e <critical_factorization+0x1a>
  401bba:	f04f 0801 	mov.w	r8, #1
  401bbe:	f8c2 e000 	str.w	lr, [r2]
  401bc2:	4644      	mov	r4, r8
  401bc4:	2500      	movs	r5, #0
  401bc6:	f04f 37ff 	mov.w	r7, #4294967295
  401bca:	192b      	adds	r3, r5, r4
  401bcc:	4299      	cmp	r1, r3
  401bce:	eb00 0e07 	add.w	lr, r0, r7
  401bd2:	d90e      	bls.n	401bf2 <critical_factorization+0x6e>
  401bd4:	f81e e004 	ldrb.w	lr, [lr, r4]
  401bd8:	f810 c003 	ldrb.w	ip, [r0, r3]
  401bdc:	45f4      	cmp	ip, lr
  401bde:	d918      	bls.n	401c12 <critical_factorization+0x8e>
  401be0:	461d      	mov	r5, r3
  401be2:	2401      	movs	r4, #1
  401be4:	eba3 0807 	sub.w	r8, r3, r7
  401be8:	192b      	adds	r3, r5, r4
  401bea:	4299      	cmp	r1, r3
  401bec:	eb00 0e07 	add.w	lr, r0, r7
  401bf0:	d8f0      	bhi.n	401bd4 <critical_factorization+0x50>
  401bf2:	3701      	adds	r7, #1
  401bf4:	1c70      	adds	r0, r6, #1
  401bf6:	4287      	cmp	r7, r0
  401bf8:	bf24      	itt	cs
  401bfa:	f8c2 8000 	strcs.w	r8, [r2]
  401bfe:	4638      	movcs	r0, r7
  401c00:	e8bd 81f0 	ldmia.w	sp!, {r4, r5, r6, r7, r8, pc}
  401c04:	d00c      	beq.n	401c20 <critical_factorization+0x9c>
  401c06:	f04f 0e01 	mov.w	lr, #1
  401c0a:	462e      	mov	r6, r5
  401c0c:	4674      	mov	r4, lr
  401c0e:	4475      	add	r5, lr
  401c10:	e7c0      	b.n	401b94 <critical_factorization+0x10>
  401c12:	d00b      	beq.n	401c2c <critical_factorization+0xa8>
  401c14:	f04f 0801 	mov.w	r8, #1
  401c18:	462f      	mov	r7, r5
  401c1a:	4644      	mov	r4, r8
  401c1c:	4445      	add	r5, r8
  401c1e:	e7d4      	b.n	401bca <critical_factorization+0x46>
  401c20:	4574      	cmp	r4, lr
  401c22:	bf12      	itee	ne
  401c24:	3401      	addne	r4, #1
  401c26:	461d      	moveq	r5, r3
  401c28:	2401      	moveq	r4, #1
  401c2a:	e7b3      	b.n	401b94 <critical_factorization+0x10>
  401c2c:	4544      	cmp	r4, r8
  401c2e:	bf12      	itee	ne
  401c30:	3401      	addne	r4, #1
  401c32:	461d      	moveq	r5, r3
  401c34:	2401      	moveq	r4, #1
  401c36:	e7c8      	b.n	401bca <critical_factorization+0x46>

00401c38 <two_way_long_needle>:
  401c38:	e92d 4ff0 	stmdb	sp!, {r4, r5, r6, r7, r8, r9, sl, fp, lr}
  401c3c:	f2ad 4d14 	subw	sp, sp, #1044	; 0x414
  401c40:	4616      	mov	r6, r2
  401c42:	4605      	mov	r5, r0
  401c44:	468b      	mov	fp, r1
  401c46:	4610      	mov	r0, r2
  401c48:	4619      	mov	r1, r3
  401c4a:	aa03      	add	r2, sp, #12
  401c4c:	461c      	mov	r4, r3
  401c4e:	f7ff ff99 	bl	401b84 <critical_factorization>
  401c52:	ab03      	add	r3, sp, #12
  401c54:	4681      	mov	r9, r0
  401c56:	f20d 420c 	addw	r2, sp, #1036	; 0x40c
  401c5a:	f843 4f04 	str.w	r4, [r3, #4]!
  401c5e:	4293      	cmp	r3, r2
  401c60:	d1fb      	bne.n	401c5a <two_way_long_needle+0x22>
  401c62:	b14c      	cbz	r4, 401c78 <two_way_long_needle+0x40>
  401c64:	1e63      	subs	r3, r4, #1
  401c66:	1e72      	subs	r2, r6, #1
  401c68:	a804      	add	r0, sp, #16
  401c6a:	f812 1f01 	ldrb.w	r1, [r2, #1]!
  401c6e:	f840 3021 	str.w	r3, [r0, r1, lsl #2]
  401c72:	f113 33ff 	adds.w	r3, r3, #4294967295
  401c76:	d2f8      	bcs.n	401c6a <two_way_long_needle+0x32>
  401c78:	9903      	ldr	r1, [sp, #12]
  401c7a:	464a      	mov	r2, r9
  401c7c:	4431      	add	r1, r6
  401c7e:	4630      	mov	r0, r6
  401c80:	f002 ff0e 	bl	404aa0 <memcmp>
  401c84:	2800      	cmp	r0, #0
  401c86:	d16f      	bne.n	401d68 <two_way_long_needle+0x130>
  401c88:	f109 33ff 	add.w	r3, r9, #4294967295
  401c8c:	9300      	str	r3, [sp, #0]
  401c8e:	18f3      	adds	r3, r6, r3
  401c90:	4682      	mov	sl, r0
  401c92:	9301      	str	r3, [sp, #4]
  401c94:	4623      	mov	r3, r4
  401c96:	4680      	mov	r8, r0
  401c98:	4654      	mov	r4, sl
  401c9a:	4658      	mov	r0, fp
  401c9c:	469a      	mov	sl, r3
  401c9e:	eb08 070a 	add.w	r7, r8, sl
  401ca2:	1a3a      	subs	r2, r7, r0
  401ca4:	2100      	movs	r1, #0
  401ca6:	4428      	add	r0, r5
  401ca8:	f002 feaa 	bl	404a00 <memchr>
  401cac:	2800      	cmp	r0, #0
  401cae:	d156      	bne.n	401d5e <two_way_long_needle+0x126>
  401cb0:	2f00      	cmp	r7, #0
  401cb2:	d054      	beq.n	401d5e <two_way_long_needle+0x126>
  401cb4:	19eb      	adds	r3, r5, r7
  401cb6:	aa04      	add	r2, sp, #16
  401cb8:	f813 3c01 	ldrb.w	r3, [r3, #-1]
  401cbc:	f852 3023 	ldr.w	r3, [r2, r3, lsl #2]
  401cc0:	b14b      	cbz	r3, 401cd6 <two_way_long_needle+0x9e>
  401cc2:	b124      	cbz	r4, 401cce <two_way_long_needle+0x96>
  401cc4:	9a03      	ldr	r2, [sp, #12]
  401cc6:	4293      	cmp	r3, r2
  401cc8:	d201      	bcs.n	401cce <two_way_long_needle+0x96>
  401cca:	ebaa 0302 	sub.w	r3, sl, r2
  401cce:	4498      	add	r8, r3
  401cd0:	2400      	movs	r4, #0
  401cd2:	4638      	mov	r0, r7
  401cd4:	e7e3      	b.n	401c9e <two_way_long_needle+0x66>
  401cd6:	454c      	cmp	r4, r9
  401cd8:	4623      	mov	r3, r4
  401cda:	f10a 3eff 	add.w	lr, sl, #4294967295
  401cde:	bf38      	it	cc
  401ce0:	464b      	movcc	r3, r9
  401ce2:	4573      	cmp	r3, lr
  401ce4:	d213      	bcs.n	401d0e <two_way_long_needle+0xd6>
  401ce6:	eb08 0203 	add.w	r2, r8, r3
  401cea:	f816 c003 	ldrb.w	ip, [r6, r3]
  401cee:	5ca8      	ldrb	r0, [r5, r2]
  401cf0:	4584      	cmp	ip, r0
  401cf2:	442a      	add	r2, r5
  401cf4:	eb06 0103 	add.w	r1, r6, r3
  401cf8:	d006      	beq.n	401d08 <two_way_long_needle+0xd0>
  401cfa:	e02c      	b.n	401d56 <two_way_long_needle+0x11e>
  401cfc:	f811 cf01 	ldrb.w	ip, [r1, #1]!
  401d00:	f812 0f01 	ldrb.w	r0, [r2, #1]!
  401d04:	4584      	cmp	ip, r0
  401d06:	d126      	bne.n	401d56 <two_way_long_needle+0x11e>
  401d08:	3301      	adds	r3, #1
  401d0a:	4573      	cmp	r3, lr
  401d0c:	d3f6      	bcc.n	401cfc <two_way_long_needle+0xc4>
  401d0e:	454c      	cmp	r4, r9
  401d10:	9900      	ldr	r1, [sp, #0]
  401d12:	f080 8089 	bcs.w	401e28 <two_way_long_needle+0x1f0>
  401d16:	9b00      	ldr	r3, [sp, #0]
  401d18:	eb08 0203 	add.w	r2, r8, r3
  401d1c:	9b01      	ldr	r3, [sp, #4]
  401d1e:	5ca8      	ldrb	r0, [r5, r2]
  401d20:	781b      	ldrb	r3, [r3, #0]
  401d22:	4298      	cmp	r0, r3
  401d24:	442a      	add	r2, r5
  401d26:	d17f      	bne.n	401e28 <two_way_long_needle+0x1f0>
  401d28:	9801      	ldr	r0, [sp, #4]
  401d2a:	f104 3bff 	add.w	fp, r4, #4294967295
  401d2e:	e006      	b.n	401d3e <two_way_long_needle+0x106>
  401d30:	f810 cd01 	ldrb.w	ip, [r0, #-1]!
  401d34:	f812 ed01 	ldrb.w	lr, [r2, #-1]!
  401d38:	45f4      	cmp	ip, lr
  401d3a:	d103      	bne.n	401d44 <two_way_long_needle+0x10c>
  401d3c:	4619      	mov	r1, r3
  401d3e:	1e4b      	subs	r3, r1, #1
  401d40:	459b      	cmp	fp, r3
  401d42:	d1f5      	bne.n	401d30 <two_way_long_needle+0xf8>
  401d44:	3401      	adds	r4, #1
  401d46:	428c      	cmp	r4, r1
  401d48:	d870      	bhi.n	401e2c <two_way_long_needle+0x1f4>
  401d4a:	9c03      	ldr	r4, [sp, #12]
  401d4c:	4638      	mov	r0, r7
  401d4e:	44a0      	add	r8, r4
  401d50:	ebaa 0404 	sub.w	r4, sl, r4
  401d54:	e7a3      	b.n	401c9e <two_way_long_needle+0x66>
  401d56:	f1c9 0201 	rsb	r2, r9, #1
  401d5a:	4490      	add	r8, r2
  401d5c:	e7b7      	b.n	401cce <two_way_long_needle+0x96>
  401d5e:	2000      	movs	r0, #0
  401d60:	f20d 4d14 	addw	sp, sp, #1044	; 0x414
  401d64:	e8bd 8ff0 	ldmia.w	sp!, {r4, r5, r6, r7, r8, r9, sl, fp, pc}
  401d68:	eba4 0309 	sub.w	r3, r4, r9
  401d6c:	454b      	cmp	r3, r9
  401d6e:	bf38      	it	cc
  401d70:	464b      	movcc	r3, r9
  401d72:	3301      	adds	r3, #1
  401d74:	f109 38ff 	add.w	r8, r9, #4294967295
  401d78:	9303      	str	r3, [sp, #12]
  401d7a:	eb06 0308 	add.w	r3, r6, r8
  401d7e:	4658      	mov	r0, fp
  401d80:	f04f 0a00 	mov.w	sl, #0
  401d84:	46cb      	mov	fp, r9
  401d86:	4699      	mov	r9, r3
  401d88:	eb0a 0704 	add.w	r7, sl, r4
  401d8c:	1a3a      	subs	r2, r7, r0
  401d8e:	2100      	movs	r1, #0
  401d90:	4428      	add	r0, r5
  401d92:	f002 fe35 	bl	404a00 <memchr>
  401d96:	2800      	cmp	r0, #0
  401d98:	d1e1      	bne.n	401d5e <two_way_long_needle+0x126>
  401d9a:	2f00      	cmp	r7, #0
  401d9c:	d0df      	beq.n	401d5e <two_way_long_needle+0x126>
  401d9e:	19eb      	adds	r3, r5, r7
  401da0:	aa04      	add	r2, sp, #16
  401da2:	f813 3c01 	ldrb.w	r3, [r3, #-1]
  401da6:	f852 3023 	ldr.w	r3, [r2, r3, lsl #2]
  401daa:	bba3      	cbnz	r3, 401e16 <two_way_long_needle+0x1de>
  401dac:	1e61      	subs	r1, r4, #1
  401dae:	458b      	cmp	fp, r1
  401db0:	d215      	bcs.n	401dde <two_way_long_needle+0x1a6>
  401db2:	eb0a 020b 	add.w	r2, sl, fp
  401db6:	f816 300b 	ldrb.w	r3, [r6, fp]
  401dba:	f815 e002 	ldrb.w	lr, [r5, r2]
  401dbe:	459e      	cmp	lr, r3
  401dc0:	442a      	add	r2, r5
  401dc2:	eb06 000b 	add.w	r0, r6, fp
  401dc6:	465b      	mov	r3, fp
  401dc8:	d006      	beq.n	401dd8 <two_way_long_needle+0x1a0>
  401dca:	e027      	b.n	401e1c <two_way_long_needle+0x1e4>
  401dcc:	f810 cf01 	ldrb.w	ip, [r0, #1]!
  401dd0:	f812 ef01 	ldrb.w	lr, [r2, #1]!
  401dd4:	45f4      	cmp	ip, lr
  401dd6:	d121      	bne.n	401e1c <two_way_long_needle+0x1e4>
  401dd8:	3301      	adds	r3, #1
  401dda:	428b      	cmp	r3, r1
  401ddc:	d3f6      	bcc.n	401dcc <two_way_long_needle+0x194>
  401dde:	f1b8 3fff 	cmp.w	r8, #4294967295
  401de2:	d011      	beq.n	401e08 <two_way_long_needle+0x1d0>
  401de4:	eb0a 0208 	add.w	r2, sl, r8
  401de8:	f899 1000 	ldrb.w	r1, [r9]
  401dec:	5cab      	ldrb	r3, [r5, r2]
  401dee:	4299      	cmp	r1, r3
  401df0:	442a      	add	r2, r5
  401df2:	d10f      	bne.n	401e14 <two_way_long_needle+0x1dc>
  401df4:	464b      	mov	r3, r9
  401df6:	e005      	b.n	401e04 <two_way_long_needle+0x1cc>
  401df8:	f813 0d01 	ldrb.w	r0, [r3, #-1]!
  401dfc:	f812 1d01 	ldrb.w	r1, [r2, #-1]!
  401e00:	4288      	cmp	r0, r1
  401e02:	d107      	bne.n	401e14 <two_way_long_needle+0x1dc>
  401e04:	42b3      	cmp	r3, r6
  401e06:	d1f7      	bne.n	401df8 <two_way_long_needle+0x1c0>
  401e08:	eb05 000a 	add.w	r0, r5, sl
  401e0c:	f20d 4d14 	addw	sp, sp, #1044	; 0x414
  401e10:	e8bd 8ff0 	ldmia.w	sp!, {r4, r5, r6, r7, r8, r9, sl, fp, pc}
  401e14:	9b03      	ldr	r3, [sp, #12]
  401e16:	449a      	add	sl, r3
  401e18:	4638      	mov	r0, r7
  401e1a:	e7b5      	b.n	401d88 <two_way_long_needle+0x150>
  401e1c:	f1cb 0201 	rsb	r2, fp, #1
  401e20:	4492      	add	sl, r2
  401e22:	449a      	add	sl, r3
  401e24:	4638      	mov	r0, r7
  401e26:	e7af      	b.n	401d88 <two_way_long_needle+0x150>
  401e28:	4649      	mov	r1, r9
  401e2a:	e78b      	b.n	401d44 <two_way_long_needle+0x10c>
  401e2c:	eb05 0008 	add.w	r0, r5, r8
  401e30:	e796      	b.n	401d60 <two_way_long_needle+0x128>
  401e32:	bf00      	nop

00401e34 <strstr>:
  401e34:	7802      	ldrb	r2, [r0, #0]
  401e36:	2a00      	cmp	r2, #0
  401e38:	f000 8101 	beq.w	40203e <strstr+0x20a>
  401e3c:	e92d 4ff0 	stmdb	sp!, {r4, r5, r6, r7, r8, r9, sl, fp, lr}
  401e40:	f891 8000 	ldrb.w	r8, [r1]
  401e44:	b085      	sub	sp, #20
  401e46:	4644      	mov	r4, r8
  401e48:	f1b8 0f00 	cmp.w	r8, #0
  401e4c:	d016      	beq.n	401e7c <strstr+0x48>
  401e4e:	4686      	mov	lr, r0
  401e50:	f101 0c01 	add.w	ip, r1, #1
  401e54:	2701      	movs	r7, #1
  401e56:	e003      	b.n	401e60 <strstr+0x2c>
  401e58:	f813 4b01 	ldrb.w	r4, [r3], #1
  401e5c:	b16c      	cbz	r4, 401e7a <strstr+0x46>
  401e5e:	469c      	mov	ip, r3
  401e60:	42a2      	cmp	r2, r4
  401e62:	bf14      	ite	ne
  401e64:	2700      	movne	r7, #0
  401e66:	f007 0701 	andeq.w	r7, r7, #1
  401e6a:	f81e 2f01 	ldrb.w	r2, [lr, #1]!
  401e6e:	4663      	mov	r3, ip
  401e70:	2a00      	cmp	r2, #0
  401e72:	d1f1      	bne.n	401e58 <strstr+0x24>
  401e74:	f89c 3000 	ldrb.w	r3, [ip]
  401e78:	b9fb      	cbnz	r3, 401eba <strstr+0x86>
  401e7a:	b117      	cbz	r7, 401e82 <strstr+0x4e>
  401e7c:	b005      	add	sp, #20
  401e7e:	e8bd 8ff0 	ldmia.w	sp!, {r4, r5, r6, r7, r8, r9, sl, fp, pc}
  401e82:	460e      	mov	r6, r1
  401e84:	4605      	mov	r5, r0
  401e86:	4641      	mov	r1, r8
  401e88:	3001      	adds	r0, #1
  401e8a:	ebac 0406 	sub.w	r4, ip, r6
  401e8e:	f003 f9e9 	bl	405264 <strchr>
  401e92:	4607      	mov	r7, r0
  401e94:	b188      	cbz	r0, 401eba <strstr+0x86>
  401e96:	2c01      	cmp	r4, #1
  401e98:	d0f0      	beq.n	401e7c <strstr+0x48>
  401e9a:	1928      	adds	r0, r5, r4
  401e9c:	4287      	cmp	r7, r0
  401e9e:	bf94      	ite	ls
  401ea0:	1bc1      	subls	r1, r0, r7
  401ea2:	2101      	movhi	r1, #1
  401ea4:	2c1f      	cmp	r4, #31
  401ea6:	468b      	mov	fp, r1
  401ea8:	d90b      	bls.n	401ec2 <strstr+0x8e>
  401eaa:	4623      	mov	r3, r4
  401eac:	4632      	mov	r2, r6
  401eae:	4638      	mov	r0, r7
  401eb0:	f7ff fec2 	bl	401c38 <two_way_long_needle>
  401eb4:	b005      	add	sp, #20
  401eb6:	e8bd 8ff0 	ldmia.w	sp!, {r4, r5, r6, r7, r8, r9, sl, fp, pc}
  401eba:	2000      	movs	r0, #0
  401ebc:	b005      	add	sp, #20
  401ebe:	e8bd 8ff0 	ldmia.w	sp!, {r4, r5, r6, r7, r8, r9, sl, fp, pc}
  401ec2:	aa03      	add	r2, sp, #12
  401ec4:	4621      	mov	r1, r4
  401ec6:	4630      	mov	r0, r6
  401ec8:	f7ff fe5c 	bl	401b84 <critical_factorization>
  401ecc:	9903      	ldr	r1, [sp, #12]
  401ece:	4680      	mov	r8, r0
  401ed0:	4602      	mov	r2, r0
  401ed2:	4431      	add	r1, r6
  401ed4:	4630      	mov	r0, r6
  401ed6:	f002 fde3 	bl	404aa0 <memcmp>
  401eda:	2800      	cmp	r0, #0
  401edc:	d157      	bne.n	401f8e <strstr+0x15a>
  401ede:	f108 33ff 	add.w	r3, r8, #4294967295
  401ee2:	9300      	str	r3, [sp, #0]
  401ee4:	18f3      	adds	r3, r6, r3
  401ee6:	4681      	mov	r9, r0
  401ee8:	4605      	mov	r5, r0
  401eea:	9301      	str	r3, [sp, #4]
  401eec:	4658      	mov	r0, fp
  401eee:	46b2      	mov	sl, r6
  401ef0:	1966      	adds	r6, r4, r5
  401ef2:	1a32      	subs	r2, r6, r0
  401ef4:	2100      	movs	r1, #0
  401ef6:	4438      	add	r0, r7
  401ef8:	f002 fd82 	bl	404a00 <memchr>
  401efc:	2800      	cmp	r0, #0
  401efe:	d1dc      	bne.n	401eba <strstr+0x86>
  401f00:	2e00      	cmp	r6, #0
  401f02:	d0da      	beq.n	401eba <strstr+0x86>
  401f04:	45c8      	cmp	r8, r9
  401f06:	4643      	mov	r3, r8
  401f08:	bf38      	it	cc
  401f0a:	464b      	movcc	r3, r9
  401f0c:	429c      	cmp	r4, r3
  401f0e:	d912      	bls.n	401f36 <strstr+0x102>
  401f10:	195a      	adds	r2, r3, r5
  401f12:	f81a 1003 	ldrb.w	r1, [sl, r3]
  401f16:	5cb8      	ldrb	r0, [r7, r2]
  401f18:	4281      	cmp	r1, r0
  401f1a:	443a      	add	r2, r7
  401f1c:	eb0a 0e03 	add.w	lr, sl, r3
  401f20:	d006      	beq.n	401f30 <strstr+0xfc>
  401f22:	e02c      	b.n	401f7e <strstr+0x14a>
  401f24:	f81e 0f01 	ldrb.w	r0, [lr, #1]!
  401f28:	f812 1f01 	ldrb.w	r1, [r2, #1]!
  401f2c:	4288      	cmp	r0, r1
  401f2e:	d126      	bne.n	401f7e <strstr+0x14a>
  401f30:	3301      	adds	r3, #1
  401f32:	429c      	cmp	r4, r3
  401f34:	d1f6      	bne.n	401f24 <strstr+0xf0>
  401f36:	45c8      	cmp	r8, r9
  401f38:	9900      	ldr	r1, [sp, #0]
  401f3a:	f240 8083 	bls.w	402044 <strstr+0x210>
  401f3e:	9b00      	ldr	r3, [sp, #0]
  401f40:	18ea      	adds	r2, r5, r3
  401f42:	9b01      	ldr	r3, [sp, #4]
  401f44:	5cb8      	ldrb	r0, [r7, r2]
  401f46:	781b      	ldrb	r3, [r3, #0]
  401f48:	4298      	cmp	r0, r3
  401f4a:	443a      	add	r2, r7
  401f4c:	d17a      	bne.n	402044 <strstr+0x210>
  401f4e:	9801      	ldr	r0, [sp, #4]
  401f50:	f109 3bff 	add.w	fp, r9, #4294967295
  401f54:	e006      	b.n	401f64 <strstr+0x130>
  401f56:	f810 cd01 	ldrb.w	ip, [r0, #-1]!
  401f5a:	f812 ed01 	ldrb.w	lr, [r2, #-1]!
  401f5e:	45f4      	cmp	ip, lr
  401f60:	d103      	bne.n	401f6a <strstr+0x136>
  401f62:	4619      	mov	r1, r3
  401f64:	1e4b      	subs	r3, r1, #1
  401f66:	455b      	cmp	r3, fp
  401f68:	d1f5      	bne.n	401f56 <strstr+0x122>
  401f6a:	f109 0901 	add.w	r9, r9, #1
  401f6e:	4589      	cmp	r9, r1
  401f70:	d857      	bhi.n	402022 <strstr+0x1ee>
  401f72:	9b03      	ldr	r3, [sp, #12]
  401f74:	4630      	mov	r0, r6
  401f76:	441d      	add	r5, r3
  401f78:	eba4 0903 	sub.w	r9, r4, r3
  401f7c:	e7b8      	b.n	401ef0 <strstr+0xbc>
  401f7e:	f1c8 0201 	rsb	r2, r8, #1
  401f82:	4415      	add	r5, r2
  401f84:	441d      	add	r5, r3
  401f86:	f04f 0900 	mov.w	r9, #0
  401f8a:	4630      	mov	r0, r6
  401f8c:	e7b0      	b.n	401ef0 <strstr+0xbc>
  401f8e:	eba4 0308 	sub.w	r3, r4, r8
  401f92:	4543      	cmp	r3, r8
  401f94:	bf38      	it	cc
  401f96:	4643      	movcc	r3, r8
  401f98:	3301      	adds	r3, #1
  401f9a:	f108 39ff 	add.w	r9, r8, #4294967295
  401f9e:	9303      	str	r3, [sp, #12]
  401fa0:	eb06 0309 	add.w	r3, r6, r9
  401fa4:	4658      	mov	r0, fp
  401fa6:	2500      	movs	r5, #0
  401fa8:	46bb      	mov	fp, r7
  401faa:	469a      	mov	sl, r3
  401fac:	1967      	adds	r7, r4, r5
  401fae:	1a3a      	subs	r2, r7, r0
  401fb0:	2100      	movs	r1, #0
  401fb2:	4458      	add	r0, fp
  401fb4:	f002 fd24 	bl	404a00 <memchr>
  401fb8:	2800      	cmp	r0, #0
  401fba:	f47f af7e 	bne.w	401eba <strstr+0x86>
  401fbe:	2f00      	cmp	r7, #0
  401fc0:	f43f af7b 	beq.w	401eba <strstr+0x86>
  401fc4:	4544      	cmp	r4, r8
  401fc6:	d915      	bls.n	401ff4 <strstr+0x1c0>
  401fc8:	eb08 0205 	add.w	r2, r8, r5
  401fcc:	f816 3008 	ldrb.w	r3, [r6, r8]
  401fd0:	f81b 0002 	ldrb.w	r0, [fp, r2]
  401fd4:	4298      	cmp	r0, r3
  401fd6:	445a      	add	r2, fp
  401fd8:	eb06 0108 	add.w	r1, r6, r8
  401fdc:	4643      	mov	r3, r8
  401fde:	d006      	beq.n	401fee <strstr+0x1ba>
  401fe0:	e023      	b.n	40202a <strstr+0x1f6>
  401fe2:	f811 ef01 	ldrb.w	lr, [r1, #1]!
  401fe6:	f812 0f01 	ldrb.w	r0, [r2, #1]!
  401fea:	4586      	cmp	lr, r0
  401fec:	d11d      	bne.n	40202a <strstr+0x1f6>
  401fee:	3301      	adds	r3, #1
  401ff0:	429c      	cmp	r4, r3
  401ff2:	d1f6      	bne.n	401fe2 <strstr+0x1ae>
  401ff4:	f1b9 3fff 	cmp.w	r9, #4294967295
  401ff8:	d012      	beq.n	402020 <strstr+0x1ec>
  401ffa:	eb05 0209 	add.w	r2, r5, r9
  401ffe:	f89a 3000 	ldrb.w	r3, [sl]
  402002:	f81b 1002 	ldrb.w	r1, [fp, r2]
  402006:	4299      	cmp	r1, r3
  402008:	445a      	add	r2, fp
  40200a:	d114      	bne.n	402036 <strstr+0x202>
  40200c:	4653      	mov	r3, sl
  40200e:	e005      	b.n	40201c <strstr+0x1e8>
  402010:	f813 0d01 	ldrb.w	r0, [r3, #-1]!
  402014:	f812 1d01 	ldrb.w	r1, [r2, #-1]!
  402018:	4288      	cmp	r0, r1
  40201a:	d10c      	bne.n	402036 <strstr+0x202>
  40201c:	42b3      	cmp	r3, r6
  40201e:	d1f7      	bne.n	402010 <strstr+0x1dc>
  402020:	465f      	mov	r7, fp
  402022:	1978      	adds	r0, r7, r5
  402024:	b005      	add	sp, #20
  402026:	e8bd 8ff0 	ldmia.w	sp!, {r4, r5, r6, r7, r8, r9, sl, fp, pc}
  40202a:	f1c8 0201 	rsb	r2, r8, #1
  40202e:	4415      	add	r5, r2
  402030:	441d      	add	r5, r3
  402032:	4638      	mov	r0, r7
  402034:	e7ba      	b.n	401fac <strstr+0x178>
  402036:	9b03      	ldr	r3, [sp, #12]
  402038:	4638      	mov	r0, r7
  40203a:	441d      	add	r5, r3
  40203c:	e7b6      	b.n	401fac <strstr+0x178>
  40203e:	780b      	ldrb	r3, [r1, #0]
  402040:	b913      	cbnz	r3, 402048 <strstr+0x214>
  402042:	4770      	bx	lr
  402044:	4641      	mov	r1, r8
  402046:	e790      	b.n	401f6a <strstr+0x136>
  402048:	2000      	movs	r0, #0
  40204a:	4770      	bx	lr

0040204c <_svfprintf_r>:
  40204c:	e92d 4ff0 	stmdb	sp!, {r4, r5, r6, r7, r8, r9, sl, fp, lr}
  402050:	b0c3      	sub	sp, #268	; 0x10c
  402052:	460c      	mov	r4, r1
  402054:	910b      	str	r1, [sp, #44]	; 0x2c
  402056:	4692      	mov	sl, r2
  402058:	930f      	str	r3, [sp, #60]	; 0x3c
  40205a:	900c      	str	r0, [sp, #48]	; 0x30
  40205c:	f002 fa0c 	bl	404478 <_localeconv_r>
  402060:	6803      	ldr	r3, [r0, #0]
  402062:	931a      	str	r3, [sp, #104]	; 0x68
  402064:	4618      	mov	r0, r3
  402066:	f003 f98b 	bl	405380 <strlen>
  40206a:	89a3      	ldrh	r3, [r4, #12]
  40206c:	9019      	str	r0, [sp, #100]	; 0x64
  40206e:	0619      	lsls	r1, r3, #24
  402070:	d503      	bpl.n	40207a <_svfprintf_r+0x2e>
  402072:	6923      	ldr	r3, [r4, #16]
  402074:	2b00      	cmp	r3, #0
  402076:	f001 8003 	beq.w	403080 <_svfprintf_r+0x1034>
  40207a:	2300      	movs	r3, #0
  40207c:	f10d 09c8 	add.w	r9, sp, #200	; 0xc8
  402080:	9313      	str	r3, [sp, #76]	; 0x4c
  402082:	9315      	str	r3, [sp, #84]	; 0x54
  402084:	9314      	str	r3, [sp, #80]	; 0x50
  402086:	9327      	str	r3, [sp, #156]	; 0x9c
  402088:	9326      	str	r3, [sp, #152]	; 0x98
  40208a:	9318      	str	r3, [sp, #96]	; 0x60
  40208c:	931b      	str	r3, [sp, #108]	; 0x6c
  40208e:	9309      	str	r3, [sp, #36]	; 0x24
  402090:	f8cd 9094 	str.w	r9, [sp, #148]	; 0x94
  402094:	46c8      	mov	r8, r9
  402096:	9316      	str	r3, [sp, #88]	; 0x58
  402098:	9317      	str	r3, [sp, #92]	; 0x5c
  40209a:	f89a 3000 	ldrb.w	r3, [sl]
  40209e:	4654      	mov	r4, sl
  4020a0:	b1e3      	cbz	r3, 4020dc <_svfprintf_r+0x90>
  4020a2:	2b25      	cmp	r3, #37	; 0x25
  4020a4:	d102      	bne.n	4020ac <_svfprintf_r+0x60>
  4020a6:	e019      	b.n	4020dc <_svfprintf_r+0x90>
  4020a8:	2b25      	cmp	r3, #37	; 0x25
  4020aa:	d003      	beq.n	4020b4 <_svfprintf_r+0x68>
  4020ac:	f814 3f01 	ldrb.w	r3, [r4, #1]!
  4020b0:	2b00      	cmp	r3, #0
  4020b2:	d1f9      	bne.n	4020a8 <_svfprintf_r+0x5c>
  4020b4:	eba4 050a 	sub.w	r5, r4, sl
  4020b8:	b185      	cbz	r5, 4020dc <_svfprintf_r+0x90>
  4020ba:	9b26      	ldr	r3, [sp, #152]	; 0x98
  4020bc:	9a27      	ldr	r2, [sp, #156]	; 0x9c
  4020be:	f8c8 a000 	str.w	sl, [r8]
  4020c2:	3301      	adds	r3, #1
  4020c4:	442a      	add	r2, r5
  4020c6:	2b07      	cmp	r3, #7
  4020c8:	f8c8 5004 	str.w	r5, [r8, #4]
  4020cc:	9227      	str	r2, [sp, #156]	; 0x9c
  4020ce:	9326      	str	r3, [sp, #152]	; 0x98
  4020d0:	dc7f      	bgt.n	4021d2 <_svfprintf_r+0x186>
  4020d2:	f108 0808 	add.w	r8, r8, #8
  4020d6:	9b09      	ldr	r3, [sp, #36]	; 0x24
  4020d8:	442b      	add	r3, r5
  4020da:	9309      	str	r3, [sp, #36]	; 0x24
  4020dc:	7823      	ldrb	r3, [r4, #0]
  4020de:	2b00      	cmp	r3, #0
  4020e0:	d07f      	beq.n	4021e2 <_svfprintf_r+0x196>
  4020e2:	2300      	movs	r3, #0
  4020e4:	461a      	mov	r2, r3
  4020e6:	f88d 3077 	strb.w	r3, [sp, #119]	; 0x77
  4020ea:	4619      	mov	r1, r3
  4020ec:	930d      	str	r3, [sp, #52]	; 0x34
  4020ee:	469b      	mov	fp, r3
  4020f0:	f04f 30ff 	mov.w	r0, #4294967295
  4020f4:	7863      	ldrb	r3, [r4, #1]
  4020f6:	900a      	str	r0, [sp, #40]	; 0x28
  4020f8:	f104 0a01 	add.w	sl, r4, #1
  4020fc:	f10a 0a01 	add.w	sl, sl, #1
  402100:	f1a3 0020 	sub.w	r0, r3, #32
  402104:	2858      	cmp	r0, #88	; 0x58
  402106:	f200 83c1 	bhi.w	40288c <_svfprintf_r+0x840>
  40210a:	e8df f010 	tbh	[pc, r0, lsl #1]
  40210e:	0238      	.short	0x0238
  402110:	03bf03bf 	.word	0x03bf03bf
  402114:	03bf0240 	.word	0x03bf0240
  402118:	03bf03bf 	.word	0x03bf03bf
  40211c:	03bf03bf 	.word	0x03bf03bf
  402120:	024503bf 	.word	0x024503bf
  402124:	03bf0203 	.word	0x03bf0203
  402128:	026b005d 	.word	0x026b005d
  40212c:	028603bf 	.word	0x028603bf
  402130:	039d039d 	.word	0x039d039d
  402134:	039d039d 	.word	0x039d039d
  402138:	039d039d 	.word	0x039d039d
  40213c:	039d039d 	.word	0x039d039d
  402140:	03bf039d 	.word	0x03bf039d
  402144:	03bf03bf 	.word	0x03bf03bf
  402148:	03bf03bf 	.word	0x03bf03bf
  40214c:	03bf03bf 	.word	0x03bf03bf
  402150:	03bf03bf 	.word	0x03bf03bf
  402154:	033703bf 	.word	0x033703bf
  402158:	03bf0357 	.word	0x03bf0357
  40215c:	03bf0357 	.word	0x03bf0357
  402160:	03bf03bf 	.word	0x03bf03bf
  402164:	039803bf 	.word	0x039803bf
  402168:	03bf03bf 	.word	0x03bf03bf
  40216c:	03bf03ad 	.word	0x03bf03ad
  402170:	03bf03bf 	.word	0x03bf03bf
  402174:	03bf03bf 	.word	0x03bf03bf
  402178:	03bf0259 	.word	0x03bf0259
  40217c:	031e03bf 	.word	0x031e03bf
  402180:	03bf03bf 	.word	0x03bf03bf
  402184:	03bf03bf 	.word	0x03bf03bf
  402188:	03bf03bf 	.word	0x03bf03bf
  40218c:	03bf03bf 	.word	0x03bf03bf
  402190:	03bf03bf 	.word	0x03bf03bf
  402194:	02db02c6 	.word	0x02db02c6
  402198:	03570357 	.word	0x03570357
  40219c:	028b0357 	.word	0x028b0357
  4021a0:	03bf02db 	.word	0x03bf02db
  4021a4:	029003bf 	.word	0x029003bf
  4021a8:	029d03bf 	.word	0x029d03bf
  4021ac:	02b401cc 	.word	0x02b401cc
  4021b0:	03bf0208 	.word	0x03bf0208
  4021b4:	03bf01e1 	.word	0x03bf01e1
  4021b8:	03bf007e 	.word	0x03bf007e
  4021bc:	020d03bf 	.word	0x020d03bf
  4021c0:	980d      	ldr	r0, [sp, #52]	; 0x34
  4021c2:	930f      	str	r3, [sp, #60]	; 0x3c
  4021c4:	4240      	negs	r0, r0
  4021c6:	900d      	str	r0, [sp, #52]	; 0x34
  4021c8:	f04b 0b04 	orr.w	fp, fp, #4
  4021cc:	f89a 3000 	ldrb.w	r3, [sl]
  4021d0:	e794      	b.n	4020fc <_svfprintf_r+0xb0>
  4021d2:	aa25      	add	r2, sp, #148	; 0x94
  4021d4:	990b      	ldr	r1, [sp, #44]	; 0x2c
  4021d6:	980c      	ldr	r0, [sp, #48]	; 0x30
  4021d8:	f003 f940 	bl	40545c <__ssprint_r>
  4021dc:	b940      	cbnz	r0, 4021f0 <_svfprintf_r+0x1a4>
  4021de:	46c8      	mov	r8, r9
  4021e0:	e779      	b.n	4020d6 <_svfprintf_r+0x8a>
  4021e2:	9b27      	ldr	r3, [sp, #156]	; 0x9c
  4021e4:	b123      	cbz	r3, 4021f0 <_svfprintf_r+0x1a4>
  4021e6:	980c      	ldr	r0, [sp, #48]	; 0x30
  4021e8:	990b      	ldr	r1, [sp, #44]	; 0x2c
  4021ea:	aa25      	add	r2, sp, #148	; 0x94
  4021ec:	f003 f936 	bl	40545c <__ssprint_r>
  4021f0:	9b0b      	ldr	r3, [sp, #44]	; 0x2c
  4021f2:	899b      	ldrh	r3, [r3, #12]
  4021f4:	f013 0f40 	tst.w	r3, #64	; 0x40
  4021f8:	9b09      	ldr	r3, [sp, #36]	; 0x24
  4021fa:	bf18      	it	ne
  4021fc:	f04f 33ff 	movne.w	r3, #4294967295
  402200:	9309      	str	r3, [sp, #36]	; 0x24
  402202:	9809      	ldr	r0, [sp, #36]	; 0x24
  402204:	b043      	add	sp, #268	; 0x10c
  402206:	e8bd 8ff0 	ldmia.w	sp!, {r4, r5, r6, r7, r8, r9, sl, fp, pc}
  40220a:	f01b 0f20 	tst.w	fp, #32
  40220e:	9311      	str	r3, [sp, #68]	; 0x44
  402210:	f040 81dd 	bne.w	4025ce <_svfprintf_r+0x582>
  402214:	9a0f      	ldr	r2, [sp, #60]	; 0x3c
  402216:	f01b 0f10 	tst.w	fp, #16
  40221a:	4613      	mov	r3, r2
  40221c:	f040 856e 	bne.w	402cfc <_svfprintf_r+0xcb0>
  402220:	f01b 0f40 	tst.w	fp, #64	; 0x40
  402224:	f000 856a 	beq.w	402cfc <_svfprintf_r+0xcb0>
  402228:	8814      	ldrh	r4, [r2, #0]
  40222a:	3204      	adds	r2, #4
  40222c:	2500      	movs	r5, #0
  40222e:	2301      	movs	r3, #1
  402230:	920f      	str	r2, [sp, #60]	; 0x3c
  402232:	2700      	movs	r7, #0
  402234:	f88d 7077 	strb.w	r7, [sp, #119]	; 0x77
  402238:	990a      	ldr	r1, [sp, #40]	; 0x28
  40223a:	1c4a      	adds	r2, r1, #1
  40223c:	f000 8265 	beq.w	40270a <_svfprintf_r+0x6be>
  402240:	f02b 0280 	bic.w	r2, fp, #128	; 0x80
  402244:	9207      	str	r2, [sp, #28]
  402246:	ea54 0205 	orrs.w	r2, r4, r5
  40224a:	f040 8264 	bne.w	402716 <_svfprintf_r+0x6ca>
  40224e:	2900      	cmp	r1, #0
  402250:	f040 843c 	bne.w	402acc <_svfprintf_r+0xa80>
  402254:	2b00      	cmp	r3, #0
  402256:	f040 84d7 	bne.w	402c08 <_svfprintf_r+0xbbc>
  40225a:	f01b 0301 	ands.w	r3, fp, #1
  40225e:	930e      	str	r3, [sp, #56]	; 0x38
  402260:	f000 8604 	beq.w	402e6c <_svfprintf_r+0xe20>
  402264:	ae42      	add	r6, sp, #264	; 0x108
  402266:	2330      	movs	r3, #48	; 0x30
  402268:	f806 3d41 	strb.w	r3, [r6, #-65]!
  40226c:	9b0a      	ldr	r3, [sp, #40]	; 0x28
  40226e:	9a0e      	ldr	r2, [sp, #56]	; 0x38
  402270:	4293      	cmp	r3, r2
  402272:	bfb8      	it	lt
  402274:	4613      	movlt	r3, r2
  402276:	9308      	str	r3, [sp, #32]
  402278:	2300      	movs	r3, #0
  40227a:	9312      	str	r3, [sp, #72]	; 0x48
  40227c:	b117      	cbz	r7, 402284 <_svfprintf_r+0x238>
  40227e:	9b08      	ldr	r3, [sp, #32]
  402280:	3301      	adds	r3, #1
  402282:	9308      	str	r3, [sp, #32]
  402284:	9b07      	ldr	r3, [sp, #28]
  402286:	f013 0302 	ands.w	r3, r3, #2
  40228a:	9310      	str	r3, [sp, #64]	; 0x40
  40228c:	d002      	beq.n	402294 <_svfprintf_r+0x248>
  40228e:	9b08      	ldr	r3, [sp, #32]
  402290:	3302      	adds	r3, #2
  402292:	9308      	str	r3, [sp, #32]
  402294:	9b07      	ldr	r3, [sp, #28]
  402296:	f013 0584 	ands.w	r5, r3, #132	; 0x84
  40229a:	f040 830e 	bne.w	4028ba <_svfprintf_r+0x86e>
  40229e:	9b0d      	ldr	r3, [sp, #52]	; 0x34
  4022a0:	9a08      	ldr	r2, [sp, #32]
  4022a2:	eba3 0b02 	sub.w	fp, r3, r2
  4022a6:	f1bb 0f00 	cmp.w	fp, #0
  4022aa:	f340 8306 	ble.w	4028ba <_svfprintf_r+0x86e>
  4022ae:	f1bb 0f10 	cmp.w	fp, #16
  4022b2:	9c27      	ldr	r4, [sp, #156]	; 0x9c
  4022b4:	9a26      	ldr	r2, [sp, #152]	; 0x98
  4022b6:	dd29      	ble.n	40230c <_svfprintf_r+0x2c0>
  4022b8:	4643      	mov	r3, r8
  4022ba:	4621      	mov	r1, r4
  4022bc:	46a8      	mov	r8, r5
  4022be:	2710      	movs	r7, #16
  4022c0:	9c0c      	ldr	r4, [sp, #48]	; 0x30
  4022c2:	9d0b      	ldr	r5, [sp, #44]	; 0x2c
  4022c4:	e006      	b.n	4022d4 <_svfprintf_r+0x288>
  4022c6:	f1ab 0b10 	sub.w	fp, fp, #16
  4022ca:	f1bb 0f10 	cmp.w	fp, #16
  4022ce:	f103 0308 	add.w	r3, r3, #8
  4022d2:	dd18      	ble.n	402306 <_svfprintf_r+0x2ba>
  4022d4:	3201      	adds	r2, #1
  4022d6:	48b7      	ldr	r0, [pc, #732]	; (4025b4 <_svfprintf_r+0x568>)
  4022d8:	9226      	str	r2, [sp, #152]	; 0x98
  4022da:	3110      	adds	r1, #16
  4022dc:	2a07      	cmp	r2, #7
  4022de:	9127      	str	r1, [sp, #156]	; 0x9c
  4022e0:	e883 0081 	stmia.w	r3, {r0, r7}
  4022e4:	ddef      	ble.n	4022c6 <_svfprintf_r+0x27a>
  4022e6:	aa25      	add	r2, sp, #148	; 0x94
  4022e8:	4629      	mov	r1, r5
  4022ea:	4620      	mov	r0, r4
  4022ec:	f003 f8b6 	bl	40545c <__ssprint_r>
  4022f0:	2800      	cmp	r0, #0
  4022f2:	f47f af7d 	bne.w	4021f0 <_svfprintf_r+0x1a4>
  4022f6:	f1ab 0b10 	sub.w	fp, fp, #16
  4022fa:	f1bb 0f10 	cmp.w	fp, #16
  4022fe:	9927      	ldr	r1, [sp, #156]	; 0x9c
  402300:	9a26      	ldr	r2, [sp, #152]	; 0x98
  402302:	464b      	mov	r3, r9
  402304:	dce6      	bgt.n	4022d4 <_svfprintf_r+0x288>
  402306:	4645      	mov	r5, r8
  402308:	460c      	mov	r4, r1
  40230a:	4698      	mov	r8, r3
  40230c:	3201      	adds	r2, #1
  40230e:	4ba9      	ldr	r3, [pc, #676]	; (4025b4 <_svfprintf_r+0x568>)
  402310:	9226      	str	r2, [sp, #152]	; 0x98
  402312:	445c      	add	r4, fp
  402314:	2a07      	cmp	r2, #7
  402316:	9427      	str	r4, [sp, #156]	; 0x9c
  402318:	e888 0808 	stmia.w	r8, {r3, fp}
  40231c:	f300 8498 	bgt.w	402c50 <_svfprintf_r+0xc04>
  402320:	f89d 7077 	ldrb.w	r7, [sp, #119]	; 0x77
  402324:	f108 0808 	add.w	r8, r8, #8
  402328:	b177      	cbz	r7, 402348 <_svfprintf_r+0x2fc>
  40232a:	9b26      	ldr	r3, [sp, #152]	; 0x98
  40232c:	3301      	adds	r3, #1
  40232e:	3401      	adds	r4, #1
  402330:	f10d 0177 	add.w	r1, sp, #119	; 0x77
  402334:	2201      	movs	r2, #1
  402336:	2b07      	cmp	r3, #7
  402338:	9427      	str	r4, [sp, #156]	; 0x9c
  40233a:	9326      	str	r3, [sp, #152]	; 0x98
  40233c:	e888 0006 	stmia.w	r8, {r1, r2}
  402340:	f300 83db 	bgt.w	402afa <_svfprintf_r+0xaae>
  402344:	f108 0808 	add.w	r8, r8, #8
  402348:	9b10      	ldr	r3, [sp, #64]	; 0x40
  40234a:	b16b      	cbz	r3, 402368 <_svfprintf_r+0x31c>
  40234c:	9b26      	ldr	r3, [sp, #152]	; 0x98
  40234e:	3301      	adds	r3, #1
  402350:	3402      	adds	r4, #2
  402352:	a91e      	add	r1, sp, #120	; 0x78
  402354:	2202      	movs	r2, #2
  402356:	2b07      	cmp	r3, #7
  402358:	9427      	str	r4, [sp, #156]	; 0x9c
  40235a:	9326      	str	r3, [sp, #152]	; 0x98
  40235c:	e888 0006 	stmia.w	r8, {r1, r2}
  402360:	f300 83d6 	bgt.w	402b10 <_svfprintf_r+0xac4>
  402364:	f108 0808 	add.w	r8, r8, #8
  402368:	2d80      	cmp	r5, #128	; 0x80
  40236a:	f000 8315 	beq.w	402998 <_svfprintf_r+0x94c>
  40236e:	9b0a      	ldr	r3, [sp, #40]	; 0x28
  402370:	9a0e      	ldr	r2, [sp, #56]	; 0x38
  402372:	1a9f      	subs	r7, r3, r2
  402374:	2f00      	cmp	r7, #0
  402376:	dd36      	ble.n	4023e6 <_svfprintf_r+0x39a>
  402378:	2f10      	cmp	r7, #16
  40237a:	9b26      	ldr	r3, [sp, #152]	; 0x98
  40237c:	4d8e      	ldr	r5, [pc, #568]	; (4025b8 <_svfprintf_r+0x56c>)
  40237e:	dd27      	ble.n	4023d0 <_svfprintf_r+0x384>
  402380:	4642      	mov	r2, r8
  402382:	4621      	mov	r1, r4
  402384:	46b0      	mov	r8, r6
  402386:	f04f 0b10 	mov.w	fp, #16
  40238a:	462e      	mov	r6, r5
  40238c:	9c0c      	ldr	r4, [sp, #48]	; 0x30
  40238e:	9d0b      	ldr	r5, [sp, #44]	; 0x2c
  402390:	e004      	b.n	40239c <_svfprintf_r+0x350>
  402392:	3f10      	subs	r7, #16
  402394:	2f10      	cmp	r7, #16
  402396:	f102 0208 	add.w	r2, r2, #8
  40239a:	dd15      	ble.n	4023c8 <_svfprintf_r+0x37c>
  40239c:	3301      	adds	r3, #1
  40239e:	3110      	adds	r1, #16
  4023a0:	2b07      	cmp	r3, #7
  4023a2:	9127      	str	r1, [sp, #156]	; 0x9c
  4023a4:	9326      	str	r3, [sp, #152]	; 0x98
  4023a6:	e882 0840 	stmia.w	r2, {r6, fp}
  4023aa:	ddf2      	ble.n	402392 <_svfprintf_r+0x346>
  4023ac:	aa25      	add	r2, sp, #148	; 0x94
  4023ae:	4629      	mov	r1, r5
  4023b0:	4620      	mov	r0, r4
  4023b2:	f003 f853 	bl	40545c <__ssprint_r>
  4023b6:	2800      	cmp	r0, #0
  4023b8:	f47f af1a 	bne.w	4021f0 <_svfprintf_r+0x1a4>
  4023bc:	3f10      	subs	r7, #16
  4023be:	2f10      	cmp	r7, #16
  4023c0:	9927      	ldr	r1, [sp, #156]	; 0x9c
  4023c2:	9b26      	ldr	r3, [sp, #152]	; 0x98
  4023c4:	464a      	mov	r2, r9
  4023c6:	dce9      	bgt.n	40239c <_svfprintf_r+0x350>
  4023c8:	4635      	mov	r5, r6
  4023ca:	460c      	mov	r4, r1
  4023cc:	4646      	mov	r6, r8
  4023ce:	4690      	mov	r8, r2
  4023d0:	3301      	adds	r3, #1
  4023d2:	443c      	add	r4, r7
  4023d4:	2b07      	cmp	r3, #7
  4023d6:	9427      	str	r4, [sp, #156]	; 0x9c
  4023d8:	9326      	str	r3, [sp, #152]	; 0x98
  4023da:	e888 00a0 	stmia.w	r8, {r5, r7}
  4023de:	f300 8381 	bgt.w	402ae4 <_svfprintf_r+0xa98>
  4023e2:	f108 0808 	add.w	r8, r8, #8
  4023e6:	9b07      	ldr	r3, [sp, #28]
  4023e8:	05df      	lsls	r7, r3, #23
  4023ea:	f100 8268 	bmi.w	4028be <_svfprintf_r+0x872>
  4023ee:	9b26      	ldr	r3, [sp, #152]	; 0x98
  4023f0:	990e      	ldr	r1, [sp, #56]	; 0x38
  4023f2:	f8c8 6000 	str.w	r6, [r8]
  4023f6:	3301      	adds	r3, #1
  4023f8:	440c      	add	r4, r1
  4023fa:	2b07      	cmp	r3, #7
  4023fc:	9427      	str	r4, [sp, #156]	; 0x9c
  4023fe:	f8c8 1004 	str.w	r1, [r8, #4]
  402402:	9326      	str	r3, [sp, #152]	; 0x98
  402404:	f300 834d 	bgt.w	402aa2 <_svfprintf_r+0xa56>
  402408:	f108 0808 	add.w	r8, r8, #8
  40240c:	9b07      	ldr	r3, [sp, #28]
  40240e:	075b      	lsls	r3, r3, #29
  402410:	d53a      	bpl.n	402488 <_svfprintf_r+0x43c>
  402412:	9b0d      	ldr	r3, [sp, #52]	; 0x34
  402414:	9a08      	ldr	r2, [sp, #32]
  402416:	1a9d      	subs	r5, r3, r2
  402418:	2d00      	cmp	r5, #0
  40241a:	dd35      	ble.n	402488 <_svfprintf_r+0x43c>
  40241c:	2d10      	cmp	r5, #16
  40241e:	9b26      	ldr	r3, [sp, #152]	; 0x98
  402420:	dd20      	ble.n	402464 <_svfprintf_r+0x418>
  402422:	2610      	movs	r6, #16
  402424:	9f0c      	ldr	r7, [sp, #48]	; 0x30
  402426:	f8dd b02c 	ldr.w	fp, [sp, #44]	; 0x2c
  40242a:	e004      	b.n	402436 <_svfprintf_r+0x3ea>
  40242c:	3d10      	subs	r5, #16
  40242e:	2d10      	cmp	r5, #16
  402430:	f108 0808 	add.w	r8, r8, #8
  402434:	dd16      	ble.n	402464 <_svfprintf_r+0x418>
  402436:	3301      	adds	r3, #1
  402438:	4a5e      	ldr	r2, [pc, #376]	; (4025b4 <_svfprintf_r+0x568>)
  40243a:	9326      	str	r3, [sp, #152]	; 0x98
  40243c:	3410      	adds	r4, #16
  40243e:	2b07      	cmp	r3, #7
  402440:	9427      	str	r4, [sp, #156]	; 0x9c
  402442:	e888 0044 	stmia.w	r8, {r2, r6}
  402446:	ddf1      	ble.n	40242c <_svfprintf_r+0x3e0>
  402448:	aa25      	add	r2, sp, #148	; 0x94
  40244a:	4659      	mov	r1, fp
  40244c:	4638      	mov	r0, r7
  40244e:	f003 f805 	bl	40545c <__ssprint_r>
  402452:	2800      	cmp	r0, #0
  402454:	f47f aecc 	bne.w	4021f0 <_svfprintf_r+0x1a4>
  402458:	3d10      	subs	r5, #16
  40245a:	2d10      	cmp	r5, #16
  40245c:	9c27      	ldr	r4, [sp, #156]	; 0x9c
  40245e:	9b26      	ldr	r3, [sp, #152]	; 0x98
  402460:	46c8      	mov	r8, r9
  402462:	dce8      	bgt.n	402436 <_svfprintf_r+0x3ea>
  402464:	3301      	adds	r3, #1
  402466:	4a53      	ldr	r2, [pc, #332]	; (4025b4 <_svfprintf_r+0x568>)
  402468:	9326      	str	r3, [sp, #152]	; 0x98
  40246a:	442c      	add	r4, r5
  40246c:	2b07      	cmp	r3, #7
  40246e:	9427      	str	r4, [sp, #156]	; 0x9c
  402470:	e888 0024 	stmia.w	r8, {r2, r5}
  402474:	dd08      	ble.n	402488 <_svfprintf_r+0x43c>
  402476:	aa25      	add	r2, sp, #148	; 0x94
  402478:	990b      	ldr	r1, [sp, #44]	; 0x2c
  40247a:	980c      	ldr	r0, [sp, #48]	; 0x30
  40247c:	f002 ffee 	bl	40545c <__ssprint_r>
  402480:	2800      	cmp	r0, #0
  402482:	f47f aeb5 	bne.w	4021f0 <_svfprintf_r+0x1a4>
  402486:	9c27      	ldr	r4, [sp, #156]	; 0x9c
  402488:	9b09      	ldr	r3, [sp, #36]	; 0x24
  40248a:	9a0d      	ldr	r2, [sp, #52]	; 0x34
  40248c:	9908      	ldr	r1, [sp, #32]
  40248e:	428a      	cmp	r2, r1
  402490:	bfac      	ite	ge
  402492:	189b      	addge	r3, r3, r2
  402494:	185b      	addlt	r3, r3, r1
  402496:	9309      	str	r3, [sp, #36]	; 0x24
  402498:	2c00      	cmp	r4, #0
  40249a:	f040 830d 	bne.w	402ab8 <_svfprintf_r+0xa6c>
  40249e:	2300      	movs	r3, #0
  4024a0:	9326      	str	r3, [sp, #152]	; 0x98
  4024a2:	46c8      	mov	r8, r9
  4024a4:	e5f9      	b.n	40209a <_svfprintf_r+0x4e>
  4024a6:	9311      	str	r3, [sp, #68]	; 0x44
  4024a8:	f01b 0320 	ands.w	r3, fp, #32
  4024ac:	f040 81e3 	bne.w	402876 <_svfprintf_r+0x82a>
  4024b0:	f01b 0210 	ands.w	r2, fp, #16
  4024b4:	f040 842e 	bne.w	402d14 <_svfprintf_r+0xcc8>
  4024b8:	f01b 0340 	ands.w	r3, fp, #64	; 0x40
  4024bc:	f000 842a 	beq.w	402d14 <_svfprintf_r+0xcc8>
  4024c0:	990f      	ldr	r1, [sp, #60]	; 0x3c
  4024c2:	4613      	mov	r3, r2
  4024c4:	460a      	mov	r2, r1
  4024c6:	3204      	adds	r2, #4
  4024c8:	880c      	ldrh	r4, [r1, #0]
  4024ca:	920f      	str	r2, [sp, #60]	; 0x3c
  4024cc:	2500      	movs	r5, #0
  4024ce:	e6b0      	b.n	402232 <_svfprintf_r+0x1e6>
  4024d0:	9a0f      	ldr	r2, [sp, #60]	; 0x3c
  4024d2:	9311      	str	r3, [sp, #68]	; 0x44
  4024d4:	6816      	ldr	r6, [r2, #0]
  4024d6:	2400      	movs	r4, #0
  4024d8:	f88d 4077 	strb.w	r4, [sp, #119]	; 0x77
  4024dc:	1d15      	adds	r5, r2, #4
  4024de:	2e00      	cmp	r6, #0
  4024e0:	f000 86a7 	beq.w	403232 <_svfprintf_r+0x11e6>
  4024e4:	9a0a      	ldr	r2, [sp, #40]	; 0x28
  4024e6:	1c53      	adds	r3, r2, #1
  4024e8:	f000 8609 	beq.w	4030fe <_svfprintf_r+0x10b2>
  4024ec:	4621      	mov	r1, r4
  4024ee:	4630      	mov	r0, r6
  4024f0:	f002 fa86 	bl	404a00 <memchr>
  4024f4:	2800      	cmp	r0, #0
  4024f6:	f000 86e1 	beq.w	4032bc <_svfprintf_r+0x1270>
  4024fa:	1b83      	subs	r3, r0, r6
  4024fc:	930e      	str	r3, [sp, #56]	; 0x38
  4024fe:	940a      	str	r4, [sp, #40]	; 0x28
  402500:	950f      	str	r5, [sp, #60]	; 0x3c
  402502:	f8cd b01c 	str.w	fp, [sp, #28]
  402506:	ea23 73e3 	bic.w	r3, r3, r3, asr #31
  40250a:	9308      	str	r3, [sp, #32]
  40250c:	9412      	str	r4, [sp, #72]	; 0x48
  40250e:	f89d 7077 	ldrb.w	r7, [sp, #119]	; 0x77
  402512:	e6b3      	b.n	40227c <_svfprintf_r+0x230>
  402514:	f89a 3000 	ldrb.w	r3, [sl]
  402518:	2201      	movs	r2, #1
  40251a:	212b      	movs	r1, #43	; 0x2b
  40251c:	e5ee      	b.n	4020fc <_svfprintf_r+0xb0>
  40251e:	f04b 0b20 	orr.w	fp, fp, #32
  402522:	f89a 3000 	ldrb.w	r3, [sl]
  402526:	e5e9      	b.n	4020fc <_svfprintf_r+0xb0>
  402528:	9311      	str	r3, [sp, #68]	; 0x44
  40252a:	2a00      	cmp	r2, #0
  40252c:	f040 8795 	bne.w	40345a <_svfprintf_r+0x140e>
  402530:	4b22      	ldr	r3, [pc, #136]	; (4025bc <_svfprintf_r+0x570>)
  402532:	9318      	str	r3, [sp, #96]	; 0x60
  402534:	f01b 0f20 	tst.w	fp, #32
  402538:	f040 8111 	bne.w	40275e <_svfprintf_r+0x712>
  40253c:	9a0f      	ldr	r2, [sp, #60]	; 0x3c
  40253e:	f01b 0f10 	tst.w	fp, #16
  402542:	4613      	mov	r3, r2
  402544:	f040 83e1 	bne.w	402d0a <_svfprintf_r+0xcbe>
  402548:	f01b 0f40 	tst.w	fp, #64	; 0x40
  40254c:	f000 83dd 	beq.w	402d0a <_svfprintf_r+0xcbe>
  402550:	3304      	adds	r3, #4
  402552:	8814      	ldrh	r4, [r2, #0]
  402554:	930f      	str	r3, [sp, #60]	; 0x3c
  402556:	2500      	movs	r5, #0
  402558:	f01b 0f01 	tst.w	fp, #1
  40255c:	f000 810c 	beq.w	402778 <_svfprintf_r+0x72c>
  402560:	ea54 0305 	orrs.w	r3, r4, r5
  402564:	f000 8108 	beq.w	402778 <_svfprintf_r+0x72c>
  402568:	2330      	movs	r3, #48	; 0x30
  40256a:	f89d 2044 	ldrb.w	r2, [sp, #68]	; 0x44
  40256e:	f88d 3078 	strb.w	r3, [sp, #120]	; 0x78
  402572:	f88d 2079 	strb.w	r2, [sp, #121]	; 0x79
  402576:	f04b 0b02 	orr.w	fp, fp, #2
  40257a:	2302      	movs	r3, #2
  40257c:	e659      	b.n	402232 <_svfprintf_r+0x1e6>
  40257e:	f89a 3000 	ldrb.w	r3, [sl]
  402582:	2900      	cmp	r1, #0
  402584:	f47f adba 	bne.w	4020fc <_svfprintf_r+0xb0>
  402588:	2201      	movs	r2, #1
  40258a:	2120      	movs	r1, #32
  40258c:	e5b6      	b.n	4020fc <_svfprintf_r+0xb0>
  40258e:	f04b 0b01 	orr.w	fp, fp, #1
  402592:	f89a 3000 	ldrb.w	r3, [sl]
  402596:	e5b1      	b.n	4020fc <_svfprintf_r+0xb0>
  402598:	9c0f      	ldr	r4, [sp, #60]	; 0x3c
  40259a:	6823      	ldr	r3, [r4, #0]
  40259c:	930d      	str	r3, [sp, #52]	; 0x34
  40259e:	4618      	mov	r0, r3
  4025a0:	2800      	cmp	r0, #0
  4025a2:	4623      	mov	r3, r4
  4025a4:	f103 0304 	add.w	r3, r3, #4
  4025a8:	f6ff ae0a 	blt.w	4021c0 <_svfprintf_r+0x174>
  4025ac:	930f      	str	r3, [sp, #60]	; 0x3c
  4025ae:	f89a 3000 	ldrb.w	r3, [sl]
  4025b2:	e5a3      	b.n	4020fc <_svfprintf_r+0xb0>
  4025b4:	004076b0 	.word	0x004076b0
  4025b8:	004076c0 	.word	0x004076c0
  4025bc:	00407690 	.word	0x00407690
  4025c0:	f04b 0b10 	orr.w	fp, fp, #16
  4025c4:	f01b 0f20 	tst.w	fp, #32
  4025c8:	9311      	str	r3, [sp, #68]	; 0x44
  4025ca:	f43f ae23 	beq.w	402214 <_svfprintf_r+0x1c8>
  4025ce:	9d0f      	ldr	r5, [sp, #60]	; 0x3c
  4025d0:	3507      	adds	r5, #7
  4025d2:	f025 0307 	bic.w	r3, r5, #7
  4025d6:	f103 0208 	add.w	r2, r3, #8
  4025da:	e9d3 4500 	ldrd	r4, r5, [r3]
  4025de:	920f      	str	r2, [sp, #60]	; 0x3c
  4025e0:	2301      	movs	r3, #1
  4025e2:	e626      	b.n	402232 <_svfprintf_r+0x1e6>
  4025e4:	f89a 3000 	ldrb.w	r3, [sl]
  4025e8:	2b2a      	cmp	r3, #42	; 0x2a
  4025ea:	f10a 0401 	add.w	r4, sl, #1
  4025ee:	f000 8727 	beq.w	403440 <_svfprintf_r+0x13f4>
  4025f2:	f1a3 0030 	sub.w	r0, r3, #48	; 0x30
  4025f6:	2809      	cmp	r0, #9
  4025f8:	46a2      	mov	sl, r4
  4025fa:	f200 86ad 	bhi.w	403358 <_svfprintf_r+0x130c>
  4025fe:	2300      	movs	r3, #0
  402600:	461c      	mov	r4, r3
  402602:	f81a 3b01 	ldrb.w	r3, [sl], #1
  402606:	eb04 0484 	add.w	r4, r4, r4, lsl #2
  40260a:	eb00 0444 	add.w	r4, r0, r4, lsl #1
  40260e:	f1a3 0030 	sub.w	r0, r3, #48	; 0x30
  402612:	2809      	cmp	r0, #9
  402614:	d9f5      	bls.n	402602 <_svfprintf_r+0x5b6>
  402616:	940a      	str	r4, [sp, #40]	; 0x28
  402618:	e572      	b.n	402100 <_svfprintf_r+0xb4>
  40261a:	f04b 0b80 	orr.w	fp, fp, #128	; 0x80
  40261e:	f89a 3000 	ldrb.w	r3, [sl]
  402622:	e56b      	b.n	4020fc <_svfprintf_r+0xb0>
  402624:	f04b 0b40 	orr.w	fp, fp, #64	; 0x40
  402628:	f89a 3000 	ldrb.w	r3, [sl]
  40262c:	e566      	b.n	4020fc <_svfprintf_r+0xb0>
  40262e:	f89a 3000 	ldrb.w	r3, [sl]
  402632:	2b6c      	cmp	r3, #108	; 0x6c
  402634:	bf03      	ittte	eq
  402636:	f89a 3001 	ldrbeq.w	r3, [sl, #1]
  40263a:	f04b 0b20 	orreq.w	fp, fp, #32
  40263e:	f10a 0a01 	addeq.w	sl, sl, #1
  402642:	f04b 0b10 	orrne.w	fp, fp, #16
  402646:	e559      	b.n	4020fc <_svfprintf_r+0xb0>
  402648:	2a00      	cmp	r2, #0
  40264a:	f040 8711 	bne.w	403470 <_svfprintf_r+0x1424>
  40264e:	f01b 0f20 	tst.w	fp, #32
  402652:	f040 84f9 	bne.w	403048 <_svfprintf_r+0xffc>
  402656:	f01b 0f10 	tst.w	fp, #16
  40265a:	f040 84ac 	bne.w	402fb6 <_svfprintf_r+0xf6a>
  40265e:	f01b 0f40 	tst.w	fp, #64	; 0x40
  402662:	f000 84a8 	beq.w	402fb6 <_svfprintf_r+0xf6a>
  402666:	9a0f      	ldr	r2, [sp, #60]	; 0x3c
  402668:	6813      	ldr	r3, [r2, #0]
  40266a:	3204      	adds	r2, #4
  40266c:	920f      	str	r2, [sp, #60]	; 0x3c
  40266e:	f8bd 2024 	ldrh.w	r2, [sp, #36]	; 0x24
  402672:	801a      	strh	r2, [r3, #0]
  402674:	e511      	b.n	40209a <_svfprintf_r+0x4e>
  402676:	990f      	ldr	r1, [sp, #60]	; 0x3c
  402678:	4bb3      	ldr	r3, [pc, #716]	; (402948 <_svfprintf_r+0x8fc>)
  40267a:	680c      	ldr	r4, [r1, #0]
  40267c:	9318      	str	r3, [sp, #96]	; 0x60
  40267e:	2230      	movs	r2, #48	; 0x30
  402680:	2378      	movs	r3, #120	; 0x78
  402682:	3104      	adds	r1, #4
  402684:	f88d 3079 	strb.w	r3, [sp, #121]	; 0x79
  402688:	9311      	str	r3, [sp, #68]	; 0x44
  40268a:	f04b 0b02 	orr.w	fp, fp, #2
  40268e:	910f      	str	r1, [sp, #60]	; 0x3c
  402690:	2500      	movs	r5, #0
  402692:	f88d 2078 	strb.w	r2, [sp, #120]	; 0x78
  402696:	2302      	movs	r3, #2
  402698:	e5cb      	b.n	402232 <_svfprintf_r+0x1e6>
  40269a:	990f      	ldr	r1, [sp, #60]	; 0x3c
  40269c:	9311      	str	r3, [sp, #68]	; 0x44
  40269e:	680a      	ldr	r2, [r1, #0]
  4026a0:	f88d 20a0 	strb.w	r2, [sp, #160]	; 0xa0
  4026a4:	2300      	movs	r3, #0
  4026a6:	460a      	mov	r2, r1
  4026a8:	461f      	mov	r7, r3
  4026aa:	f88d 3077 	strb.w	r3, [sp, #119]	; 0x77
  4026ae:	3204      	adds	r2, #4
  4026b0:	2301      	movs	r3, #1
  4026b2:	9308      	str	r3, [sp, #32]
  4026b4:	f8cd b01c 	str.w	fp, [sp, #28]
  4026b8:	970a      	str	r7, [sp, #40]	; 0x28
  4026ba:	9712      	str	r7, [sp, #72]	; 0x48
  4026bc:	920f      	str	r2, [sp, #60]	; 0x3c
  4026be:	930e      	str	r3, [sp, #56]	; 0x38
  4026c0:	ae28      	add	r6, sp, #160	; 0xa0
  4026c2:	e5df      	b.n	402284 <_svfprintf_r+0x238>
  4026c4:	9311      	str	r3, [sp, #68]	; 0x44
  4026c6:	2a00      	cmp	r2, #0
  4026c8:	f040 86ea 	bne.w	4034a0 <_svfprintf_r+0x1454>
  4026cc:	f01b 0f20 	tst.w	fp, #32
  4026d0:	d15d      	bne.n	40278e <_svfprintf_r+0x742>
  4026d2:	f01b 0f10 	tst.w	fp, #16
  4026d6:	f040 8308 	bne.w	402cea <_svfprintf_r+0xc9e>
  4026da:	f01b 0f40 	tst.w	fp, #64	; 0x40
  4026de:	f000 8304 	beq.w	402cea <_svfprintf_r+0xc9e>
  4026e2:	990f      	ldr	r1, [sp, #60]	; 0x3c
  4026e4:	f9b1 4000 	ldrsh.w	r4, [r1]
  4026e8:	3104      	adds	r1, #4
  4026ea:	17e5      	asrs	r5, r4, #31
  4026ec:	4622      	mov	r2, r4
  4026ee:	462b      	mov	r3, r5
  4026f0:	910f      	str	r1, [sp, #60]	; 0x3c
  4026f2:	2a00      	cmp	r2, #0
  4026f4:	f173 0300 	sbcs.w	r3, r3, #0
  4026f8:	db58      	blt.n	4027ac <_svfprintf_r+0x760>
  4026fa:	990a      	ldr	r1, [sp, #40]	; 0x28
  4026fc:	f89d 7077 	ldrb.w	r7, [sp, #119]	; 0x77
  402700:	1c4a      	adds	r2, r1, #1
  402702:	f04f 0301 	mov.w	r3, #1
  402706:	f47f ad9b 	bne.w	402240 <_svfprintf_r+0x1f4>
  40270a:	ea54 0205 	orrs.w	r2, r4, r5
  40270e:	f000 81df 	beq.w	402ad0 <_svfprintf_r+0xa84>
  402712:	f8cd b01c 	str.w	fp, [sp, #28]
  402716:	2b01      	cmp	r3, #1
  402718:	f000 827b 	beq.w	402c12 <_svfprintf_r+0xbc6>
  40271c:	2b02      	cmp	r3, #2
  40271e:	f040 8206 	bne.w	402b2e <_svfprintf_r+0xae2>
  402722:	9818      	ldr	r0, [sp, #96]	; 0x60
  402724:	464e      	mov	r6, r9
  402726:	0923      	lsrs	r3, r4, #4
  402728:	f004 010f 	and.w	r1, r4, #15
  40272c:	ea43 7305 	orr.w	r3, r3, r5, lsl #28
  402730:	092a      	lsrs	r2, r5, #4
  402732:	461c      	mov	r4, r3
  402734:	4615      	mov	r5, r2
  402736:	5c43      	ldrb	r3, [r0, r1]
  402738:	f806 3d01 	strb.w	r3, [r6, #-1]!
  40273c:	ea54 0305 	orrs.w	r3, r4, r5
  402740:	d1f1      	bne.n	402726 <_svfprintf_r+0x6da>
  402742:	eba9 0306 	sub.w	r3, r9, r6
  402746:	930e      	str	r3, [sp, #56]	; 0x38
  402748:	e590      	b.n	40226c <_svfprintf_r+0x220>
  40274a:	9311      	str	r3, [sp, #68]	; 0x44
  40274c:	2a00      	cmp	r2, #0
  40274e:	f040 86a3 	bne.w	403498 <_svfprintf_r+0x144c>
  402752:	4b7e      	ldr	r3, [pc, #504]	; (40294c <_svfprintf_r+0x900>)
  402754:	9318      	str	r3, [sp, #96]	; 0x60
  402756:	f01b 0f20 	tst.w	fp, #32
  40275a:	f43f aeef 	beq.w	40253c <_svfprintf_r+0x4f0>
  40275e:	9d0f      	ldr	r5, [sp, #60]	; 0x3c
  402760:	3507      	adds	r5, #7
  402762:	f025 0307 	bic.w	r3, r5, #7
  402766:	f103 0208 	add.w	r2, r3, #8
  40276a:	f01b 0f01 	tst.w	fp, #1
  40276e:	920f      	str	r2, [sp, #60]	; 0x3c
  402770:	e9d3 4500 	ldrd	r4, r5, [r3]
  402774:	f47f aef4 	bne.w	402560 <_svfprintf_r+0x514>
  402778:	2302      	movs	r3, #2
  40277a:	e55a      	b.n	402232 <_svfprintf_r+0x1e6>
  40277c:	9311      	str	r3, [sp, #68]	; 0x44
  40277e:	2a00      	cmp	r2, #0
  402780:	f040 8686 	bne.w	403490 <_svfprintf_r+0x1444>
  402784:	f04b 0b10 	orr.w	fp, fp, #16
  402788:	f01b 0f20 	tst.w	fp, #32
  40278c:	d0a1      	beq.n	4026d2 <_svfprintf_r+0x686>
  40278e:	9d0f      	ldr	r5, [sp, #60]	; 0x3c
  402790:	3507      	adds	r5, #7
  402792:	f025 0507 	bic.w	r5, r5, #7
  402796:	e9d5 2300 	ldrd	r2, r3, [r5]
  40279a:	2a00      	cmp	r2, #0
  40279c:	f105 0108 	add.w	r1, r5, #8
  4027a0:	461d      	mov	r5, r3
  4027a2:	f173 0300 	sbcs.w	r3, r3, #0
  4027a6:	910f      	str	r1, [sp, #60]	; 0x3c
  4027a8:	4614      	mov	r4, r2
  4027aa:	daa6      	bge.n	4026fa <_svfprintf_r+0x6ae>
  4027ac:	272d      	movs	r7, #45	; 0x2d
  4027ae:	4264      	negs	r4, r4
  4027b0:	eb65 0545 	sbc.w	r5, r5, r5, lsl #1
  4027b4:	f88d 7077 	strb.w	r7, [sp, #119]	; 0x77
  4027b8:	2301      	movs	r3, #1
  4027ba:	e53d      	b.n	402238 <_svfprintf_r+0x1ec>
  4027bc:	9311      	str	r3, [sp, #68]	; 0x44
  4027be:	2a00      	cmp	r2, #0
  4027c0:	f040 8662 	bne.w	403488 <_svfprintf_r+0x143c>
  4027c4:	9d0f      	ldr	r5, [sp, #60]	; 0x3c
  4027c6:	3507      	adds	r5, #7
  4027c8:	f025 0307 	bic.w	r3, r5, #7
  4027cc:	f103 0208 	add.w	r2, r3, #8
  4027d0:	920f      	str	r2, [sp, #60]	; 0x3c
  4027d2:	681a      	ldr	r2, [r3, #0]
  4027d4:	9215      	str	r2, [sp, #84]	; 0x54
  4027d6:	685b      	ldr	r3, [r3, #4]
  4027d8:	9314      	str	r3, [sp, #80]	; 0x50
  4027da:	9b14      	ldr	r3, [sp, #80]	; 0x50
  4027dc:	9d15      	ldr	r5, [sp, #84]	; 0x54
  4027de:	f023 4400 	bic.w	r4, r3, #2147483648	; 0x80000000
  4027e2:	4628      	mov	r0, r5
  4027e4:	4621      	mov	r1, r4
  4027e6:	f04f 32ff 	mov.w	r2, #4294967295
  4027ea:	4b59      	ldr	r3, [pc, #356]	; (402950 <_svfprintf_r+0x904>)
  4027ec:	f003 fefc 	bl	4065e8 <__aeabi_dcmpun>
  4027f0:	2800      	cmp	r0, #0
  4027f2:	f040 834a 	bne.w	402e8a <_svfprintf_r+0xe3e>
  4027f6:	4628      	mov	r0, r5
  4027f8:	4621      	mov	r1, r4
  4027fa:	f04f 32ff 	mov.w	r2, #4294967295
  4027fe:	4b54      	ldr	r3, [pc, #336]	; (402950 <_svfprintf_r+0x904>)
  402800:	f003 fed4 	bl	4065ac <__aeabi_dcmple>
  402804:	2800      	cmp	r0, #0
  402806:	f040 8340 	bne.w	402e8a <_svfprintf_r+0xe3e>
  40280a:	a815      	add	r0, sp, #84	; 0x54
  40280c:	c80d      	ldmia	r0, {r0, r2, r3}
  40280e:	9914      	ldr	r1, [sp, #80]	; 0x50
  402810:	f003 fec2 	bl	406598 <__aeabi_dcmplt>
  402814:	2800      	cmp	r0, #0
  402816:	f040 8530 	bne.w	40327a <_svfprintf_r+0x122e>
  40281a:	f89d 7077 	ldrb.w	r7, [sp, #119]	; 0x77
  40281e:	4e4d      	ldr	r6, [pc, #308]	; (402954 <_svfprintf_r+0x908>)
  402820:	4b4d      	ldr	r3, [pc, #308]	; (402958 <_svfprintf_r+0x90c>)
  402822:	f02b 0080 	bic.w	r0, fp, #128	; 0x80
  402826:	9007      	str	r0, [sp, #28]
  402828:	9811      	ldr	r0, [sp, #68]	; 0x44
  40282a:	2203      	movs	r2, #3
  40282c:	2100      	movs	r1, #0
  40282e:	9208      	str	r2, [sp, #32]
  402830:	910a      	str	r1, [sp, #40]	; 0x28
  402832:	2847      	cmp	r0, #71	; 0x47
  402834:	bfd8      	it	le
  402836:	461e      	movle	r6, r3
  402838:	920e      	str	r2, [sp, #56]	; 0x38
  40283a:	9112      	str	r1, [sp, #72]	; 0x48
  40283c:	e51e      	b.n	40227c <_svfprintf_r+0x230>
  40283e:	f04b 0b08 	orr.w	fp, fp, #8
  402842:	f89a 3000 	ldrb.w	r3, [sl]
  402846:	e459      	b.n	4020fc <_svfprintf_r+0xb0>
  402848:	f1a3 0030 	sub.w	r0, r3, #48	; 0x30
  40284c:	2300      	movs	r3, #0
  40284e:	461c      	mov	r4, r3
  402850:	f81a 3b01 	ldrb.w	r3, [sl], #1
  402854:	eb04 0484 	add.w	r4, r4, r4, lsl #2
  402858:	eb00 0444 	add.w	r4, r0, r4, lsl #1
  40285c:	f1a3 0030 	sub.w	r0, r3, #48	; 0x30
  402860:	2809      	cmp	r0, #9
  402862:	d9f5      	bls.n	402850 <_svfprintf_r+0x804>
  402864:	940d      	str	r4, [sp, #52]	; 0x34
  402866:	e44b      	b.n	402100 <_svfprintf_r+0xb4>
  402868:	f04b 0b10 	orr.w	fp, fp, #16
  40286c:	9311      	str	r3, [sp, #68]	; 0x44
  40286e:	f01b 0320 	ands.w	r3, fp, #32
  402872:	f43f ae1d 	beq.w	4024b0 <_svfprintf_r+0x464>
  402876:	9d0f      	ldr	r5, [sp, #60]	; 0x3c
  402878:	3507      	adds	r5, #7
  40287a:	f025 0307 	bic.w	r3, r5, #7
  40287e:	f103 0208 	add.w	r2, r3, #8
  402882:	e9d3 4500 	ldrd	r4, r5, [r3]
  402886:	920f      	str	r2, [sp, #60]	; 0x3c
  402888:	2300      	movs	r3, #0
  40288a:	e4d2      	b.n	402232 <_svfprintf_r+0x1e6>
  40288c:	9311      	str	r3, [sp, #68]	; 0x44
  40288e:	2a00      	cmp	r2, #0
  402890:	f040 85e7 	bne.w	403462 <_svfprintf_r+0x1416>
  402894:	9a11      	ldr	r2, [sp, #68]	; 0x44
  402896:	2a00      	cmp	r2, #0
  402898:	f43f aca3 	beq.w	4021e2 <_svfprintf_r+0x196>
  40289c:	2300      	movs	r3, #0
  40289e:	2101      	movs	r1, #1
  4028a0:	461f      	mov	r7, r3
  4028a2:	9108      	str	r1, [sp, #32]
  4028a4:	f88d 20a0 	strb.w	r2, [sp, #160]	; 0xa0
  4028a8:	f8cd b01c 	str.w	fp, [sp, #28]
  4028ac:	f88d 3077 	strb.w	r3, [sp, #119]	; 0x77
  4028b0:	930a      	str	r3, [sp, #40]	; 0x28
  4028b2:	9312      	str	r3, [sp, #72]	; 0x48
  4028b4:	910e      	str	r1, [sp, #56]	; 0x38
  4028b6:	ae28      	add	r6, sp, #160	; 0xa0
  4028b8:	e4e4      	b.n	402284 <_svfprintf_r+0x238>
  4028ba:	9c27      	ldr	r4, [sp, #156]	; 0x9c
  4028bc:	e534      	b.n	402328 <_svfprintf_r+0x2dc>
  4028be:	9b11      	ldr	r3, [sp, #68]	; 0x44
  4028c0:	2b65      	cmp	r3, #101	; 0x65
  4028c2:	f340 80a7 	ble.w	402a14 <_svfprintf_r+0x9c8>
  4028c6:	a815      	add	r0, sp, #84	; 0x54
  4028c8:	c80d      	ldmia	r0, {r0, r2, r3}
  4028ca:	9914      	ldr	r1, [sp, #80]	; 0x50
  4028cc:	f003 fe5a 	bl	406584 <__aeabi_dcmpeq>
  4028d0:	2800      	cmp	r0, #0
  4028d2:	f000 8150 	beq.w	402b76 <_svfprintf_r+0xb2a>
  4028d6:	9b26      	ldr	r3, [sp, #152]	; 0x98
  4028d8:	4a20      	ldr	r2, [pc, #128]	; (40295c <_svfprintf_r+0x910>)
  4028da:	f8c8 2000 	str.w	r2, [r8]
  4028de:	3301      	adds	r3, #1
  4028e0:	3401      	adds	r4, #1
  4028e2:	2201      	movs	r2, #1
  4028e4:	2b07      	cmp	r3, #7
  4028e6:	9427      	str	r4, [sp, #156]	; 0x9c
  4028e8:	9326      	str	r3, [sp, #152]	; 0x98
  4028ea:	f8c8 2004 	str.w	r2, [r8, #4]
  4028ee:	f300 836a 	bgt.w	402fc6 <_svfprintf_r+0xf7a>
  4028f2:	f108 0808 	add.w	r8, r8, #8
  4028f6:	9b1f      	ldr	r3, [sp, #124]	; 0x7c
  4028f8:	9a13      	ldr	r2, [sp, #76]	; 0x4c
  4028fa:	9c27      	ldr	r4, [sp, #156]	; 0x9c
  4028fc:	4293      	cmp	r3, r2
  4028fe:	db03      	blt.n	402908 <_svfprintf_r+0x8bc>
  402900:	9b07      	ldr	r3, [sp, #28]
  402902:	07dd      	lsls	r5, r3, #31
  402904:	f57f ad82 	bpl.w	40240c <_svfprintf_r+0x3c0>
  402908:	9b26      	ldr	r3, [sp, #152]	; 0x98
  40290a:	9919      	ldr	r1, [sp, #100]	; 0x64
  40290c:	9a1a      	ldr	r2, [sp, #104]	; 0x68
  40290e:	f8c8 2000 	str.w	r2, [r8]
  402912:	3301      	adds	r3, #1
  402914:	440c      	add	r4, r1
  402916:	2b07      	cmp	r3, #7
  402918:	f8c8 1004 	str.w	r1, [r8, #4]
  40291c:	9427      	str	r4, [sp, #156]	; 0x9c
  40291e:	9326      	str	r3, [sp, #152]	; 0x98
  402920:	f300 839e 	bgt.w	403060 <_svfprintf_r+0x1014>
  402924:	f108 0808 	add.w	r8, r8, #8
  402928:	9b13      	ldr	r3, [sp, #76]	; 0x4c
  40292a:	1e5e      	subs	r6, r3, #1
  40292c:	2e00      	cmp	r6, #0
  40292e:	f77f ad6d 	ble.w	40240c <_svfprintf_r+0x3c0>
  402932:	2e10      	cmp	r6, #16
  402934:	9b26      	ldr	r3, [sp, #152]	; 0x98
  402936:	4d0a      	ldr	r5, [pc, #40]	; (402960 <_svfprintf_r+0x914>)
  402938:	f340 81f5 	ble.w	402d26 <_svfprintf_r+0xcda>
  40293c:	4622      	mov	r2, r4
  40293e:	2710      	movs	r7, #16
  402940:	f8dd b030 	ldr.w	fp, [sp, #48]	; 0x30
  402944:	9c0b      	ldr	r4, [sp, #44]	; 0x2c
  402946:	e013      	b.n	402970 <_svfprintf_r+0x924>
  402948:	00407690 	.word	0x00407690
  40294c:	0040767c 	.word	0x0040767c
  402950:	7fefffff 	.word	0x7fefffff
  402954:	00407670 	.word	0x00407670
  402958:	0040766c 	.word	0x0040766c
  40295c:	004076ac 	.word	0x004076ac
  402960:	004076c0 	.word	0x004076c0
  402964:	f108 0808 	add.w	r8, r8, #8
  402968:	3e10      	subs	r6, #16
  40296a:	2e10      	cmp	r6, #16
  40296c:	f340 81da 	ble.w	402d24 <_svfprintf_r+0xcd8>
  402970:	3301      	adds	r3, #1
  402972:	3210      	adds	r2, #16
  402974:	2b07      	cmp	r3, #7
  402976:	9227      	str	r2, [sp, #156]	; 0x9c
  402978:	9326      	str	r3, [sp, #152]	; 0x98
  40297a:	e888 00a0 	stmia.w	r8, {r5, r7}
  40297e:	ddf1      	ble.n	402964 <_svfprintf_r+0x918>
  402980:	aa25      	add	r2, sp, #148	; 0x94
  402982:	4621      	mov	r1, r4
  402984:	4658      	mov	r0, fp
  402986:	f002 fd69 	bl	40545c <__ssprint_r>
  40298a:	2800      	cmp	r0, #0
  40298c:	f47f ac30 	bne.w	4021f0 <_svfprintf_r+0x1a4>
  402990:	9a27      	ldr	r2, [sp, #156]	; 0x9c
  402992:	9b26      	ldr	r3, [sp, #152]	; 0x98
  402994:	46c8      	mov	r8, r9
  402996:	e7e7      	b.n	402968 <_svfprintf_r+0x91c>
  402998:	9b0d      	ldr	r3, [sp, #52]	; 0x34
  40299a:	9a08      	ldr	r2, [sp, #32]
  40299c:	1a9f      	subs	r7, r3, r2
  40299e:	2f00      	cmp	r7, #0
  4029a0:	f77f ace5 	ble.w	40236e <_svfprintf_r+0x322>
  4029a4:	2f10      	cmp	r7, #16
  4029a6:	9b26      	ldr	r3, [sp, #152]	; 0x98
  4029a8:	4db6      	ldr	r5, [pc, #728]	; (402c84 <_svfprintf_r+0xc38>)
  4029aa:	dd27      	ble.n	4029fc <_svfprintf_r+0x9b0>
  4029ac:	4642      	mov	r2, r8
  4029ae:	4621      	mov	r1, r4
  4029b0:	46b0      	mov	r8, r6
  4029b2:	f04f 0b10 	mov.w	fp, #16
  4029b6:	462e      	mov	r6, r5
  4029b8:	9c0c      	ldr	r4, [sp, #48]	; 0x30
  4029ba:	9d0b      	ldr	r5, [sp, #44]	; 0x2c
  4029bc:	e004      	b.n	4029c8 <_svfprintf_r+0x97c>
  4029be:	3f10      	subs	r7, #16
  4029c0:	2f10      	cmp	r7, #16
  4029c2:	f102 0208 	add.w	r2, r2, #8
  4029c6:	dd15      	ble.n	4029f4 <_svfprintf_r+0x9a8>
  4029c8:	3301      	adds	r3, #1
  4029ca:	3110      	adds	r1, #16
  4029cc:	2b07      	cmp	r3, #7
  4029ce:	9127      	str	r1, [sp, #156]	; 0x9c
  4029d0:	9326      	str	r3, [sp, #152]	; 0x98
  4029d2:	e882 0840 	stmia.w	r2, {r6, fp}
  4029d6:	ddf2      	ble.n	4029be <_svfprintf_r+0x972>
  4029d8:	aa25      	add	r2, sp, #148	; 0x94
  4029da:	4629      	mov	r1, r5
  4029dc:	4620      	mov	r0, r4
  4029de:	f002 fd3d 	bl	40545c <__ssprint_r>
  4029e2:	2800      	cmp	r0, #0
  4029e4:	f47f ac04 	bne.w	4021f0 <_svfprintf_r+0x1a4>
  4029e8:	3f10      	subs	r7, #16
  4029ea:	2f10      	cmp	r7, #16
  4029ec:	9927      	ldr	r1, [sp, #156]	; 0x9c
  4029ee:	9b26      	ldr	r3, [sp, #152]	; 0x98
  4029f0:	464a      	mov	r2, r9
  4029f2:	dce9      	bgt.n	4029c8 <_svfprintf_r+0x97c>
  4029f4:	4635      	mov	r5, r6
  4029f6:	460c      	mov	r4, r1
  4029f8:	4646      	mov	r6, r8
  4029fa:	4690      	mov	r8, r2
  4029fc:	3301      	adds	r3, #1
  4029fe:	443c      	add	r4, r7
  402a00:	2b07      	cmp	r3, #7
  402a02:	9427      	str	r4, [sp, #156]	; 0x9c
  402a04:	9326      	str	r3, [sp, #152]	; 0x98
  402a06:	e888 00a0 	stmia.w	r8, {r5, r7}
  402a0a:	f300 8232 	bgt.w	402e72 <_svfprintf_r+0xe26>
  402a0e:	f108 0808 	add.w	r8, r8, #8
  402a12:	e4ac      	b.n	40236e <_svfprintf_r+0x322>
  402a14:	9b13      	ldr	r3, [sp, #76]	; 0x4c
  402a16:	9f26      	ldr	r7, [sp, #152]	; 0x98
  402a18:	2b01      	cmp	r3, #1
  402a1a:	f340 81fe 	ble.w	402e1a <_svfprintf_r+0xdce>
  402a1e:	3701      	adds	r7, #1
  402a20:	3401      	adds	r4, #1
  402a22:	2301      	movs	r3, #1
  402a24:	2f07      	cmp	r7, #7
  402a26:	9427      	str	r4, [sp, #156]	; 0x9c
  402a28:	9726      	str	r7, [sp, #152]	; 0x98
  402a2a:	f8c8 6000 	str.w	r6, [r8]
  402a2e:	f8c8 3004 	str.w	r3, [r8, #4]
  402a32:	f300 8203 	bgt.w	402e3c <_svfprintf_r+0xdf0>
  402a36:	f108 0808 	add.w	r8, r8, #8
  402a3a:	9a19      	ldr	r2, [sp, #100]	; 0x64
  402a3c:	9b1a      	ldr	r3, [sp, #104]	; 0x68
  402a3e:	f8c8 3000 	str.w	r3, [r8]
  402a42:	3701      	adds	r7, #1
  402a44:	4414      	add	r4, r2
  402a46:	2f07      	cmp	r7, #7
  402a48:	9427      	str	r4, [sp, #156]	; 0x9c
  402a4a:	9726      	str	r7, [sp, #152]	; 0x98
  402a4c:	f8c8 2004 	str.w	r2, [r8, #4]
  402a50:	f300 8200 	bgt.w	402e54 <_svfprintf_r+0xe08>
  402a54:	f108 0808 	add.w	r8, r8, #8
  402a58:	a815      	add	r0, sp, #84	; 0x54
  402a5a:	c80d      	ldmia	r0, {r0, r2, r3}
  402a5c:	9914      	ldr	r1, [sp, #80]	; 0x50
  402a5e:	f003 fd91 	bl	406584 <__aeabi_dcmpeq>
  402a62:	9b13      	ldr	r3, [sp, #76]	; 0x4c
  402a64:	2800      	cmp	r0, #0
  402a66:	f040 8101 	bne.w	402c6c <_svfprintf_r+0xc20>
  402a6a:	3b01      	subs	r3, #1
  402a6c:	3701      	adds	r7, #1
  402a6e:	3601      	adds	r6, #1
  402a70:	441c      	add	r4, r3
  402a72:	2f07      	cmp	r7, #7
  402a74:	9726      	str	r7, [sp, #152]	; 0x98
  402a76:	9427      	str	r4, [sp, #156]	; 0x9c
  402a78:	f8c8 6000 	str.w	r6, [r8]
  402a7c:	f8c8 3004 	str.w	r3, [r8, #4]
  402a80:	f300 8127 	bgt.w	402cd2 <_svfprintf_r+0xc86>
  402a84:	f108 0808 	add.w	r8, r8, #8
  402a88:	9a1b      	ldr	r2, [sp, #108]	; 0x6c
  402a8a:	f8c8 2004 	str.w	r2, [r8, #4]
  402a8e:	3701      	adds	r7, #1
  402a90:	4414      	add	r4, r2
  402a92:	ab21      	add	r3, sp, #132	; 0x84
  402a94:	2f07      	cmp	r7, #7
  402a96:	9427      	str	r4, [sp, #156]	; 0x9c
  402a98:	9726      	str	r7, [sp, #152]	; 0x98
  402a9a:	f8c8 3000 	str.w	r3, [r8]
  402a9e:	f77f acb3 	ble.w	402408 <_svfprintf_r+0x3bc>
  402aa2:	aa25      	add	r2, sp, #148	; 0x94
  402aa4:	990b      	ldr	r1, [sp, #44]	; 0x2c
  402aa6:	980c      	ldr	r0, [sp, #48]	; 0x30
  402aa8:	f002 fcd8 	bl	40545c <__ssprint_r>
  402aac:	2800      	cmp	r0, #0
  402aae:	f47f ab9f 	bne.w	4021f0 <_svfprintf_r+0x1a4>
  402ab2:	9c27      	ldr	r4, [sp, #156]	; 0x9c
  402ab4:	46c8      	mov	r8, r9
  402ab6:	e4a9      	b.n	40240c <_svfprintf_r+0x3c0>
  402ab8:	aa25      	add	r2, sp, #148	; 0x94
  402aba:	990b      	ldr	r1, [sp, #44]	; 0x2c
  402abc:	980c      	ldr	r0, [sp, #48]	; 0x30
  402abe:	f002 fccd 	bl	40545c <__ssprint_r>
  402ac2:	2800      	cmp	r0, #0
  402ac4:	f43f aceb 	beq.w	40249e <_svfprintf_r+0x452>
  402ac8:	f7ff bb92 	b.w	4021f0 <_svfprintf_r+0x1a4>
  402acc:	f8dd b01c 	ldr.w	fp, [sp, #28]
  402ad0:	2b01      	cmp	r3, #1
  402ad2:	f000 8134 	beq.w	402d3e <_svfprintf_r+0xcf2>
  402ad6:	2b02      	cmp	r3, #2
  402ad8:	d125      	bne.n	402b26 <_svfprintf_r+0xada>
  402ada:	f8cd b01c 	str.w	fp, [sp, #28]
  402ade:	2400      	movs	r4, #0
  402ae0:	2500      	movs	r5, #0
  402ae2:	e61e      	b.n	402722 <_svfprintf_r+0x6d6>
  402ae4:	aa25      	add	r2, sp, #148	; 0x94
  402ae6:	990b      	ldr	r1, [sp, #44]	; 0x2c
  402ae8:	980c      	ldr	r0, [sp, #48]	; 0x30
  402aea:	f002 fcb7 	bl	40545c <__ssprint_r>
  402aee:	2800      	cmp	r0, #0
  402af0:	f47f ab7e 	bne.w	4021f0 <_svfprintf_r+0x1a4>
  402af4:	9c27      	ldr	r4, [sp, #156]	; 0x9c
  402af6:	46c8      	mov	r8, r9
  402af8:	e475      	b.n	4023e6 <_svfprintf_r+0x39a>
  402afa:	aa25      	add	r2, sp, #148	; 0x94
  402afc:	990b      	ldr	r1, [sp, #44]	; 0x2c
  402afe:	980c      	ldr	r0, [sp, #48]	; 0x30
  402b00:	f002 fcac 	bl	40545c <__ssprint_r>
  402b04:	2800      	cmp	r0, #0
  402b06:	f47f ab73 	bne.w	4021f0 <_svfprintf_r+0x1a4>
  402b0a:	9c27      	ldr	r4, [sp, #156]	; 0x9c
  402b0c:	46c8      	mov	r8, r9
  402b0e:	e41b      	b.n	402348 <_svfprintf_r+0x2fc>
  402b10:	aa25      	add	r2, sp, #148	; 0x94
  402b12:	990b      	ldr	r1, [sp, #44]	; 0x2c
  402b14:	980c      	ldr	r0, [sp, #48]	; 0x30
  402b16:	f002 fca1 	bl	40545c <__ssprint_r>
  402b1a:	2800      	cmp	r0, #0
  402b1c:	f47f ab68 	bne.w	4021f0 <_svfprintf_r+0x1a4>
  402b20:	9c27      	ldr	r4, [sp, #156]	; 0x9c
  402b22:	46c8      	mov	r8, r9
  402b24:	e420      	b.n	402368 <_svfprintf_r+0x31c>
  402b26:	f8cd b01c 	str.w	fp, [sp, #28]
  402b2a:	2400      	movs	r4, #0
  402b2c:	2500      	movs	r5, #0
  402b2e:	4649      	mov	r1, r9
  402b30:	e000      	b.n	402b34 <_svfprintf_r+0xae8>
  402b32:	4631      	mov	r1, r6
  402b34:	08e2      	lsrs	r2, r4, #3
  402b36:	ea42 7245 	orr.w	r2, r2, r5, lsl #29
  402b3a:	08e8      	lsrs	r0, r5, #3
  402b3c:	f004 0307 	and.w	r3, r4, #7
  402b40:	4605      	mov	r5, r0
  402b42:	4614      	mov	r4, r2
  402b44:	3330      	adds	r3, #48	; 0x30
  402b46:	ea54 0205 	orrs.w	r2, r4, r5
  402b4a:	f801 3c01 	strb.w	r3, [r1, #-1]
  402b4e:	f101 36ff 	add.w	r6, r1, #4294967295
  402b52:	d1ee      	bne.n	402b32 <_svfprintf_r+0xae6>
  402b54:	9a07      	ldr	r2, [sp, #28]
  402b56:	07d2      	lsls	r2, r2, #31
  402b58:	f57f adf3 	bpl.w	402742 <_svfprintf_r+0x6f6>
  402b5c:	2b30      	cmp	r3, #48	; 0x30
  402b5e:	f43f adf0 	beq.w	402742 <_svfprintf_r+0x6f6>
  402b62:	3902      	subs	r1, #2
  402b64:	2330      	movs	r3, #48	; 0x30
  402b66:	f806 3c01 	strb.w	r3, [r6, #-1]
  402b6a:	eba9 0301 	sub.w	r3, r9, r1
  402b6e:	930e      	str	r3, [sp, #56]	; 0x38
  402b70:	460e      	mov	r6, r1
  402b72:	f7ff bb7b 	b.w	40226c <_svfprintf_r+0x220>
  402b76:	991f      	ldr	r1, [sp, #124]	; 0x7c
  402b78:	2900      	cmp	r1, #0
  402b7a:	f340 822e 	ble.w	402fda <_svfprintf_r+0xf8e>
  402b7e:	9b12      	ldr	r3, [sp, #72]	; 0x48
  402b80:	9a13      	ldr	r2, [sp, #76]	; 0x4c
  402b82:	4293      	cmp	r3, r2
  402b84:	bfa8      	it	ge
  402b86:	4613      	movge	r3, r2
  402b88:	2b00      	cmp	r3, #0
  402b8a:	461f      	mov	r7, r3
  402b8c:	dd0d      	ble.n	402baa <_svfprintf_r+0xb5e>
  402b8e:	9b26      	ldr	r3, [sp, #152]	; 0x98
  402b90:	f8c8 6000 	str.w	r6, [r8]
  402b94:	3301      	adds	r3, #1
  402b96:	443c      	add	r4, r7
  402b98:	2b07      	cmp	r3, #7
  402b9a:	9427      	str	r4, [sp, #156]	; 0x9c
  402b9c:	f8c8 7004 	str.w	r7, [r8, #4]
  402ba0:	9326      	str	r3, [sp, #152]	; 0x98
  402ba2:	f300 831f 	bgt.w	4031e4 <_svfprintf_r+0x1198>
  402ba6:	f108 0808 	add.w	r8, r8, #8
  402baa:	9b12      	ldr	r3, [sp, #72]	; 0x48
  402bac:	2f00      	cmp	r7, #0
  402bae:	bfa8      	it	ge
  402bb0:	1bdb      	subge	r3, r3, r7
  402bb2:	2b00      	cmp	r3, #0
  402bb4:	461f      	mov	r7, r3
  402bb6:	f340 80d6 	ble.w	402d66 <_svfprintf_r+0xd1a>
  402bba:	2f10      	cmp	r7, #16
  402bbc:	9b26      	ldr	r3, [sp, #152]	; 0x98
  402bbe:	4d31      	ldr	r5, [pc, #196]	; (402c84 <_svfprintf_r+0xc38>)
  402bc0:	f340 81ed 	ble.w	402f9e <_svfprintf_r+0xf52>
  402bc4:	4642      	mov	r2, r8
  402bc6:	4621      	mov	r1, r4
  402bc8:	46b0      	mov	r8, r6
  402bca:	f04f 0b10 	mov.w	fp, #16
  402bce:	462e      	mov	r6, r5
  402bd0:	9c0c      	ldr	r4, [sp, #48]	; 0x30
  402bd2:	9d0b      	ldr	r5, [sp, #44]	; 0x2c
  402bd4:	e004      	b.n	402be0 <_svfprintf_r+0xb94>
  402bd6:	3208      	adds	r2, #8
  402bd8:	3f10      	subs	r7, #16
  402bda:	2f10      	cmp	r7, #16
  402bdc:	f340 81db 	ble.w	402f96 <_svfprintf_r+0xf4a>
  402be0:	3301      	adds	r3, #1
  402be2:	3110      	adds	r1, #16
  402be4:	2b07      	cmp	r3, #7
  402be6:	9127      	str	r1, [sp, #156]	; 0x9c
  402be8:	9326      	str	r3, [sp, #152]	; 0x98
  402bea:	e882 0840 	stmia.w	r2, {r6, fp}
  402bee:	ddf2      	ble.n	402bd6 <_svfprintf_r+0xb8a>
  402bf0:	aa25      	add	r2, sp, #148	; 0x94
  402bf2:	4629      	mov	r1, r5
  402bf4:	4620      	mov	r0, r4
  402bf6:	f002 fc31 	bl	40545c <__ssprint_r>
  402bfa:	2800      	cmp	r0, #0
  402bfc:	f47f aaf8 	bne.w	4021f0 <_svfprintf_r+0x1a4>
  402c00:	9927      	ldr	r1, [sp, #156]	; 0x9c
  402c02:	9b26      	ldr	r3, [sp, #152]	; 0x98
  402c04:	464a      	mov	r2, r9
  402c06:	e7e7      	b.n	402bd8 <_svfprintf_r+0xb8c>
  402c08:	9b0a      	ldr	r3, [sp, #40]	; 0x28
  402c0a:	930e      	str	r3, [sp, #56]	; 0x38
  402c0c:	464e      	mov	r6, r9
  402c0e:	f7ff bb2d 	b.w	40226c <_svfprintf_r+0x220>
  402c12:	2d00      	cmp	r5, #0
  402c14:	bf08      	it	eq
  402c16:	2c0a      	cmpeq	r4, #10
  402c18:	f0c0 808f 	bcc.w	402d3a <_svfprintf_r+0xcee>
  402c1c:	464e      	mov	r6, r9
  402c1e:	4620      	mov	r0, r4
  402c20:	4629      	mov	r1, r5
  402c22:	220a      	movs	r2, #10
  402c24:	2300      	movs	r3, #0
  402c26:	f003 fd1d 	bl	406664 <__aeabi_uldivmod>
  402c2a:	3230      	adds	r2, #48	; 0x30
  402c2c:	f806 2d01 	strb.w	r2, [r6, #-1]!
  402c30:	4620      	mov	r0, r4
  402c32:	4629      	mov	r1, r5
  402c34:	2300      	movs	r3, #0
  402c36:	220a      	movs	r2, #10
  402c38:	f003 fd14 	bl	406664 <__aeabi_uldivmod>
  402c3c:	4604      	mov	r4, r0
  402c3e:	460d      	mov	r5, r1
  402c40:	ea54 0305 	orrs.w	r3, r4, r5
  402c44:	d1eb      	bne.n	402c1e <_svfprintf_r+0xbd2>
  402c46:	eba9 0306 	sub.w	r3, r9, r6
  402c4a:	930e      	str	r3, [sp, #56]	; 0x38
  402c4c:	f7ff bb0e 	b.w	40226c <_svfprintf_r+0x220>
  402c50:	aa25      	add	r2, sp, #148	; 0x94
  402c52:	990b      	ldr	r1, [sp, #44]	; 0x2c
  402c54:	980c      	ldr	r0, [sp, #48]	; 0x30
  402c56:	f002 fc01 	bl	40545c <__ssprint_r>
  402c5a:	2800      	cmp	r0, #0
  402c5c:	f47f aac8 	bne.w	4021f0 <_svfprintf_r+0x1a4>
  402c60:	f89d 7077 	ldrb.w	r7, [sp, #119]	; 0x77
  402c64:	9c27      	ldr	r4, [sp, #156]	; 0x9c
  402c66:	46c8      	mov	r8, r9
  402c68:	f7ff bb5e 	b.w	402328 <_svfprintf_r+0x2dc>
  402c6c:	1e5e      	subs	r6, r3, #1
  402c6e:	2e00      	cmp	r6, #0
  402c70:	f77f af0a 	ble.w	402a88 <_svfprintf_r+0xa3c>
  402c74:	2e10      	cmp	r6, #16
  402c76:	4d03      	ldr	r5, [pc, #12]	; (402c84 <_svfprintf_r+0xc38>)
  402c78:	dd22      	ble.n	402cc0 <_svfprintf_r+0xc74>
  402c7a:	4622      	mov	r2, r4
  402c7c:	f04f 0b10 	mov.w	fp, #16
  402c80:	9c0c      	ldr	r4, [sp, #48]	; 0x30
  402c82:	e006      	b.n	402c92 <_svfprintf_r+0xc46>
  402c84:	004076c0 	.word	0x004076c0
  402c88:	3e10      	subs	r6, #16
  402c8a:	2e10      	cmp	r6, #16
  402c8c:	f108 0808 	add.w	r8, r8, #8
  402c90:	dd15      	ble.n	402cbe <_svfprintf_r+0xc72>
  402c92:	3701      	adds	r7, #1
  402c94:	3210      	adds	r2, #16
  402c96:	2f07      	cmp	r7, #7
  402c98:	9227      	str	r2, [sp, #156]	; 0x9c
  402c9a:	9726      	str	r7, [sp, #152]	; 0x98
  402c9c:	e888 0820 	stmia.w	r8, {r5, fp}
  402ca0:	ddf2      	ble.n	402c88 <_svfprintf_r+0xc3c>
  402ca2:	aa25      	add	r2, sp, #148	; 0x94
  402ca4:	990b      	ldr	r1, [sp, #44]	; 0x2c
  402ca6:	4620      	mov	r0, r4
  402ca8:	f002 fbd8 	bl	40545c <__ssprint_r>
  402cac:	2800      	cmp	r0, #0
  402cae:	f47f aa9f 	bne.w	4021f0 <_svfprintf_r+0x1a4>
  402cb2:	3e10      	subs	r6, #16
  402cb4:	2e10      	cmp	r6, #16
  402cb6:	9a27      	ldr	r2, [sp, #156]	; 0x9c
  402cb8:	9f26      	ldr	r7, [sp, #152]	; 0x98
  402cba:	46c8      	mov	r8, r9
  402cbc:	dce9      	bgt.n	402c92 <_svfprintf_r+0xc46>
  402cbe:	4614      	mov	r4, r2
  402cc0:	3701      	adds	r7, #1
  402cc2:	4434      	add	r4, r6
  402cc4:	2f07      	cmp	r7, #7
  402cc6:	9427      	str	r4, [sp, #156]	; 0x9c
  402cc8:	9726      	str	r7, [sp, #152]	; 0x98
  402cca:	e888 0060 	stmia.w	r8, {r5, r6}
  402cce:	f77f aed9 	ble.w	402a84 <_svfprintf_r+0xa38>
  402cd2:	aa25      	add	r2, sp, #148	; 0x94
  402cd4:	990b      	ldr	r1, [sp, #44]	; 0x2c
  402cd6:	980c      	ldr	r0, [sp, #48]	; 0x30
  402cd8:	f002 fbc0 	bl	40545c <__ssprint_r>
  402cdc:	2800      	cmp	r0, #0
  402cde:	f47f aa87 	bne.w	4021f0 <_svfprintf_r+0x1a4>
  402ce2:	9c27      	ldr	r4, [sp, #156]	; 0x9c
  402ce4:	9f26      	ldr	r7, [sp, #152]	; 0x98
  402ce6:	46c8      	mov	r8, r9
  402ce8:	e6ce      	b.n	402a88 <_svfprintf_r+0xa3c>
  402cea:	9a0f      	ldr	r2, [sp, #60]	; 0x3c
  402cec:	6814      	ldr	r4, [r2, #0]
  402cee:	4613      	mov	r3, r2
  402cf0:	3304      	adds	r3, #4
  402cf2:	17e5      	asrs	r5, r4, #31
  402cf4:	930f      	str	r3, [sp, #60]	; 0x3c
  402cf6:	4622      	mov	r2, r4
  402cf8:	462b      	mov	r3, r5
  402cfa:	e4fa      	b.n	4026f2 <_svfprintf_r+0x6a6>
  402cfc:	3204      	adds	r2, #4
  402cfe:	681c      	ldr	r4, [r3, #0]
  402d00:	920f      	str	r2, [sp, #60]	; 0x3c
  402d02:	2301      	movs	r3, #1
  402d04:	2500      	movs	r5, #0
  402d06:	f7ff ba94 	b.w	402232 <_svfprintf_r+0x1e6>
  402d0a:	681c      	ldr	r4, [r3, #0]
  402d0c:	3304      	adds	r3, #4
  402d0e:	930f      	str	r3, [sp, #60]	; 0x3c
  402d10:	2500      	movs	r5, #0
  402d12:	e421      	b.n	402558 <_svfprintf_r+0x50c>
  402d14:	990f      	ldr	r1, [sp, #60]	; 0x3c
  402d16:	460a      	mov	r2, r1
  402d18:	3204      	adds	r2, #4
  402d1a:	680c      	ldr	r4, [r1, #0]
  402d1c:	920f      	str	r2, [sp, #60]	; 0x3c
  402d1e:	2500      	movs	r5, #0
  402d20:	f7ff ba87 	b.w	402232 <_svfprintf_r+0x1e6>
  402d24:	4614      	mov	r4, r2
  402d26:	3301      	adds	r3, #1
  402d28:	4434      	add	r4, r6
  402d2a:	2b07      	cmp	r3, #7
  402d2c:	9427      	str	r4, [sp, #156]	; 0x9c
  402d2e:	9326      	str	r3, [sp, #152]	; 0x98
  402d30:	e888 0060 	stmia.w	r8, {r5, r6}
  402d34:	f77f ab68 	ble.w	402408 <_svfprintf_r+0x3bc>
  402d38:	e6b3      	b.n	402aa2 <_svfprintf_r+0xa56>
  402d3a:	f8dd b01c 	ldr.w	fp, [sp, #28]
  402d3e:	f8cd b01c 	str.w	fp, [sp, #28]
  402d42:	ae42      	add	r6, sp, #264	; 0x108
  402d44:	3430      	adds	r4, #48	; 0x30
  402d46:	2301      	movs	r3, #1
  402d48:	f806 4d41 	strb.w	r4, [r6, #-65]!
  402d4c:	930e      	str	r3, [sp, #56]	; 0x38
  402d4e:	f7ff ba8d 	b.w	40226c <_svfprintf_r+0x220>
  402d52:	aa25      	add	r2, sp, #148	; 0x94
  402d54:	990b      	ldr	r1, [sp, #44]	; 0x2c
  402d56:	980c      	ldr	r0, [sp, #48]	; 0x30
  402d58:	f002 fb80 	bl	40545c <__ssprint_r>
  402d5c:	2800      	cmp	r0, #0
  402d5e:	f47f aa47 	bne.w	4021f0 <_svfprintf_r+0x1a4>
  402d62:	9c27      	ldr	r4, [sp, #156]	; 0x9c
  402d64:	46c8      	mov	r8, r9
  402d66:	9a1f      	ldr	r2, [sp, #124]	; 0x7c
  402d68:	9b13      	ldr	r3, [sp, #76]	; 0x4c
  402d6a:	429a      	cmp	r2, r3
  402d6c:	db44      	blt.n	402df8 <_svfprintf_r+0xdac>
  402d6e:	9b07      	ldr	r3, [sp, #28]
  402d70:	07d9      	lsls	r1, r3, #31
  402d72:	d441      	bmi.n	402df8 <_svfprintf_r+0xdac>
  402d74:	9b13      	ldr	r3, [sp, #76]	; 0x4c
  402d76:	9812      	ldr	r0, [sp, #72]	; 0x48
  402d78:	1a9a      	subs	r2, r3, r2
  402d7a:	1a1d      	subs	r5, r3, r0
  402d7c:	4295      	cmp	r5, r2
  402d7e:	bfa8      	it	ge
  402d80:	4615      	movge	r5, r2
  402d82:	2d00      	cmp	r5, #0
  402d84:	dd0e      	ble.n	402da4 <_svfprintf_r+0xd58>
  402d86:	9926      	ldr	r1, [sp, #152]	; 0x98
  402d88:	f8c8 5004 	str.w	r5, [r8, #4]
  402d8c:	3101      	adds	r1, #1
  402d8e:	4406      	add	r6, r0
  402d90:	442c      	add	r4, r5
  402d92:	2907      	cmp	r1, #7
  402d94:	f8c8 6000 	str.w	r6, [r8]
  402d98:	9427      	str	r4, [sp, #156]	; 0x9c
  402d9a:	9126      	str	r1, [sp, #152]	; 0x98
  402d9c:	f300 823b 	bgt.w	403216 <_svfprintf_r+0x11ca>
  402da0:	f108 0808 	add.w	r8, r8, #8
  402da4:	2d00      	cmp	r5, #0
  402da6:	bfac      	ite	ge
  402da8:	1b56      	subge	r6, r2, r5
  402daa:	4616      	movlt	r6, r2
  402dac:	2e00      	cmp	r6, #0
  402dae:	f77f ab2d 	ble.w	40240c <_svfprintf_r+0x3c0>
  402db2:	2e10      	cmp	r6, #16
  402db4:	9b26      	ldr	r3, [sp, #152]	; 0x98
  402db6:	4db0      	ldr	r5, [pc, #704]	; (403078 <_svfprintf_r+0x102c>)
  402db8:	ddb5      	ble.n	402d26 <_svfprintf_r+0xcda>
  402dba:	4622      	mov	r2, r4
  402dbc:	2710      	movs	r7, #16
  402dbe:	f8dd b030 	ldr.w	fp, [sp, #48]	; 0x30
  402dc2:	9c0b      	ldr	r4, [sp, #44]	; 0x2c
  402dc4:	e004      	b.n	402dd0 <_svfprintf_r+0xd84>
  402dc6:	f108 0808 	add.w	r8, r8, #8
  402dca:	3e10      	subs	r6, #16
  402dcc:	2e10      	cmp	r6, #16
  402dce:	dda9      	ble.n	402d24 <_svfprintf_r+0xcd8>
  402dd0:	3301      	adds	r3, #1
  402dd2:	3210      	adds	r2, #16
  402dd4:	2b07      	cmp	r3, #7
  402dd6:	9227      	str	r2, [sp, #156]	; 0x9c
  402dd8:	9326      	str	r3, [sp, #152]	; 0x98
  402dda:	e888 00a0 	stmia.w	r8, {r5, r7}
  402dde:	ddf2      	ble.n	402dc6 <_svfprintf_r+0xd7a>
  402de0:	aa25      	add	r2, sp, #148	; 0x94
  402de2:	4621      	mov	r1, r4
  402de4:	4658      	mov	r0, fp
  402de6:	f002 fb39 	bl	40545c <__ssprint_r>
  402dea:	2800      	cmp	r0, #0
  402dec:	f47f aa00 	bne.w	4021f0 <_svfprintf_r+0x1a4>
  402df0:	9a27      	ldr	r2, [sp, #156]	; 0x9c
  402df2:	9b26      	ldr	r3, [sp, #152]	; 0x98
  402df4:	46c8      	mov	r8, r9
  402df6:	e7e8      	b.n	402dca <_svfprintf_r+0xd7e>
  402df8:	9b26      	ldr	r3, [sp, #152]	; 0x98
  402dfa:	9819      	ldr	r0, [sp, #100]	; 0x64
  402dfc:	991a      	ldr	r1, [sp, #104]	; 0x68
  402dfe:	f8c8 1000 	str.w	r1, [r8]
  402e02:	3301      	adds	r3, #1
  402e04:	4404      	add	r4, r0
  402e06:	2b07      	cmp	r3, #7
  402e08:	9427      	str	r4, [sp, #156]	; 0x9c
  402e0a:	f8c8 0004 	str.w	r0, [r8, #4]
  402e0e:	9326      	str	r3, [sp, #152]	; 0x98
  402e10:	f300 81f5 	bgt.w	4031fe <_svfprintf_r+0x11b2>
  402e14:	f108 0808 	add.w	r8, r8, #8
  402e18:	e7ac      	b.n	402d74 <_svfprintf_r+0xd28>
  402e1a:	9b07      	ldr	r3, [sp, #28]
  402e1c:	07da      	lsls	r2, r3, #31
  402e1e:	f53f adfe 	bmi.w	402a1e <_svfprintf_r+0x9d2>
  402e22:	3701      	adds	r7, #1
  402e24:	3401      	adds	r4, #1
  402e26:	2301      	movs	r3, #1
  402e28:	2f07      	cmp	r7, #7
  402e2a:	9427      	str	r4, [sp, #156]	; 0x9c
  402e2c:	9726      	str	r7, [sp, #152]	; 0x98
  402e2e:	f8c8 6000 	str.w	r6, [r8]
  402e32:	f8c8 3004 	str.w	r3, [r8, #4]
  402e36:	f77f ae25 	ble.w	402a84 <_svfprintf_r+0xa38>
  402e3a:	e74a      	b.n	402cd2 <_svfprintf_r+0xc86>
  402e3c:	aa25      	add	r2, sp, #148	; 0x94
  402e3e:	990b      	ldr	r1, [sp, #44]	; 0x2c
  402e40:	980c      	ldr	r0, [sp, #48]	; 0x30
  402e42:	f002 fb0b 	bl	40545c <__ssprint_r>
  402e46:	2800      	cmp	r0, #0
  402e48:	f47f a9d2 	bne.w	4021f0 <_svfprintf_r+0x1a4>
  402e4c:	9c27      	ldr	r4, [sp, #156]	; 0x9c
  402e4e:	9f26      	ldr	r7, [sp, #152]	; 0x98
  402e50:	46c8      	mov	r8, r9
  402e52:	e5f2      	b.n	402a3a <_svfprintf_r+0x9ee>
  402e54:	aa25      	add	r2, sp, #148	; 0x94
  402e56:	990b      	ldr	r1, [sp, #44]	; 0x2c
  402e58:	980c      	ldr	r0, [sp, #48]	; 0x30
  402e5a:	f002 faff 	bl	40545c <__ssprint_r>
  402e5e:	2800      	cmp	r0, #0
  402e60:	f47f a9c6 	bne.w	4021f0 <_svfprintf_r+0x1a4>
  402e64:	9c27      	ldr	r4, [sp, #156]	; 0x9c
  402e66:	9f26      	ldr	r7, [sp, #152]	; 0x98
  402e68:	46c8      	mov	r8, r9
  402e6a:	e5f5      	b.n	402a58 <_svfprintf_r+0xa0c>
  402e6c:	464e      	mov	r6, r9
  402e6e:	f7ff b9fd 	b.w	40226c <_svfprintf_r+0x220>
  402e72:	aa25      	add	r2, sp, #148	; 0x94
  402e74:	990b      	ldr	r1, [sp, #44]	; 0x2c
  402e76:	980c      	ldr	r0, [sp, #48]	; 0x30
  402e78:	f002 faf0 	bl	40545c <__ssprint_r>
  402e7c:	2800      	cmp	r0, #0
  402e7e:	f47f a9b7 	bne.w	4021f0 <_svfprintf_r+0x1a4>
  402e82:	9c27      	ldr	r4, [sp, #156]	; 0x9c
  402e84:	46c8      	mov	r8, r9
  402e86:	f7ff ba72 	b.w	40236e <_svfprintf_r+0x322>
  402e8a:	9c15      	ldr	r4, [sp, #84]	; 0x54
  402e8c:	4622      	mov	r2, r4
  402e8e:	4620      	mov	r0, r4
  402e90:	9c14      	ldr	r4, [sp, #80]	; 0x50
  402e92:	4623      	mov	r3, r4
  402e94:	4621      	mov	r1, r4
  402e96:	f003 fba7 	bl	4065e8 <__aeabi_dcmpun>
  402e9a:	2800      	cmp	r0, #0
  402e9c:	f040 8286 	bne.w	4033ac <_svfprintf_r+0x1360>
  402ea0:	9b0a      	ldr	r3, [sp, #40]	; 0x28
  402ea2:	3301      	adds	r3, #1
  402ea4:	9b11      	ldr	r3, [sp, #68]	; 0x44
  402ea6:	f023 0320 	bic.w	r3, r3, #32
  402eaa:	930e      	str	r3, [sp, #56]	; 0x38
  402eac:	f000 81e2 	beq.w	403274 <_svfprintf_r+0x1228>
  402eb0:	2b47      	cmp	r3, #71	; 0x47
  402eb2:	f000 811e 	beq.w	4030f2 <_svfprintf_r+0x10a6>
  402eb6:	f44b 7380 	orr.w	r3, fp, #256	; 0x100
  402eba:	9307      	str	r3, [sp, #28]
  402ebc:	9b14      	ldr	r3, [sp, #80]	; 0x50
  402ebe:	1e1f      	subs	r7, r3, #0
  402ec0:	9b15      	ldr	r3, [sp, #84]	; 0x54
  402ec2:	9308      	str	r3, [sp, #32]
  402ec4:	bfbb      	ittet	lt
  402ec6:	463b      	movlt	r3, r7
  402ec8:	f103 4700 	addlt.w	r7, r3, #2147483648	; 0x80000000
  402ecc:	2300      	movge	r3, #0
  402ece:	232d      	movlt	r3, #45	; 0x2d
  402ed0:	9310      	str	r3, [sp, #64]	; 0x40
  402ed2:	9b11      	ldr	r3, [sp, #68]	; 0x44
  402ed4:	2b66      	cmp	r3, #102	; 0x66
  402ed6:	f000 81bb 	beq.w	403250 <_svfprintf_r+0x1204>
  402eda:	2b46      	cmp	r3, #70	; 0x46
  402edc:	f000 80df 	beq.w	40309e <_svfprintf_r+0x1052>
  402ee0:	9b0e      	ldr	r3, [sp, #56]	; 0x38
  402ee2:	9a08      	ldr	r2, [sp, #32]
  402ee4:	2b45      	cmp	r3, #69	; 0x45
  402ee6:	bf0c      	ite	eq
  402ee8:	9b0a      	ldreq	r3, [sp, #40]	; 0x28
  402eea:	9d0a      	ldrne	r5, [sp, #40]	; 0x28
  402eec:	a823      	add	r0, sp, #140	; 0x8c
  402eee:	a920      	add	r1, sp, #128	; 0x80
  402ef0:	bf08      	it	eq
  402ef2:	1c5d      	addeq	r5, r3, #1
  402ef4:	9004      	str	r0, [sp, #16]
  402ef6:	9103      	str	r1, [sp, #12]
  402ef8:	a81f      	add	r0, sp, #124	; 0x7c
  402efa:	2102      	movs	r1, #2
  402efc:	463b      	mov	r3, r7
  402efe:	9002      	str	r0, [sp, #8]
  402f00:	9501      	str	r5, [sp, #4]
  402f02:	9100      	str	r1, [sp, #0]
  402f04:	980c      	ldr	r0, [sp, #48]	; 0x30
  402f06:	f000 fb73 	bl	4035f0 <_dtoa_r>
  402f0a:	9b11      	ldr	r3, [sp, #68]	; 0x44
  402f0c:	2b67      	cmp	r3, #103	; 0x67
  402f0e:	4606      	mov	r6, r0
  402f10:	f040 81e0 	bne.w	4032d4 <_svfprintf_r+0x1288>
  402f14:	f01b 0f01 	tst.w	fp, #1
  402f18:	f000 8246 	beq.w	4033a8 <_svfprintf_r+0x135c>
  402f1c:	1974      	adds	r4, r6, r5
  402f1e:	9a16      	ldr	r2, [sp, #88]	; 0x58
  402f20:	9808      	ldr	r0, [sp, #32]
  402f22:	9b17      	ldr	r3, [sp, #92]	; 0x5c
  402f24:	4639      	mov	r1, r7
  402f26:	f003 fb2d 	bl	406584 <__aeabi_dcmpeq>
  402f2a:	2800      	cmp	r0, #0
  402f2c:	f040 8165 	bne.w	4031fa <_svfprintf_r+0x11ae>
  402f30:	9b23      	ldr	r3, [sp, #140]	; 0x8c
  402f32:	42a3      	cmp	r3, r4
  402f34:	d206      	bcs.n	402f44 <_svfprintf_r+0xef8>
  402f36:	2130      	movs	r1, #48	; 0x30
  402f38:	1c5a      	adds	r2, r3, #1
  402f3a:	9223      	str	r2, [sp, #140]	; 0x8c
  402f3c:	7019      	strb	r1, [r3, #0]
  402f3e:	9b23      	ldr	r3, [sp, #140]	; 0x8c
  402f40:	429c      	cmp	r4, r3
  402f42:	d8f9      	bhi.n	402f38 <_svfprintf_r+0xeec>
  402f44:	1b9b      	subs	r3, r3, r6
  402f46:	9313      	str	r3, [sp, #76]	; 0x4c
  402f48:	9b0e      	ldr	r3, [sp, #56]	; 0x38
  402f4a:	2b47      	cmp	r3, #71	; 0x47
  402f4c:	f000 80e9 	beq.w	403122 <_svfprintf_r+0x10d6>
  402f50:	9b11      	ldr	r3, [sp, #68]	; 0x44
  402f52:	2b65      	cmp	r3, #101	; 0x65
  402f54:	f340 81cd 	ble.w	4032f2 <_svfprintf_r+0x12a6>
  402f58:	9b11      	ldr	r3, [sp, #68]	; 0x44
  402f5a:	2b66      	cmp	r3, #102	; 0x66
  402f5c:	9b1f      	ldr	r3, [sp, #124]	; 0x7c
  402f5e:	9312      	str	r3, [sp, #72]	; 0x48
  402f60:	f000 819e 	beq.w	4032a0 <_svfprintf_r+0x1254>
  402f64:	9b13      	ldr	r3, [sp, #76]	; 0x4c
  402f66:	9a12      	ldr	r2, [sp, #72]	; 0x48
  402f68:	4619      	mov	r1, r3
  402f6a:	4291      	cmp	r1, r2
  402f6c:	f300 818a 	bgt.w	403284 <_svfprintf_r+0x1238>
  402f70:	f01b 0f01 	tst.w	fp, #1
  402f74:	f040 8213 	bne.w	40339e <_svfprintf_r+0x1352>
  402f78:	ea22 73e2 	bic.w	r3, r2, r2, asr #31
  402f7c:	9308      	str	r3, [sp, #32]
  402f7e:	2367      	movs	r3, #103	; 0x67
  402f80:	920e      	str	r2, [sp, #56]	; 0x38
  402f82:	9311      	str	r3, [sp, #68]	; 0x44
  402f84:	9b10      	ldr	r3, [sp, #64]	; 0x40
  402f86:	2b00      	cmp	r3, #0
  402f88:	f040 80c4 	bne.w	403114 <_svfprintf_r+0x10c8>
  402f8c:	930a      	str	r3, [sp, #40]	; 0x28
  402f8e:	f89d 7077 	ldrb.w	r7, [sp, #119]	; 0x77
  402f92:	f7ff b973 	b.w	40227c <_svfprintf_r+0x230>
  402f96:	4635      	mov	r5, r6
  402f98:	460c      	mov	r4, r1
  402f9a:	4646      	mov	r6, r8
  402f9c:	4690      	mov	r8, r2
  402f9e:	3301      	adds	r3, #1
  402fa0:	443c      	add	r4, r7
  402fa2:	2b07      	cmp	r3, #7
  402fa4:	9427      	str	r4, [sp, #156]	; 0x9c
  402fa6:	9326      	str	r3, [sp, #152]	; 0x98
  402fa8:	e888 00a0 	stmia.w	r8, {r5, r7}
  402fac:	f73f aed1 	bgt.w	402d52 <_svfprintf_r+0xd06>
  402fb0:	f108 0808 	add.w	r8, r8, #8
  402fb4:	e6d7      	b.n	402d66 <_svfprintf_r+0xd1a>
  402fb6:	9a0f      	ldr	r2, [sp, #60]	; 0x3c
  402fb8:	6813      	ldr	r3, [r2, #0]
  402fba:	3204      	adds	r2, #4
  402fbc:	920f      	str	r2, [sp, #60]	; 0x3c
  402fbe:	9a09      	ldr	r2, [sp, #36]	; 0x24
  402fc0:	601a      	str	r2, [r3, #0]
  402fc2:	f7ff b86a 	b.w	40209a <_svfprintf_r+0x4e>
  402fc6:	aa25      	add	r2, sp, #148	; 0x94
  402fc8:	990b      	ldr	r1, [sp, #44]	; 0x2c
  402fca:	980c      	ldr	r0, [sp, #48]	; 0x30
  402fcc:	f002 fa46 	bl	40545c <__ssprint_r>
  402fd0:	2800      	cmp	r0, #0
  402fd2:	f47f a90d 	bne.w	4021f0 <_svfprintf_r+0x1a4>
  402fd6:	46c8      	mov	r8, r9
  402fd8:	e48d      	b.n	4028f6 <_svfprintf_r+0x8aa>
  402fda:	9b26      	ldr	r3, [sp, #152]	; 0x98
  402fdc:	4a27      	ldr	r2, [pc, #156]	; (40307c <_svfprintf_r+0x1030>)
  402fde:	f8c8 2000 	str.w	r2, [r8]
  402fe2:	3301      	adds	r3, #1
  402fe4:	3401      	adds	r4, #1
  402fe6:	2201      	movs	r2, #1
  402fe8:	2b07      	cmp	r3, #7
  402fea:	9427      	str	r4, [sp, #156]	; 0x9c
  402fec:	9326      	str	r3, [sp, #152]	; 0x98
  402fee:	f8c8 2004 	str.w	r2, [r8, #4]
  402ff2:	dc72      	bgt.n	4030da <_svfprintf_r+0x108e>
  402ff4:	f108 0808 	add.w	r8, r8, #8
  402ff8:	b929      	cbnz	r1, 403006 <_svfprintf_r+0xfba>
  402ffa:	9b13      	ldr	r3, [sp, #76]	; 0x4c
  402ffc:	b91b      	cbnz	r3, 403006 <_svfprintf_r+0xfba>
  402ffe:	9b07      	ldr	r3, [sp, #28]
  403000:	07d8      	lsls	r0, r3, #31
  403002:	f57f aa03 	bpl.w	40240c <_svfprintf_r+0x3c0>
  403006:	9b26      	ldr	r3, [sp, #152]	; 0x98
  403008:	9819      	ldr	r0, [sp, #100]	; 0x64
  40300a:	9a1a      	ldr	r2, [sp, #104]	; 0x68
  40300c:	f8c8 2000 	str.w	r2, [r8]
  403010:	3301      	adds	r3, #1
  403012:	4602      	mov	r2, r0
  403014:	4422      	add	r2, r4
  403016:	2b07      	cmp	r3, #7
  403018:	9227      	str	r2, [sp, #156]	; 0x9c
  40301a:	f8c8 0004 	str.w	r0, [r8, #4]
  40301e:	9326      	str	r3, [sp, #152]	; 0x98
  403020:	f300 818d 	bgt.w	40333e <_svfprintf_r+0x12f2>
  403024:	f108 0808 	add.w	r8, r8, #8
  403028:	2900      	cmp	r1, #0
  40302a:	f2c0 8165 	blt.w	4032f8 <_svfprintf_r+0x12ac>
  40302e:	9913      	ldr	r1, [sp, #76]	; 0x4c
  403030:	f8c8 6000 	str.w	r6, [r8]
  403034:	3301      	adds	r3, #1
  403036:	188c      	adds	r4, r1, r2
  403038:	2b07      	cmp	r3, #7
  40303a:	9427      	str	r4, [sp, #156]	; 0x9c
  40303c:	9326      	str	r3, [sp, #152]	; 0x98
  40303e:	f8c8 1004 	str.w	r1, [r8, #4]
  403042:	f77f a9e1 	ble.w	402408 <_svfprintf_r+0x3bc>
  403046:	e52c      	b.n	402aa2 <_svfprintf_r+0xa56>
  403048:	9a0f      	ldr	r2, [sp, #60]	; 0x3c
  40304a:	9909      	ldr	r1, [sp, #36]	; 0x24
  40304c:	6813      	ldr	r3, [r2, #0]
  40304e:	17cd      	asrs	r5, r1, #31
  403050:	4608      	mov	r0, r1
  403052:	3204      	adds	r2, #4
  403054:	4629      	mov	r1, r5
  403056:	920f      	str	r2, [sp, #60]	; 0x3c
  403058:	e9c3 0100 	strd	r0, r1, [r3]
  40305c:	f7ff b81d 	b.w	40209a <_svfprintf_r+0x4e>
  403060:	aa25      	add	r2, sp, #148	; 0x94
  403062:	990b      	ldr	r1, [sp, #44]	; 0x2c
  403064:	980c      	ldr	r0, [sp, #48]	; 0x30
  403066:	f002 f9f9 	bl	40545c <__ssprint_r>
  40306a:	2800      	cmp	r0, #0
  40306c:	f47f a8c0 	bne.w	4021f0 <_svfprintf_r+0x1a4>
  403070:	9c27      	ldr	r4, [sp, #156]	; 0x9c
  403072:	46c8      	mov	r8, r9
  403074:	e458      	b.n	402928 <_svfprintf_r+0x8dc>
  403076:	bf00      	nop
  403078:	004076c0 	.word	0x004076c0
  40307c:	004076ac 	.word	0x004076ac
  403080:	2140      	movs	r1, #64	; 0x40
  403082:	980c      	ldr	r0, [sp, #48]	; 0x30
  403084:	f001 fa0a 	bl	40449c <_malloc_r>
  403088:	9a0b      	ldr	r2, [sp, #44]	; 0x2c
  40308a:	6010      	str	r0, [r2, #0]
  40308c:	6110      	str	r0, [r2, #16]
  40308e:	2800      	cmp	r0, #0
  403090:	f000 81f2 	beq.w	403478 <_svfprintf_r+0x142c>
  403094:	9a0b      	ldr	r2, [sp, #44]	; 0x2c
  403096:	2340      	movs	r3, #64	; 0x40
  403098:	6153      	str	r3, [r2, #20]
  40309a:	f7fe bfee 	b.w	40207a <_svfprintf_r+0x2e>
  40309e:	a823      	add	r0, sp, #140	; 0x8c
  4030a0:	a920      	add	r1, sp, #128	; 0x80
  4030a2:	9c0a      	ldr	r4, [sp, #40]	; 0x28
  4030a4:	9004      	str	r0, [sp, #16]
  4030a6:	9103      	str	r1, [sp, #12]
  4030a8:	a81f      	add	r0, sp, #124	; 0x7c
  4030aa:	2103      	movs	r1, #3
  4030ac:	9002      	str	r0, [sp, #8]
  4030ae:	9a08      	ldr	r2, [sp, #32]
  4030b0:	9401      	str	r4, [sp, #4]
  4030b2:	463b      	mov	r3, r7
  4030b4:	9100      	str	r1, [sp, #0]
  4030b6:	980c      	ldr	r0, [sp, #48]	; 0x30
  4030b8:	f000 fa9a 	bl	4035f0 <_dtoa_r>
  4030bc:	4625      	mov	r5, r4
  4030be:	4606      	mov	r6, r0
  4030c0:	9b11      	ldr	r3, [sp, #68]	; 0x44
  4030c2:	2b46      	cmp	r3, #70	; 0x46
  4030c4:	eb06 0405 	add.w	r4, r6, r5
  4030c8:	f47f af29 	bne.w	402f1e <_svfprintf_r+0xed2>
  4030cc:	7833      	ldrb	r3, [r6, #0]
  4030ce:	2b30      	cmp	r3, #48	; 0x30
  4030d0:	f000 8178 	beq.w	4033c4 <_svfprintf_r+0x1378>
  4030d4:	9d1f      	ldr	r5, [sp, #124]	; 0x7c
  4030d6:	442c      	add	r4, r5
  4030d8:	e721      	b.n	402f1e <_svfprintf_r+0xed2>
  4030da:	aa25      	add	r2, sp, #148	; 0x94
  4030dc:	990b      	ldr	r1, [sp, #44]	; 0x2c
  4030de:	980c      	ldr	r0, [sp, #48]	; 0x30
  4030e0:	f002 f9bc 	bl	40545c <__ssprint_r>
  4030e4:	2800      	cmp	r0, #0
  4030e6:	f47f a883 	bne.w	4021f0 <_svfprintf_r+0x1a4>
  4030ea:	991f      	ldr	r1, [sp, #124]	; 0x7c
  4030ec:	9c27      	ldr	r4, [sp, #156]	; 0x9c
  4030ee:	46c8      	mov	r8, r9
  4030f0:	e782      	b.n	402ff8 <_svfprintf_r+0xfac>
  4030f2:	9b0a      	ldr	r3, [sp, #40]	; 0x28
  4030f4:	2b00      	cmp	r3, #0
  4030f6:	bf08      	it	eq
  4030f8:	2301      	moveq	r3, #1
  4030fa:	930a      	str	r3, [sp, #40]	; 0x28
  4030fc:	e6db      	b.n	402eb6 <_svfprintf_r+0xe6a>
  4030fe:	4630      	mov	r0, r6
  403100:	940a      	str	r4, [sp, #40]	; 0x28
  403102:	f002 f93d 	bl	405380 <strlen>
  403106:	950f      	str	r5, [sp, #60]	; 0x3c
  403108:	900e      	str	r0, [sp, #56]	; 0x38
  40310a:	f8cd b01c 	str.w	fp, [sp, #28]
  40310e:	4603      	mov	r3, r0
  403110:	f7ff b9f9 	b.w	402506 <_svfprintf_r+0x4ba>
  403114:	272d      	movs	r7, #45	; 0x2d
  403116:	2300      	movs	r3, #0
  403118:	f88d 7077 	strb.w	r7, [sp, #119]	; 0x77
  40311c:	930a      	str	r3, [sp, #40]	; 0x28
  40311e:	f7ff b8ae 	b.w	40227e <_svfprintf_r+0x232>
  403122:	9b1f      	ldr	r3, [sp, #124]	; 0x7c
  403124:	9312      	str	r3, [sp, #72]	; 0x48
  403126:	461a      	mov	r2, r3
  403128:	3303      	adds	r3, #3
  40312a:	db04      	blt.n	403136 <_svfprintf_r+0x10ea>
  40312c:	9b0a      	ldr	r3, [sp, #40]	; 0x28
  40312e:	4619      	mov	r1, r3
  403130:	4291      	cmp	r1, r2
  403132:	f6bf af17 	bge.w	402f64 <_svfprintf_r+0xf18>
  403136:	9b11      	ldr	r3, [sp, #68]	; 0x44
  403138:	3b02      	subs	r3, #2
  40313a:	9311      	str	r3, [sp, #68]	; 0x44
  40313c:	f89d 3044 	ldrb.w	r3, [sp, #68]	; 0x44
  403140:	f88d 3084 	strb.w	r3, [sp, #132]	; 0x84
  403144:	9b12      	ldr	r3, [sp, #72]	; 0x48
  403146:	3b01      	subs	r3, #1
  403148:	2b00      	cmp	r3, #0
  40314a:	931f      	str	r3, [sp, #124]	; 0x7c
  40314c:	bfbd      	ittte	lt
  40314e:	9b12      	ldrlt	r3, [sp, #72]	; 0x48
  403150:	f1c3 0301 	rsblt	r3, r3, #1
  403154:	222d      	movlt	r2, #45	; 0x2d
  403156:	222b      	movge	r2, #43	; 0x2b
  403158:	2b09      	cmp	r3, #9
  40315a:	f88d 2085 	strb.w	r2, [sp, #133]	; 0x85
  40315e:	f340 8116 	ble.w	40338e <_svfprintf_r+0x1342>
  403162:	f10d 0493 	add.w	r4, sp, #147	; 0x93
  403166:	4620      	mov	r0, r4
  403168:	4dab      	ldr	r5, [pc, #684]	; (403418 <_svfprintf_r+0x13cc>)
  40316a:	e000      	b.n	40316e <_svfprintf_r+0x1122>
  40316c:	4610      	mov	r0, r2
  40316e:	fb85 1203 	smull	r1, r2, r5, r3
  403172:	17d9      	asrs	r1, r3, #31
  403174:	ebc1 01a2 	rsb	r1, r1, r2, asr #2
  403178:	eb01 0281 	add.w	r2, r1, r1, lsl #2
  40317c:	eba3 0242 	sub.w	r2, r3, r2, lsl #1
  403180:	3230      	adds	r2, #48	; 0x30
  403182:	2909      	cmp	r1, #9
  403184:	f800 2c01 	strb.w	r2, [r0, #-1]
  403188:	460b      	mov	r3, r1
  40318a:	f100 32ff 	add.w	r2, r0, #4294967295
  40318e:	dced      	bgt.n	40316c <_svfprintf_r+0x1120>
  403190:	3330      	adds	r3, #48	; 0x30
  403192:	3802      	subs	r0, #2
  403194:	b2d9      	uxtb	r1, r3
  403196:	4284      	cmp	r4, r0
  403198:	f802 1c01 	strb.w	r1, [r2, #-1]
  40319c:	f240 8165 	bls.w	40346a <_svfprintf_r+0x141e>
  4031a0:	f10d 0086 	add.w	r0, sp, #134	; 0x86
  4031a4:	4613      	mov	r3, r2
  4031a6:	e001      	b.n	4031ac <_svfprintf_r+0x1160>
  4031a8:	f813 1b01 	ldrb.w	r1, [r3], #1
  4031ac:	f800 1b01 	strb.w	r1, [r0], #1
  4031b0:	42a3      	cmp	r3, r4
  4031b2:	d1f9      	bne.n	4031a8 <_svfprintf_r+0x115c>
  4031b4:	3301      	adds	r3, #1
  4031b6:	1a9b      	subs	r3, r3, r2
  4031b8:	f10d 0286 	add.w	r2, sp, #134	; 0x86
  4031bc:	4413      	add	r3, r2
  4031be:	aa21      	add	r2, sp, #132	; 0x84
  4031c0:	1a9b      	subs	r3, r3, r2
  4031c2:	9a13      	ldr	r2, [sp, #76]	; 0x4c
  4031c4:	931b      	str	r3, [sp, #108]	; 0x6c
  4031c6:	2a01      	cmp	r2, #1
  4031c8:	4413      	add	r3, r2
  4031ca:	930e      	str	r3, [sp, #56]	; 0x38
  4031cc:	f340 8119 	ble.w	403402 <_svfprintf_r+0x13b6>
  4031d0:	9b0e      	ldr	r3, [sp, #56]	; 0x38
  4031d2:	9a19      	ldr	r2, [sp, #100]	; 0x64
  4031d4:	4413      	add	r3, r2
  4031d6:	930e      	str	r3, [sp, #56]	; 0x38
  4031d8:	ea23 73e3 	bic.w	r3, r3, r3, asr #31
  4031dc:	9308      	str	r3, [sp, #32]
  4031de:	2300      	movs	r3, #0
  4031e0:	9312      	str	r3, [sp, #72]	; 0x48
  4031e2:	e6cf      	b.n	402f84 <_svfprintf_r+0xf38>
  4031e4:	aa25      	add	r2, sp, #148	; 0x94
  4031e6:	990b      	ldr	r1, [sp, #44]	; 0x2c
  4031e8:	980c      	ldr	r0, [sp, #48]	; 0x30
  4031ea:	f002 f937 	bl	40545c <__ssprint_r>
  4031ee:	2800      	cmp	r0, #0
  4031f0:	f47e affe 	bne.w	4021f0 <_svfprintf_r+0x1a4>
  4031f4:	9c27      	ldr	r4, [sp, #156]	; 0x9c
  4031f6:	46c8      	mov	r8, r9
  4031f8:	e4d7      	b.n	402baa <_svfprintf_r+0xb5e>
  4031fa:	4623      	mov	r3, r4
  4031fc:	e6a2      	b.n	402f44 <_svfprintf_r+0xef8>
  4031fe:	aa25      	add	r2, sp, #148	; 0x94
  403200:	990b      	ldr	r1, [sp, #44]	; 0x2c
  403202:	980c      	ldr	r0, [sp, #48]	; 0x30
  403204:	f002 f92a 	bl	40545c <__ssprint_r>
  403208:	2800      	cmp	r0, #0
  40320a:	f47e aff1 	bne.w	4021f0 <_svfprintf_r+0x1a4>
  40320e:	9a1f      	ldr	r2, [sp, #124]	; 0x7c
  403210:	9c27      	ldr	r4, [sp, #156]	; 0x9c
  403212:	46c8      	mov	r8, r9
  403214:	e5ae      	b.n	402d74 <_svfprintf_r+0xd28>
  403216:	aa25      	add	r2, sp, #148	; 0x94
  403218:	990b      	ldr	r1, [sp, #44]	; 0x2c
  40321a:	980c      	ldr	r0, [sp, #48]	; 0x30
  40321c:	f002 f91e 	bl	40545c <__ssprint_r>
  403220:	2800      	cmp	r0, #0
  403222:	f47e afe5 	bne.w	4021f0 <_svfprintf_r+0x1a4>
  403226:	9a1f      	ldr	r2, [sp, #124]	; 0x7c
  403228:	9b13      	ldr	r3, [sp, #76]	; 0x4c
  40322a:	9c27      	ldr	r4, [sp, #156]	; 0x9c
  40322c:	1a9a      	subs	r2, r3, r2
  40322e:	46c8      	mov	r8, r9
  403230:	e5b8      	b.n	402da4 <_svfprintf_r+0xd58>
  403232:	9b0a      	ldr	r3, [sp, #40]	; 0x28
  403234:	9612      	str	r6, [sp, #72]	; 0x48
  403236:	2b06      	cmp	r3, #6
  403238:	bf28      	it	cs
  40323a:	2306      	movcs	r3, #6
  40323c:	960a      	str	r6, [sp, #40]	; 0x28
  40323e:	4637      	mov	r7, r6
  403240:	9308      	str	r3, [sp, #32]
  403242:	950f      	str	r5, [sp, #60]	; 0x3c
  403244:	f8cd b01c 	str.w	fp, [sp, #28]
  403248:	930e      	str	r3, [sp, #56]	; 0x38
  40324a:	4e74      	ldr	r6, [pc, #464]	; (40341c <_svfprintf_r+0x13d0>)
  40324c:	f7ff b816 	b.w	40227c <_svfprintf_r+0x230>
  403250:	a823      	add	r0, sp, #140	; 0x8c
  403252:	a920      	add	r1, sp, #128	; 0x80
  403254:	9d0a      	ldr	r5, [sp, #40]	; 0x28
  403256:	9004      	str	r0, [sp, #16]
  403258:	9103      	str	r1, [sp, #12]
  40325a:	a81f      	add	r0, sp, #124	; 0x7c
  40325c:	2103      	movs	r1, #3
  40325e:	9002      	str	r0, [sp, #8]
  403260:	9a08      	ldr	r2, [sp, #32]
  403262:	9501      	str	r5, [sp, #4]
  403264:	463b      	mov	r3, r7
  403266:	9100      	str	r1, [sp, #0]
  403268:	980c      	ldr	r0, [sp, #48]	; 0x30
  40326a:	f000 f9c1 	bl	4035f0 <_dtoa_r>
  40326e:	4606      	mov	r6, r0
  403270:	1944      	adds	r4, r0, r5
  403272:	e72b      	b.n	4030cc <_svfprintf_r+0x1080>
  403274:	2306      	movs	r3, #6
  403276:	930a      	str	r3, [sp, #40]	; 0x28
  403278:	e61d      	b.n	402eb6 <_svfprintf_r+0xe6a>
  40327a:	272d      	movs	r7, #45	; 0x2d
  40327c:	f88d 7077 	strb.w	r7, [sp, #119]	; 0x77
  403280:	f7ff bacd 	b.w	40281e <_svfprintf_r+0x7d2>
  403284:	9a19      	ldr	r2, [sp, #100]	; 0x64
  403286:	9b13      	ldr	r3, [sp, #76]	; 0x4c
  403288:	4413      	add	r3, r2
  40328a:	9a12      	ldr	r2, [sp, #72]	; 0x48
  40328c:	930e      	str	r3, [sp, #56]	; 0x38
  40328e:	2a00      	cmp	r2, #0
  403290:	f340 80b0 	ble.w	4033f4 <_svfprintf_r+0x13a8>
  403294:	ea23 73e3 	bic.w	r3, r3, r3, asr #31
  403298:	9308      	str	r3, [sp, #32]
  40329a:	2367      	movs	r3, #103	; 0x67
  40329c:	9311      	str	r3, [sp, #68]	; 0x44
  40329e:	e671      	b.n	402f84 <_svfprintf_r+0xf38>
  4032a0:	2b00      	cmp	r3, #0
  4032a2:	f340 80c3 	ble.w	40342c <_svfprintf_r+0x13e0>
  4032a6:	9a0a      	ldr	r2, [sp, #40]	; 0x28
  4032a8:	2a00      	cmp	r2, #0
  4032aa:	f040 8099 	bne.w	4033e0 <_svfprintf_r+0x1394>
  4032ae:	f01b 0f01 	tst.w	fp, #1
  4032b2:	f040 8095 	bne.w	4033e0 <_svfprintf_r+0x1394>
  4032b6:	9308      	str	r3, [sp, #32]
  4032b8:	930e      	str	r3, [sp, #56]	; 0x38
  4032ba:	e663      	b.n	402f84 <_svfprintf_r+0xf38>
  4032bc:	9b0a      	ldr	r3, [sp, #40]	; 0x28
  4032be:	9308      	str	r3, [sp, #32]
  4032c0:	930e      	str	r3, [sp, #56]	; 0x38
  4032c2:	900a      	str	r0, [sp, #40]	; 0x28
  4032c4:	950f      	str	r5, [sp, #60]	; 0x3c
  4032c6:	f8cd b01c 	str.w	fp, [sp, #28]
  4032ca:	9012      	str	r0, [sp, #72]	; 0x48
  4032cc:	f89d 7077 	ldrb.w	r7, [sp, #119]	; 0x77
  4032d0:	f7fe bfd4 	b.w	40227c <_svfprintf_r+0x230>
  4032d4:	9b11      	ldr	r3, [sp, #68]	; 0x44
  4032d6:	2b47      	cmp	r3, #71	; 0x47
  4032d8:	f47f ae20 	bne.w	402f1c <_svfprintf_r+0xed0>
  4032dc:	f01b 0f01 	tst.w	fp, #1
  4032e0:	f47f aeee 	bne.w	4030c0 <_svfprintf_r+0x1074>
  4032e4:	9b23      	ldr	r3, [sp, #140]	; 0x8c
  4032e6:	1b9b      	subs	r3, r3, r6
  4032e8:	9313      	str	r3, [sp, #76]	; 0x4c
  4032ea:	9b0e      	ldr	r3, [sp, #56]	; 0x38
  4032ec:	2b47      	cmp	r3, #71	; 0x47
  4032ee:	f43f af18 	beq.w	403122 <_svfprintf_r+0x10d6>
  4032f2:	9b1f      	ldr	r3, [sp, #124]	; 0x7c
  4032f4:	9312      	str	r3, [sp, #72]	; 0x48
  4032f6:	e721      	b.n	40313c <_svfprintf_r+0x10f0>
  4032f8:	424f      	negs	r7, r1
  4032fa:	3110      	adds	r1, #16
  4032fc:	4d48      	ldr	r5, [pc, #288]	; (403420 <_svfprintf_r+0x13d4>)
  4032fe:	da2f      	bge.n	403360 <_svfprintf_r+0x1314>
  403300:	2410      	movs	r4, #16
  403302:	f8dd b030 	ldr.w	fp, [sp, #48]	; 0x30
  403306:	e004      	b.n	403312 <_svfprintf_r+0x12c6>
  403308:	f108 0808 	add.w	r8, r8, #8
  40330c:	3f10      	subs	r7, #16
  40330e:	2f10      	cmp	r7, #16
  403310:	dd26      	ble.n	403360 <_svfprintf_r+0x1314>
  403312:	3301      	adds	r3, #1
  403314:	3210      	adds	r2, #16
  403316:	2b07      	cmp	r3, #7
  403318:	9227      	str	r2, [sp, #156]	; 0x9c
  40331a:	9326      	str	r3, [sp, #152]	; 0x98
  40331c:	f8c8 5000 	str.w	r5, [r8]
  403320:	f8c8 4004 	str.w	r4, [r8, #4]
  403324:	ddf0      	ble.n	403308 <_svfprintf_r+0x12bc>
  403326:	aa25      	add	r2, sp, #148	; 0x94
  403328:	990b      	ldr	r1, [sp, #44]	; 0x2c
  40332a:	4658      	mov	r0, fp
  40332c:	f002 f896 	bl	40545c <__ssprint_r>
  403330:	2800      	cmp	r0, #0
  403332:	f47e af5d 	bne.w	4021f0 <_svfprintf_r+0x1a4>
  403336:	9a27      	ldr	r2, [sp, #156]	; 0x9c
  403338:	9b26      	ldr	r3, [sp, #152]	; 0x98
  40333a:	46c8      	mov	r8, r9
  40333c:	e7e6      	b.n	40330c <_svfprintf_r+0x12c0>
  40333e:	aa25      	add	r2, sp, #148	; 0x94
  403340:	990b      	ldr	r1, [sp, #44]	; 0x2c
  403342:	980c      	ldr	r0, [sp, #48]	; 0x30
  403344:	f002 f88a 	bl	40545c <__ssprint_r>
  403348:	2800      	cmp	r0, #0
  40334a:	f47e af51 	bne.w	4021f0 <_svfprintf_r+0x1a4>
  40334e:	991f      	ldr	r1, [sp, #124]	; 0x7c
  403350:	9a27      	ldr	r2, [sp, #156]	; 0x9c
  403352:	9b26      	ldr	r3, [sp, #152]	; 0x98
  403354:	46c8      	mov	r8, r9
  403356:	e667      	b.n	403028 <_svfprintf_r+0xfdc>
  403358:	2000      	movs	r0, #0
  40335a:	900a      	str	r0, [sp, #40]	; 0x28
  40335c:	f7fe bed0 	b.w	402100 <_svfprintf_r+0xb4>
  403360:	3301      	adds	r3, #1
  403362:	443a      	add	r2, r7
  403364:	2b07      	cmp	r3, #7
  403366:	e888 00a0 	stmia.w	r8, {r5, r7}
  40336a:	9227      	str	r2, [sp, #156]	; 0x9c
  40336c:	9326      	str	r3, [sp, #152]	; 0x98
  40336e:	f108 0808 	add.w	r8, r8, #8
  403372:	f77f ae5c 	ble.w	40302e <_svfprintf_r+0xfe2>
  403376:	aa25      	add	r2, sp, #148	; 0x94
  403378:	990b      	ldr	r1, [sp, #44]	; 0x2c
  40337a:	980c      	ldr	r0, [sp, #48]	; 0x30
  40337c:	f002 f86e 	bl	40545c <__ssprint_r>
  403380:	2800      	cmp	r0, #0
  403382:	f47e af35 	bne.w	4021f0 <_svfprintf_r+0x1a4>
  403386:	9a27      	ldr	r2, [sp, #156]	; 0x9c
  403388:	9b26      	ldr	r3, [sp, #152]	; 0x98
  40338a:	46c8      	mov	r8, r9
  40338c:	e64f      	b.n	40302e <_svfprintf_r+0xfe2>
  40338e:	3330      	adds	r3, #48	; 0x30
  403390:	2230      	movs	r2, #48	; 0x30
  403392:	f88d 3087 	strb.w	r3, [sp, #135]	; 0x87
  403396:	f88d 2086 	strb.w	r2, [sp, #134]	; 0x86
  40339a:	ab22      	add	r3, sp, #136	; 0x88
  40339c:	e70f      	b.n	4031be <_svfprintf_r+0x1172>
  40339e:	9b12      	ldr	r3, [sp, #72]	; 0x48
  4033a0:	9a19      	ldr	r2, [sp, #100]	; 0x64
  4033a2:	4413      	add	r3, r2
  4033a4:	930e      	str	r3, [sp, #56]	; 0x38
  4033a6:	e775      	b.n	403294 <_svfprintf_r+0x1248>
  4033a8:	9b23      	ldr	r3, [sp, #140]	; 0x8c
  4033aa:	e5cb      	b.n	402f44 <_svfprintf_r+0xef8>
  4033ac:	9b14      	ldr	r3, [sp, #80]	; 0x50
  4033ae:	4e1d      	ldr	r6, [pc, #116]	; (403424 <_svfprintf_r+0x13d8>)
  4033b0:	2b00      	cmp	r3, #0
  4033b2:	bfb6      	itet	lt
  4033b4:	272d      	movlt	r7, #45	; 0x2d
  4033b6:	f89d 7077 	ldrbge.w	r7, [sp, #119]	; 0x77
  4033ba:	f88d 7077 	strblt.w	r7, [sp, #119]	; 0x77
  4033be:	4b1a      	ldr	r3, [pc, #104]	; (403428 <_svfprintf_r+0x13dc>)
  4033c0:	f7ff ba2f 	b.w	402822 <_svfprintf_r+0x7d6>
  4033c4:	9a16      	ldr	r2, [sp, #88]	; 0x58
  4033c6:	9808      	ldr	r0, [sp, #32]
  4033c8:	9b17      	ldr	r3, [sp, #92]	; 0x5c
  4033ca:	4639      	mov	r1, r7
  4033cc:	f003 f8da 	bl	406584 <__aeabi_dcmpeq>
  4033d0:	2800      	cmp	r0, #0
  4033d2:	f47f ae7f 	bne.w	4030d4 <_svfprintf_r+0x1088>
  4033d6:	f1c5 0501 	rsb	r5, r5, #1
  4033da:	951f      	str	r5, [sp, #124]	; 0x7c
  4033dc:	442c      	add	r4, r5
  4033de:	e59e      	b.n	402f1e <_svfprintf_r+0xed2>
  4033e0:	9b12      	ldr	r3, [sp, #72]	; 0x48
  4033e2:	9a19      	ldr	r2, [sp, #100]	; 0x64
  4033e4:	4413      	add	r3, r2
  4033e6:	9a0a      	ldr	r2, [sp, #40]	; 0x28
  4033e8:	441a      	add	r2, r3
  4033ea:	ea22 73e2 	bic.w	r3, r2, r2, asr #31
  4033ee:	920e      	str	r2, [sp, #56]	; 0x38
  4033f0:	9308      	str	r3, [sp, #32]
  4033f2:	e5c7      	b.n	402f84 <_svfprintf_r+0xf38>
  4033f4:	9b12      	ldr	r3, [sp, #72]	; 0x48
  4033f6:	9a0e      	ldr	r2, [sp, #56]	; 0x38
  4033f8:	f1c3 0301 	rsb	r3, r3, #1
  4033fc:	441a      	add	r2, r3
  4033fe:	4613      	mov	r3, r2
  403400:	e7d0      	b.n	4033a4 <_svfprintf_r+0x1358>
  403402:	f01b 0301 	ands.w	r3, fp, #1
  403406:	9312      	str	r3, [sp, #72]	; 0x48
  403408:	f47f aee2 	bne.w	4031d0 <_svfprintf_r+0x1184>
  40340c:	9b0e      	ldr	r3, [sp, #56]	; 0x38
  40340e:	ea23 73e3 	bic.w	r3, r3, r3, asr #31
  403412:	9308      	str	r3, [sp, #32]
  403414:	e5b6      	b.n	402f84 <_svfprintf_r+0xf38>
  403416:	bf00      	nop
  403418:	66666667 	.word	0x66666667
  40341c:	004076a4 	.word	0x004076a4
  403420:	004076c0 	.word	0x004076c0
  403424:	00407678 	.word	0x00407678
  403428:	00407674 	.word	0x00407674
  40342c:	9b0a      	ldr	r3, [sp, #40]	; 0x28
  40342e:	b913      	cbnz	r3, 403436 <_svfprintf_r+0x13ea>
  403430:	f01b 0f01 	tst.w	fp, #1
  403434:	d002      	beq.n	40343c <_svfprintf_r+0x13f0>
  403436:	9b19      	ldr	r3, [sp, #100]	; 0x64
  403438:	3301      	adds	r3, #1
  40343a:	e7d4      	b.n	4033e6 <_svfprintf_r+0x139a>
  40343c:	2301      	movs	r3, #1
  40343e:	e73a      	b.n	4032b6 <_svfprintf_r+0x126a>
  403440:	9d0f      	ldr	r5, [sp, #60]	; 0x3c
  403442:	f89a 3001 	ldrb.w	r3, [sl, #1]
  403446:	6828      	ldr	r0, [r5, #0]
  403448:	ea40 70e0 	orr.w	r0, r0, r0, asr #31
  40344c:	900a      	str	r0, [sp, #40]	; 0x28
  40344e:	4628      	mov	r0, r5
  403450:	3004      	adds	r0, #4
  403452:	46a2      	mov	sl, r4
  403454:	900f      	str	r0, [sp, #60]	; 0x3c
  403456:	f7fe be51 	b.w	4020fc <_svfprintf_r+0xb0>
  40345a:	f88d 1077 	strb.w	r1, [sp, #119]	; 0x77
  40345e:	f7ff b867 	b.w	402530 <_svfprintf_r+0x4e4>
  403462:	f88d 1077 	strb.w	r1, [sp, #119]	; 0x77
  403466:	f7ff ba15 	b.w	402894 <_svfprintf_r+0x848>
  40346a:	f10d 0386 	add.w	r3, sp, #134	; 0x86
  40346e:	e6a6      	b.n	4031be <_svfprintf_r+0x1172>
  403470:	f88d 1077 	strb.w	r1, [sp, #119]	; 0x77
  403474:	f7ff b8eb 	b.w	40264e <_svfprintf_r+0x602>
  403478:	9a0c      	ldr	r2, [sp, #48]	; 0x30
  40347a:	230c      	movs	r3, #12
  40347c:	6013      	str	r3, [r2, #0]
  40347e:	f04f 33ff 	mov.w	r3, #4294967295
  403482:	9309      	str	r3, [sp, #36]	; 0x24
  403484:	f7fe bebd 	b.w	402202 <_svfprintf_r+0x1b6>
  403488:	f88d 1077 	strb.w	r1, [sp, #119]	; 0x77
  40348c:	f7ff b99a 	b.w	4027c4 <_svfprintf_r+0x778>
  403490:	f88d 1077 	strb.w	r1, [sp, #119]	; 0x77
  403494:	f7ff b976 	b.w	402784 <_svfprintf_r+0x738>
  403498:	f88d 1077 	strb.w	r1, [sp, #119]	; 0x77
  40349c:	f7ff b959 	b.w	402752 <_svfprintf_r+0x706>
  4034a0:	f88d 1077 	strb.w	r1, [sp, #119]	; 0x77
  4034a4:	f7ff b912 	b.w	4026cc <_svfprintf_r+0x680>

004034a8 <register_fini>:
  4034a8:	4b02      	ldr	r3, [pc, #8]	; (4034b4 <register_fini+0xc>)
  4034aa:	b113      	cbz	r3, 4034b2 <register_fini+0xa>
  4034ac:	4802      	ldr	r0, [pc, #8]	; (4034b8 <register_fini+0x10>)
  4034ae:	f000 b805 	b.w	4034bc <atexit>
  4034b2:	4770      	bx	lr
  4034b4:	00000000 	.word	0x00000000
  4034b8:	00404445 	.word	0x00404445

004034bc <atexit>:
  4034bc:	2300      	movs	r3, #0
  4034be:	4601      	mov	r1, r0
  4034c0:	461a      	mov	r2, r3
  4034c2:	4618      	mov	r0, r3
  4034c4:	f002 b848 	b.w	405558 <__register_exitproc>

004034c8 <quorem>:
  4034c8:	6902      	ldr	r2, [r0, #16]
  4034ca:	690b      	ldr	r3, [r1, #16]
  4034cc:	4293      	cmp	r3, r2
  4034ce:	f300 808d 	bgt.w	4035ec <quorem+0x124>
  4034d2:	e92d 4ff0 	stmdb	sp!, {r4, r5, r6, r7, r8, r9, sl, fp, lr}
  4034d6:	f103 38ff 	add.w	r8, r3, #4294967295
  4034da:	f101 0714 	add.w	r7, r1, #20
  4034de:	f100 0b14 	add.w	fp, r0, #20
  4034e2:	f857 2028 	ldr.w	r2, [r7, r8, lsl #2]
  4034e6:	f85b 3028 	ldr.w	r3, [fp, r8, lsl #2]
  4034ea:	ea4f 0488 	mov.w	r4, r8, lsl #2
  4034ee:	b083      	sub	sp, #12
  4034f0:	3201      	adds	r2, #1
  4034f2:	fbb3 f9f2 	udiv	r9, r3, r2
  4034f6:	eb0b 0304 	add.w	r3, fp, r4
  4034fa:	9400      	str	r4, [sp, #0]
  4034fc:	eb07 0a04 	add.w	sl, r7, r4
  403500:	9301      	str	r3, [sp, #4]
  403502:	f1b9 0f00 	cmp.w	r9, #0
  403506:	d039      	beq.n	40357c <quorem+0xb4>
  403508:	2500      	movs	r5, #0
  40350a:	462e      	mov	r6, r5
  40350c:	46bc      	mov	ip, r7
  40350e:	46de      	mov	lr, fp
  403510:	f85c 4b04 	ldr.w	r4, [ip], #4
  403514:	f8de 3000 	ldr.w	r3, [lr]
  403518:	b2a2      	uxth	r2, r4
  40351a:	fb09 5502 	mla	r5, r9, r2, r5
  40351e:	0c22      	lsrs	r2, r4, #16
  403520:	0c2c      	lsrs	r4, r5, #16
  403522:	fb09 4202 	mla	r2, r9, r2, r4
  403526:	b2ad      	uxth	r5, r5
  403528:	1b75      	subs	r5, r6, r5
  40352a:	b296      	uxth	r6, r2
  40352c:	ebc6 4613 	rsb	r6, r6, r3, lsr #16
  403530:	fa15 f383 	uxtah	r3, r5, r3
  403534:	eb06 4623 	add.w	r6, r6, r3, asr #16
  403538:	b29b      	uxth	r3, r3
  40353a:	ea43 4306 	orr.w	r3, r3, r6, lsl #16
  40353e:	45e2      	cmp	sl, ip
  403540:	ea4f 4512 	mov.w	r5, r2, lsr #16
  403544:	f84e 3b04 	str.w	r3, [lr], #4
  403548:	ea4f 4626 	mov.w	r6, r6, asr #16
  40354c:	d2e0      	bcs.n	403510 <quorem+0x48>
  40354e:	9b00      	ldr	r3, [sp, #0]
  403550:	f85b 3003 	ldr.w	r3, [fp, r3]
  403554:	b993      	cbnz	r3, 40357c <quorem+0xb4>
  403556:	9c01      	ldr	r4, [sp, #4]
  403558:	1f23      	subs	r3, r4, #4
  40355a:	459b      	cmp	fp, r3
  40355c:	d20c      	bcs.n	403578 <quorem+0xb0>
  40355e:	f854 3c04 	ldr.w	r3, [r4, #-4]
  403562:	b94b      	cbnz	r3, 403578 <quorem+0xb0>
  403564:	f1a4 0308 	sub.w	r3, r4, #8
  403568:	e002      	b.n	403570 <quorem+0xa8>
  40356a:	681a      	ldr	r2, [r3, #0]
  40356c:	3b04      	subs	r3, #4
  40356e:	b91a      	cbnz	r2, 403578 <quorem+0xb0>
  403570:	459b      	cmp	fp, r3
  403572:	f108 38ff 	add.w	r8, r8, #4294967295
  403576:	d3f8      	bcc.n	40356a <quorem+0xa2>
  403578:	f8c0 8010 	str.w	r8, [r0, #16]
  40357c:	4604      	mov	r4, r0
  40357e:	f001 fd63 	bl	405048 <__mcmp>
  403582:	2800      	cmp	r0, #0
  403584:	db2e      	blt.n	4035e4 <quorem+0x11c>
  403586:	f109 0901 	add.w	r9, r9, #1
  40358a:	465d      	mov	r5, fp
  40358c:	2300      	movs	r3, #0
  40358e:	f857 1b04 	ldr.w	r1, [r7], #4
  403592:	6828      	ldr	r0, [r5, #0]
  403594:	b28a      	uxth	r2, r1
  403596:	1a9a      	subs	r2, r3, r2
  403598:	0c0b      	lsrs	r3, r1, #16
  40359a:	fa12 f280 	uxtah	r2, r2, r0
  40359e:	ebc3 4310 	rsb	r3, r3, r0, lsr #16
  4035a2:	eb03 4322 	add.w	r3, r3, r2, asr #16
  4035a6:	b292      	uxth	r2, r2
  4035a8:	ea42 4203 	orr.w	r2, r2, r3, lsl #16
  4035ac:	45ba      	cmp	sl, r7
  4035ae:	f845 2b04 	str.w	r2, [r5], #4
  4035b2:	ea4f 4323 	mov.w	r3, r3, asr #16
  4035b6:	d2ea      	bcs.n	40358e <quorem+0xc6>
  4035b8:	f85b 2028 	ldr.w	r2, [fp, r8, lsl #2]
  4035bc:	eb0b 0388 	add.w	r3, fp, r8, lsl #2
  4035c0:	b982      	cbnz	r2, 4035e4 <quorem+0x11c>
  4035c2:	1f1a      	subs	r2, r3, #4
  4035c4:	4593      	cmp	fp, r2
  4035c6:	d20b      	bcs.n	4035e0 <quorem+0x118>
  4035c8:	f853 2c04 	ldr.w	r2, [r3, #-4]
  4035cc:	b942      	cbnz	r2, 4035e0 <quorem+0x118>
  4035ce:	3b08      	subs	r3, #8
  4035d0:	e002      	b.n	4035d8 <quorem+0x110>
  4035d2:	681a      	ldr	r2, [r3, #0]
  4035d4:	3b04      	subs	r3, #4
  4035d6:	b91a      	cbnz	r2, 4035e0 <quorem+0x118>
  4035d8:	459b      	cmp	fp, r3
  4035da:	f108 38ff 	add.w	r8, r8, #4294967295
  4035de:	d3f8      	bcc.n	4035d2 <quorem+0x10a>
  4035e0:	f8c4 8010 	str.w	r8, [r4, #16]
  4035e4:	4648      	mov	r0, r9
  4035e6:	b003      	add	sp, #12
  4035e8:	e8bd 8ff0 	ldmia.w	sp!, {r4, r5, r6, r7, r8, r9, sl, fp, pc}
  4035ec:	2000      	movs	r0, #0
  4035ee:	4770      	bx	lr

004035f0 <_dtoa_r>:
  4035f0:	e92d 4ff0 	stmdb	sp!, {r4, r5, r6, r7, r8, r9, sl, fp, lr}
  4035f4:	6c01      	ldr	r1, [r0, #64]	; 0x40
  4035f6:	b09b      	sub	sp, #108	; 0x6c
  4035f8:	4604      	mov	r4, r0
  4035fa:	9e27      	ldr	r6, [sp, #156]	; 0x9c
  4035fc:	4692      	mov	sl, r2
  4035fe:	469b      	mov	fp, r3
  403600:	b141      	cbz	r1, 403614 <_dtoa_r+0x24>
  403602:	6c42      	ldr	r2, [r0, #68]	; 0x44
  403604:	604a      	str	r2, [r1, #4]
  403606:	2301      	movs	r3, #1
  403608:	4093      	lsls	r3, r2
  40360a:	608b      	str	r3, [r1, #8]
  40360c:	f001 fb44 	bl	404c98 <_Bfree>
  403610:	2300      	movs	r3, #0
  403612:	6423      	str	r3, [r4, #64]	; 0x40
  403614:	f1bb 0f00 	cmp.w	fp, #0
  403618:	465d      	mov	r5, fp
  40361a:	db35      	blt.n	403688 <_dtoa_r+0x98>
  40361c:	2300      	movs	r3, #0
  40361e:	6033      	str	r3, [r6, #0]
  403620:	4b9d      	ldr	r3, [pc, #628]	; (403898 <_dtoa_r+0x2a8>)
  403622:	43ab      	bics	r3, r5
  403624:	d015      	beq.n	403652 <_dtoa_r+0x62>
  403626:	4650      	mov	r0, sl
  403628:	4659      	mov	r1, fp
  40362a:	2200      	movs	r2, #0
  40362c:	2300      	movs	r3, #0
  40362e:	f002 ffa9 	bl	406584 <__aeabi_dcmpeq>
  403632:	4680      	mov	r8, r0
  403634:	2800      	cmp	r0, #0
  403636:	d02d      	beq.n	403694 <_dtoa_r+0xa4>
  403638:	9a26      	ldr	r2, [sp, #152]	; 0x98
  40363a:	2301      	movs	r3, #1
  40363c:	6013      	str	r3, [r2, #0]
  40363e:	9b28      	ldr	r3, [sp, #160]	; 0xa0
  403640:	2b00      	cmp	r3, #0
  403642:	f000 80bd 	beq.w	4037c0 <_dtoa_r+0x1d0>
  403646:	4895      	ldr	r0, [pc, #596]	; (40389c <_dtoa_r+0x2ac>)
  403648:	6018      	str	r0, [r3, #0]
  40364a:	3801      	subs	r0, #1
  40364c:	b01b      	add	sp, #108	; 0x6c
  40364e:	e8bd 8ff0 	ldmia.w	sp!, {r4, r5, r6, r7, r8, r9, sl, fp, pc}
  403652:	9a26      	ldr	r2, [sp, #152]	; 0x98
  403654:	f242 730f 	movw	r3, #9999	; 0x270f
  403658:	6013      	str	r3, [r2, #0]
  40365a:	f1ba 0f00 	cmp.w	sl, #0
  40365e:	d10d      	bne.n	40367c <_dtoa_r+0x8c>
  403660:	f3c5 0513 	ubfx	r5, r5, #0, #20
  403664:	b955      	cbnz	r5, 40367c <_dtoa_r+0x8c>
  403666:	9b28      	ldr	r3, [sp, #160]	; 0xa0
  403668:	488d      	ldr	r0, [pc, #564]	; (4038a0 <_dtoa_r+0x2b0>)
  40366a:	2b00      	cmp	r3, #0
  40366c:	d0ee      	beq.n	40364c <_dtoa_r+0x5c>
  40366e:	f100 0308 	add.w	r3, r0, #8
  403672:	9a28      	ldr	r2, [sp, #160]	; 0xa0
  403674:	6013      	str	r3, [r2, #0]
  403676:	b01b      	add	sp, #108	; 0x6c
  403678:	e8bd 8ff0 	ldmia.w	sp!, {r4, r5, r6, r7, r8, r9, sl, fp, pc}
  40367c:	9b28      	ldr	r3, [sp, #160]	; 0xa0
  40367e:	4889      	ldr	r0, [pc, #548]	; (4038a4 <_dtoa_r+0x2b4>)
  403680:	2b00      	cmp	r3, #0
  403682:	d0e3      	beq.n	40364c <_dtoa_r+0x5c>
  403684:	1cc3      	adds	r3, r0, #3
  403686:	e7f4      	b.n	403672 <_dtoa_r+0x82>
  403688:	2301      	movs	r3, #1
  40368a:	f02b 4500 	bic.w	r5, fp, #2147483648	; 0x80000000
  40368e:	6033      	str	r3, [r6, #0]
  403690:	46ab      	mov	fp, r5
  403692:	e7c5      	b.n	403620 <_dtoa_r+0x30>
  403694:	aa18      	add	r2, sp, #96	; 0x60
  403696:	ab19      	add	r3, sp, #100	; 0x64
  403698:	9201      	str	r2, [sp, #4]
  40369a:	9300      	str	r3, [sp, #0]
  40369c:	4652      	mov	r2, sl
  40369e:	465b      	mov	r3, fp
  4036a0:	4620      	mov	r0, r4
  4036a2:	f001 fd71 	bl	405188 <__d2b>
  4036a6:	0d2b      	lsrs	r3, r5, #20
  4036a8:	4681      	mov	r9, r0
  4036aa:	d071      	beq.n	403790 <_dtoa_r+0x1a0>
  4036ac:	f3cb 0213 	ubfx	r2, fp, #0, #20
  4036b0:	f042 517f 	orr.w	r1, r2, #1069547520	; 0x3fc00000
  4036b4:	9f18      	ldr	r7, [sp, #96]	; 0x60
  4036b6:	f8cd 8050 	str.w	r8, [sp, #80]	; 0x50
  4036ba:	4650      	mov	r0, sl
  4036bc:	f2a3 36ff 	subw	r6, r3, #1023	; 0x3ff
  4036c0:	f441 1140 	orr.w	r1, r1, #3145728	; 0x300000
  4036c4:	2200      	movs	r2, #0
  4036c6:	4b78      	ldr	r3, [pc, #480]	; (4038a8 <_dtoa_r+0x2b8>)
  4036c8:	f002 fb40 	bl	405d4c <__aeabi_dsub>
  4036cc:	a36c      	add	r3, pc, #432	; (adr r3, 403880 <_dtoa_r+0x290>)
  4036ce:	e9d3 2300 	ldrd	r2, r3, [r3]
  4036d2:	f002 fcef 	bl	4060b4 <__aeabi_dmul>
  4036d6:	a36c      	add	r3, pc, #432	; (adr r3, 403888 <_dtoa_r+0x298>)
  4036d8:	e9d3 2300 	ldrd	r2, r3, [r3]
  4036dc:	f002 fb38 	bl	405d50 <__adddf3>
  4036e0:	e9cd 0102 	strd	r0, r1, [sp, #8]
  4036e4:	4630      	mov	r0, r6
  4036e6:	f002 fc7f 	bl	405fe8 <__aeabi_i2d>
  4036ea:	a369      	add	r3, pc, #420	; (adr r3, 403890 <_dtoa_r+0x2a0>)
  4036ec:	e9d3 2300 	ldrd	r2, r3, [r3]
  4036f0:	f002 fce0 	bl	4060b4 <__aeabi_dmul>
  4036f4:	4602      	mov	r2, r0
  4036f6:	460b      	mov	r3, r1
  4036f8:	e9dd 0102 	ldrd	r0, r1, [sp, #8]
  4036fc:	f002 fb28 	bl	405d50 <__adddf3>
  403700:	e9cd 0104 	strd	r0, r1, [sp, #16]
  403704:	f002 ff86 	bl	406614 <__aeabi_d2iz>
  403708:	2200      	movs	r2, #0
  40370a:	9002      	str	r0, [sp, #8]
  40370c:	2300      	movs	r3, #0
  40370e:	e9dd 0104 	ldrd	r0, r1, [sp, #16]
  403712:	f002 ff41 	bl	406598 <__aeabi_dcmplt>
  403716:	2800      	cmp	r0, #0
  403718:	f040 8173 	bne.w	403a02 <_dtoa_r+0x412>
  40371c:	9d02      	ldr	r5, [sp, #8]
  40371e:	2d16      	cmp	r5, #22
  403720:	f200 815d 	bhi.w	4039de <_dtoa_r+0x3ee>
  403724:	4b61      	ldr	r3, [pc, #388]	; (4038ac <_dtoa_r+0x2bc>)
  403726:	eb03 03c5 	add.w	r3, r3, r5, lsl #3
  40372a:	e9d3 0100 	ldrd	r0, r1, [r3]
  40372e:	4652      	mov	r2, sl
  403730:	465b      	mov	r3, fp
  403732:	f002 ff4f 	bl	4065d4 <__aeabi_dcmpgt>
  403736:	2800      	cmp	r0, #0
  403738:	f000 81c5 	beq.w	403ac6 <_dtoa_r+0x4d6>
  40373c:	1e6b      	subs	r3, r5, #1
  40373e:	9302      	str	r3, [sp, #8]
  403740:	2300      	movs	r3, #0
  403742:	930e      	str	r3, [sp, #56]	; 0x38
  403744:	1bbf      	subs	r7, r7, r6
  403746:	1e7b      	subs	r3, r7, #1
  403748:	9306      	str	r3, [sp, #24]
  40374a:	f100 8154 	bmi.w	4039f6 <_dtoa_r+0x406>
  40374e:	2300      	movs	r3, #0
  403750:	9308      	str	r3, [sp, #32]
  403752:	9b02      	ldr	r3, [sp, #8]
  403754:	2b00      	cmp	r3, #0
  403756:	f2c0 8145 	blt.w	4039e4 <_dtoa_r+0x3f4>
  40375a:	9a06      	ldr	r2, [sp, #24]
  40375c:	930d      	str	r3, [sp, #52]	; 0x34
  40375e:	4611      	mov	r1, r2
  403760:	4419      	add	r1, r3
  403762:	2300      	movs	r3, #0
  403764:	9106      	str	r1, [sp, #24]
  403766:	930c      	str	r3, [sp, #48]	; 0x30
  403768:	9b24      	ldr	r3, [sp, #144]	; 0x90
  40376a:	2b09      	cmp	r3, #9
  40376c:	d82a      	bhi.n	4037c4 <_dtoa_r+0x1d4>
  40376e:	2b05      	cmp	r3, #5
  403770:	f340 865b 	ble.w	40442a <_dtoa_r+0xe3a>
  403774:	3b04      	subs	r3, #4
  403776:	9324      	str	r3, [sp, #144]	; 0x90
  403778:	2500      	movs	r5, #0
  40377a:	9b24      	ldr	r3, [sp, #144]	; 0x90
  40377c:	3b02      	subs	r3, #2
  40377e:	2b03      	cmp	r3, #3
  403780:	f200 8642 	bhi.w	404408 <_dtoa_r+0xe18>
  403784:	e8df f013 	tbh	[pc, r3, lsl #1]
  403788:	02c903d4 	.word	0x02c903d4
  40378c:	046103df 	.word	0x046103df
  403790:	9f18      	ldr	r7, [sp, #96]	; 0x60
  403792:	9e19      	ldr	r6, [sp, #100]	; 0x64
  403794:	443e      	add	r6, r7
  403796:	f206 4332 	addw	r3, r6, #1074	; 0x432
  40379a:	2b20      	cmp	r3, #32
  40379c:	f340 818e 	ble.w	403abc <_dtoa_r+0x4cc>
  4037a0:	f1c3 0340 	rsb	r3, r3, #64	; 0x40
  4037a4:	f206 4012 	addw	r0, r6, #1042	; 0x412
  4037a8:	409d      	lsls	r5, r3
  4037aa:	fa2a f000 	lsr.w	r0, sl, r0
  4037ae:	4328      	orrs	r0, r5
  4037b0:	f002 fc0a 	bl	405fc8 <__aeabi_ui2d>
  4037b4:	2301      	movs	r3, #1
  4037b6:	3e01      	subs	r6, #1
  4037b8:	f1a1 71f8 	sub.w	r1, r1, #32505856	; 0x1f00000
  4037bc:	9314      	str	r3, [sp, #80]	; 0x50
  4037be:	e781      	b.n	4036c4 <_dtoa_r+0xd4>
  4037c0:	483b      	ldr	r0, [pc, #236]	; (4038b0 <_dtoa_r+0x2c0>)
  4037c2:	e743      	b.n	40364c <_dtoa_r+0x5c>
  4037c4:	2100      	movs	r1, #0
  4037c6:	6461      	str	r1, [r4, #68]	; 0x44
  4037c8:	4620      	mov	r0, r4
  4037ca:	9125      	str	r1, [sp, #148]	; 0x94
  4037cc:	f001 fa3e 	bl	404c4c <_Balloc>
  4037d0:	f04f 33ff 	mov.w	r3, #4294967295
  4037d4:	930a      	str	r3, [sp, #40]	; 0x28
  4037d6:	9a25      	ldr	r2, [sp, #148]	; 0x94
  4037d8:	930f      	str	r3, [sp, #60]	; 0x3c
  4037da:	2301      	movs	r3, #1
  4037dc:	9004      	str	r0, [sp, #16]
  4037de:	6420      	str	r0, [r4, #64]	; 0x40
  4037e0:	9224      	str	r2, [sp, #144]	; 0x90
  4037e2:	930b      	str	r3, [sp, #44]	; 0x2c
  4037e4:	9b19      	ldr	r3, [sp, #100]	; 0x64
  4037e6:	2b00      	cmp	r3, #0
  4037e8:	f2c0 80d9 	blt.w	40399e <_dtoa_r+0x3ae>
  4037ec:	9a02      	ldr	r2, [sp, #8]
  4037ee:	2a0e      	cmp	r2, #14
  4037f0:	f300 80d5 	bgt.w	40399e <_dtoa_r+0x3ae>
  4037f4:	4b2d      	ldr	r3, [pc, #180]	; (4038ac <_dtoa_r+0x2bc>)
  4037f6:	eb03 03c2 	add.w	r3, r3, r2, lsl #3
  4037fa:	e9d3 2300 	ldrd	r2, r3, [r3]
  4037fe:	e9cd 2308 	strd	r2, r3, [sp, #32]
  403802:	9b25      	ldr	r3, [sp, #148]	; 0x94
  403804:	2b00      	cmp	r3, #0
  403806:	f2c0 83ba 	blt.w	403f7e <_dtoa_r+0x98e>
  40380a:	e9dd 5608 	ldrd	r5, r6, [sp, #32]
  40380e:	4650      	mov	r0, sl
  403810:	462a      	mov	r2, r5
  403812:	4633      	mov	r3, r6
  403814:	4659      	mov	r1, fp
  403816:	f002 fd77 	bl	406308 <__aeabi_ddiv>
  40381a:	f002 fefb 	bl	406614 <__aeabi_d2iz>
  40381e:	4680      	mov	r8, r0
  403820:	f002 fbe2 	bl	405fe8 <__aeabi_i2d>
  403824:	462a      	mov	r2, r5
  403826:	4633      	mov	r3, r6
  403828:	f002 fc44 	bl	4060b4 <__aeabi_dmul>
  40382c:	460b      	mov	r3, r1
  40382e:	4602      	mov	r2, r0
  403830:	4659      	mov	r1, fp
  403832:	4650      	mov	r0, sl
  403834:	f002 fa8a 	bl	405d4c <__aeabi_dsub>
  403838:	9d04      	ldr	r5, [sp, #16]
  40383a:	f108 0330 	add.w	r3, r8, #48	; 0x30
  40383e:	702b      	strb	r3, [r5, #0]
  403840:	9b0a      	ldr	r3, [sp, #40]	; 0x28
  403842:	2b01      	cmp	r3, #1
  403844:	4606      	mov	r6, r0
  403846:	460f      	mov	r7, r1
  403848:	f105 0501 	add.w	r5, r5, #1
  40384c:	d068      	beq.n	403920 <_dtoa_r+0x330>
  40384e:	2200      	movs	r2, #0
  403850:	4b18      	ldr	r3, [pc, #96]	; (4038b4 <_dtoa_r+0x2c4>)
  403852:	f002 fc2f 	bl	4060b4 <__aeabi_dmul>
  403856:	2200      	movs	r2, #0
  403858:	2300      	movs	r3, #0
  40385a:	4606      	mov	r6, r0
  40385c:	460f      	mov	r7, r1
  40385e:	f002 fe91 	bl	406584 <__aeabi_dcmpeq>
  403862:	2800      	cmp	r0, #0
  403864:	f040 8088 	bne.w	403978 <_dtoa_r+0x388>
  403868:	f8cd 902c 	str.w	r9, [sp, #44]	; 0x2c
  40386c:	f04f 0a00 	mov.w	sl, #0
  403870:	f8df b040 	ldr.w	fp, [pc, #64]	; 4038b4 <_dtoa_r+0x2c4>
  403874:	940c      	str	r4, [sp, #48]	; 0x30
  403876:	e9dd 8908 	ldrd	r8, r9, [sp, #32]
  40387a:	e028      	b.n	4038ce <_dtoa_r+0x2de>
  40387c:	f3af 8000 	nop.w
  403880:	636f4361 	.word	0x636f4361
  403884:	3fd287a7 	.word	0x3fd287a7
  403888:	8b60c8b3 	.word	0x8b60c8b3
  40388c:	3fc68a28 	.word	0x3fc68a28
  403890:	509f79fb 	.word	0x509f79fb
  403894:	3fd34413 	.word	0x3fd34413
  403898:	7ff00000 	.word	0x7ff00000
  40389c:	004076ad 	.word	0x004076ad
  4038a0:	004076d0 	.word	0x004076d0
  4038a4:	004076dc 	.word	0x004076dc
  4038a8:	3ff80000 	.word	0x3ff80000
  4038ac:	00407708 	.word	0x00407708
  4038b0:	004076ac 	.word	0x004076ac
  4038b4:	40240000 	.word	0x40240000
  4038b8:	f002 fbfc 	bl	4060b4 <__aeabi_dmul>
  4038bc:	2200      	movs	r2, #0
  4038be:	2300      	movs	r3, #0
  4038c0:	4606      	mov	r6, r0
  4038c2:	460f      	mov	r7, r1
  4038c4:	f002 fe5e 	bl	406584 <__aeabi_dcmpeq>
  4038c8:	2800      	cmp	r0, #0
  4038ca:	f040 83c1 	bne.w	404050 <_dtoa_r+0xa60>
  4038ce:	4642      	mov	r2, r8
  4038d0:	464b      	mov	r3, r9
  4038d2:	4630      	mov	r0, r6
  4038d4:	4639      	mov	r1, r7
  4038d6:	f002 fd17 	bl	406308 <__aeabi_ddiv>
  4038da:	f002 fe9b 	bl	406614 <__aeabi_d2iz>
  4038de:	4604      	mov	r4, r0
  4038e0:	f002 fb82 	bl	405fe8 <__aeabi_i2d>
  4038e4:	4642      	mov	r2, r8
  4038e6:	464b      	mov	r3, r9
  4038e8:	f002 fbe4 	bl	4060b4 <__aeabi_dmul>
  4038ec:	4602      	mov	r2, r0
  4038ee:	460b      	mov	r3, r1
  4038f0:	4630      	mov	r0, r6
  4038f2:	4639      	mov	r1, r7
  4038f4:	f002 fa2a 	bl	405d4c <__aeabi_dsub>
  4038f8:	f104 0e30 	add.w	lr, r4, #48	; 0x30
  4038fc:	9e04      	ldr	r6, [sp, #16]
  4038fe:	f805 eb01 	strb.w	lr, [r5], #1
  403902:	eba5 0e06 	sub.w	lr, r5, r6
  403906:	9e0a      	ldr	r6, [sp, #40]	; 0x28
  403908:	45b6      	cmp	lr, r6
  40390a:	e9cd 0106 	strd	r0, r1, [sp, #24]
  40390e:	4652      	mov	r2, sl
  403910:	465b      	mov	r3, fp
  403912:	d1d1      	bne.n	4038b8 <_dtoa_r+0x2c8>
  403914:	46a0      	mov	r8, r4
  403916:	f8dd 902c 	ldr.w	r9, [sp, #44]	; 0x2c
  40391a:	9c0c      	ldr	r4, [sp, #48]	; 0x30
  40391c:	4606      	mov	r6, r0
  40391e:	460f      	mov	r7, r1
  403920:	4632      	mov	r2, r6
  403922:	463b      	mov	r3, r7
  403924:	4630      	mov	r0, r6
  403926:	4639      	mov	r1, r7
  403928:	f002 fa12 	bl	405d50 <__adddf3>
  40392c:	4606      	mov	r6, r0
  40392e:	460f      	mov	r7, r1
  403930:	4602      	mov	r2, r0
  403932:	460b      	mov	r3, r1
  403934:	e9dd 0108 	ldrd	r0, r1, [sp, #32]
  403938:	f002 fe2e 	bl	406598 <__aeabi_dcmplt>
  40393c:	b948      	cbnz	r0, 403952 <_dtoa_r+0x362>
  40393e:	4632      	mov	r2, r6
  403940:	463b      	mov	r3, r7
  403942:	e9dd 0108 	ldrd	r0, r1, [sp, #32]
  403946:	f002 fe1d 	bl	406584 <__aeabi_dcmpeq>
  40394a:	b1a8      	cbz	r0, 403978 <_dtoa_r+0x388>
  40394c:	f018 0f01 	tst.w	r8, #1
  403950:	d012      	beq.n	403978 <_dtoa_r+0x388>
  403952:	f815 8c01 	ldrb.w	r8, [r5, #-1]
  403956:	9a04      	ldr	r2, [sp, #16]
  403958:	1e6b      	subs	r3, r5, #1
  40395a:	e004      	b.n	403966 <_dtoa_r+0x376>
  40395c:	429a      	cmp	r2, r3
  40395e:	f000 8401 	beq.w	404164 <_dtoa_r+0xb74>
  403962:	f813 8d01 	ldrb.w	r8, [r3, #-1]!
  403966:	f1b8 0f39 	cmp.w	r8, #57	; 0x39
  40396a:	f103 0501 	add.w	r5, r3, #1
  40396e:	d0f5      	beq.n	40395c <_dtoa_r+0x36c>
  403970:	f108 0801 	add.w	r8, r8, #1
  403974:	f883 8000 	strb.w	r8, [r3]
  403978:	4649      	mov	r1, r9
  40397a:	4620      	mov	r0, r4
  40397c:	f001 f98c 	bl	404c98 <_Bfree>
  403980:	2200      	movs	r2, #0
  403982:	9b02      	ldr	r3, [sp, #8]
  403984:	702a      	strb	r2, [r5, #0]
  403986:	9a26      	ldr	r2, [sp, #152]	; 0x98
  403988:	3301      	adds	r3, #1
  40398a:	6013      	str	r3, [r2, #0]
  40398c:	9b28      	ldr	r3, [sp, #160]	; 0xa0
  40398e:	2b00      	cmp	r3, #0
  403990:	f000 839e 	beq.w	4040d0 <_dtoa_r+0xae0>
  403994:	9804      	ldr	r0, [sp, #16]
  403996:	601d      	str	r5, [r3, #0]
  403998:	b01b      	add	sp, #108	; 0x6c
  40399a:	e8bd 8ff0 	ldmia.w	sp!, {r4, r5, r6, r7, r8, r9, sl, fp, pc}
  40399e:	9a0b      	ldr	r2, [sp, #44]	; 0x2c
  4039a0:	2a00      	cmp	r2, #0
  4039a2:	d03e      	beq.n	403a22 <_dtoa_r+0x432>
  4039a4:	9a24      	ldr	r2, [sp, #144]	; 0x90
  4039a6:	2a01      	cmp	r2, #1
  4039a8:	f340 8311 	ble.w	403fce <_dtoa_r+0x9de>
  4039ac:	9b0a      	ldr	r3, [sp, #40]	; 0x28
  4039ae:	9a0c      	ldr	r2, [sp, #48]	; 0x30
  4039b0:	1e5f      	subs	r7, r3, #1
  4039b2:	42ba      	cmp	r2, r7
  4039b4:	f2c0 838f 	blt.w	4040d6 <_dtoa_r+0xae6>
  4039b8:	1bd7      	subs	r7, r2, r7
  4039ba:	9b0a      	ldr	r3, [sp, #40]	; 0x28
  4039bc:	2b00      	cmp	r3, #0
  4039be:	f2c0 848b 	blt.w	4042d8 <_dtoa_r+0xce8>
  4039c2:	9d08      	ldr	r5, [sp, #32]
  4039c4:	9b0a      	ldr	r3, [sp, #40]	; 0x28
  4039c6:	9a08      	ldr	r2, [sp, #32]
  4039c8:	441a      	add	r2, r3
  4039ca:	9208      	str	r2, [sp, #32]
  4039cc:	9a06      	ldr	r2, [sp, #24]
  4039ce:	2101      	movs	r1, #1
  4039d0:	441a      	add	r2, r3
  4039d2:	4620      	mov	r0, r4
  4039d4:	9206      	str	r2, [sp, #24]
  4039d6:	f001 f9f9 	bl	404dcc <__i2b>
  4039da:	4606      	mov	r6, r0
  4039dc:	e024      	b.n	403a28 <_dtoa_r+0x438>
  4039de:	2301      	movs	r3, #1
  4039e0:	930e      	str	r3, [sp, #56]	; 0x38
  4039e2:	e6af      	b.n	403744 <_dtoa_r+0x154>
  4039e4:	9a08      	ldr	r2, [sp, #32]
  4039e6:	9b02      	ldr	r3, [sp, #8]
  4039e8:	1ad2      	subs	r2, r2, r3
  4039ea:	425b      	negs	r3, r3
  4039ec:	930c      	str	r3, [sp, #48]	; 0x30
  4039ee:	2300      	movs	r3, #0
  4039f0:	9208      	str	r2, [sp, #32]
  4039f2:	930d      	str	r3, [sp, #52]	; 0x34
  4039f4:	e6b8      	b.n	403768 <_dtoa_r+0x178>
  4039f6:	f1c7 0301 	rsb	r3, r7, #1
  4039fa:	9308      	str	r3, [sp, #32]
  4039fc:	2300      	movs	r3, #0
  4039fe:	9306      	str	r3, [sp, #24]
  403a00:	e6a7      	b.n	403752 <_dtoa_r+0x162>
  403a02:	9d02      	ldr	r5, [sp, #8]
  403a04:	4628      	mov	r0, r5
  403a06:	f002 faef 	bl	405fe8 <__aeabi_i2d>
  403a0a:	4602      	mov	r2, r0
  403a0c:	460b      	mov	r3, r1
  403a0e:	e9dd 0104 	ldrd	r0, r1, [sp, #16]
  403a12:	f002 fdb7 	bl	406584 <__aeabi_dcmpeq>
  403a16:	2800      	cmp	r0, #0
  403a18:	f47f ae80 	bne.w	40371c <_dtoa_r+0x12c>
  403a1c:	1e6b      	subs	r3, r5, #1
  403a1e:	9302      	str	r3, [sp, #8]
  403a20:	e67c      	b.n	40371c <_dtoa_r+0x12c>
  403a22:	9f0c      	ldr	r7, [sp, #48]	; 0x30
  403a24:	9d08      	ldr	r5, [sp, #32]
  403a26:	9e0b      	ldr	r6, [sp, #44]	; 0x2c
  403a28:	2d00      	cmp	r5, #0
  403a2a:	dd0c      	ble.n	403a46 <_dtoa_r+0x456>
  403a2c:	9906      	ldr	r1, [sp, #24]
  403a2e:	2900      	cmp	r1, #0
  403a30:	460b      	mov	r3, r1
  403a32:	dd08      	ble.n	403a46 <_dtoa_r+0x456>
  403a34:	42a9      	cmp	r1, r5
  403a36:	9a08      	ldr	r2, [sp, #32]
  403a38:	bfa8      	it	ge
  403a3a:	462b      	movge	r3, r5
  403a3c:	1ad2      	subs	r2, r2, r3
  403a3e:	1aed      	subs	r5, r5, r3
  403a40:	1acb      	subs	r3, r1, r3
  403a42:	9208      	str	r2, [sp, #32]
  403a44:	9306      	str	r3, [sp, #24]
  403a46:	9b0c      	ldr	r3, [sp, #48]	; 0x30
  403a48:	b1d3      	cbz	r3, 403a80 <_dtoa_r+0x490>
  403a4a:	9b0b      	ldr	r3, [sp, #44]	; 0x2c
  403a4c:	2b00      	cmp	r3, #0
  403a4e:	f000 82b7 	beq.w	403fc0 <_dtoa_r+0x9d0>
  403a52:	2f00      	cmp	r7, #0
  403a54:	dd10      	ble.n	403a78 <_dtoa_r+0x488>
  403a56:	4631      	mov	r1, r6
  403a58:	463a      	mov	r2, r7
  403a5a:	4620      	mov	r0, r4
  403a5c:	f001 fa52 	bl	404f04 <__pow5mult>
  403a60:	464a      	mov	r2, r9
  403a62:	4601      	mov	r1, r0
  403a64:	4606      	mov	r6, r0
  403a66:	4620      	mov	r0, r4
  403a68:	f001 f9ba 	bl	404de0 <__multiply>
  403a6c:	4649      	mov	r1, r9
  403a6e:	4680      	mov	r8, r0
  403a70:	4620      	mov	r0, r4
  403a72:	f001 f911 	bl	404c98 <_Bfree>
  403a76:	46c1      	mov	r9, r8
  403a78:	9b0c      	ldr	r3, [sp, #48]	; 0x30
  403a7a:	1bda      	subs	r2, r3, r7
  403a7c:	f040 82a1 	bne.w	403fc2 <_dtoa_r+0x9d2>
  403a80:	2101      	movs	r1, #1
  403a82:	4620      	mov	r0, r4
  403a84:	f001 f9a2 	bl	404dcc <__i2b>
  403a88:	9b0d      	ldr	r3, [sp, #52]	; 0x34
  403a8a:	2b00      	cmp	r3, #0
  403a8c:	4680      	mov	r8, r0
  403a8e:	dd1c      	ble.n	403aca <_dtoa_r+0x4da>
  403a90:	4601      	mov	r1, r0
  403a92:	461a      	mov	r2, r3
  403a94:	4620      	mov	r0, r4
  403a96:	f001 fa35 	bl	404f04 <__pow5mult>
  403a9a:	9b24      	ldr	r3, [sp, #144]	; 0x90
  403a9c:	2b01      	cmp	r3, #1
  403a9e:	4680      	mov	r8, r0
  403aa0:	f340 8254 	ble.w	403f4c <_dtoa_r+0x95c>
  403aa4:	2300      	movs	r3, #0
  403aa6:	930c      	str	r3, [sp, #48]	; 0x30
  403aa8:	f8d8 3010 	ldr.w	r3, [r8, #16]
  403aac:	eb08 0383 	add.w	r3, r8, r3, lsl #2
  403ab0:	6918      	ldr	r0, [r3, #16]
  403ab2:	f001 f93b 	bl	404d2c <__hi0bits>
  403ab6:	f1c0 0020 	rsb	r0, r0, #32
  403aba:	e010      	b.n	403ade <_dtoa_r+0x4ee>
  403abc:	f1c3 0520 	rsb	r5, r3, #32
  403ac0:	fa0a f005 	lsl.w	r0, sl, r5
  403ac4:	e674      	b.n	4037b0 <_dtoa_r+0x1c0>
  403ac6:	900e      	str	r0, [sp, #56]	; 0x38
  403ac8:	e63c      	b.n	403744 <_dtoa_r+0x154>
  403aca:	9b24      	ldr	r3, [sp, #144]	; 0x90
  403acc:	2b01      	cmp	r3, #1
  403ace:	f340 8287 	ble.w	403fe0 <_dtoa_r+0x9f0>
  403ad2:	2300      	movs	r3, #0
  403ad4:	930c      	str	r3, [sp, #48]	; 0x30
  403ad6:	9b0d      	ldr	r3, [sp, #52]	; 0x34
  403ad8:	2001      	movs	r0, #1
  403ada:	2b00      	cmp	r3, #0
  403adc:	d1e4      	bne.n	403aa8 <_dtoa_r+0x4b8>
  403ade:	9a06      	ldr	r2, [sp, #24]
  403ae0:	4410      	add	r0, r2
  403ae2:	f010 001f 	ands.w	r0, r0, #31
  403ae6:	f000 80a1 	beq.w	403c2c <_dtoa_r+0x63c>
  403aea:	f1c0 0320 	rsb	r3, r0, #32
  403aee:	2b04      	cmp	r3, #4
  403af0:	f340 849e 	ble.w	404430 <_dtoa_r+0xe40>
  403af4:	9b08      	ldr	r3, [sp, #32]
  403af6:	f1c0 001c 	rsb	r0, r0, #28
  403afa:	4403      	add	r3, r0
  403afc:	9308      	str	r3, [sp, #32]
  403afe:	4613      	mov	r3, r2
  403b00:	4403      	add	r3, r0
  403b02:	4405      	add	r5, r0
  403b04:	9306      	str	r3, [sp, #24]
  403b06:	9b08      	ldr	r3, [sp, #32]
  403b08:	2b00      	cmp	r3, #0
  403b0a:	dd05      	ble.n	403b18 <_dtoa_r+0x528>
  403b0c:	4649      	mov	r1, r9
  403b0e:	461a      	mov	r2, r3
  403b10:	4620      	mov	r0, r4
  403b12:	f001 fa47 	bl	404fa4 <__lshift>
  403b16:	4681      	mov	r9, r0
  403b18:	9b06      	ldr	r3, [sp, #24]
  403b1a:	2b00      	cmp	r3, #0
  403b1c:	dd05      	ble.n	403b2a <_dtoa_r+0x53a>
  403b1e:	4641      	mov	r1, r8
  403b20:	461a      	mov	r2, r3
  403b22:	4620      	mov	r0, r4
  403b24:	f001 fa3e 	bl	404fa4 <__lshift>
  403b28:	4680      	mov	r8, r0
  403b2a:	9b0e      	ldr	r3, [sp, #56]	; 0x38
  403b2c:	2b00      	cmp	r3, #0
  403b2e:	f040 8086 	bne.w	403c3e <_dtoa_r+0x64e>
  403b32:	9b0a      	ldr	r3, [sp, #40]	; 0x28
  403b34:	2b00      	cmp	r3, #0
  403b36:	f340 8266 	ble.w	404006 <_dtoa_r+0xa16>
  403b3a:	9b0b      	ldr	r3, [sp, #44]	; 0x2c
  403b3c:	2b00      	cmp	r3, #0
  403b3e:	f000 8098 	beq.w	403c72 <_dtoa_r+0x682>
  403b42:	2d00      	cmp	r5, #0
  403b44:	dd05      	ble.n	403b52 <_dtoa_r+0x562>
  403b46:	4631      	mov	r1, r6
  403b48:	462a      	mov	r2, r5
  403b4a:	4620      	mov	r0, r4
  403b4c:	f001 fa2a 	bl	404fa4 <__lshift>
  403b50:	4606      	mov	r6, r0
  403b52:	9b0c      	ldr	r3, [sp, #48]	; 0x30
  403b54:	2b00      	cmp	r3, #0
  403b56:	f040 8337 	bne.w	4041c8 <_dtoa_r+0xbd8>
  403b5a:	9606      	str	r6, [sp, #24]
  403b5c:	9b0a      	ldr	r3, [sp, #40]	; 0x28
  403b5e:	9a04      	ldr	r2, [sp, #16]
  403b60:	f8dd b018 	ldr.w	fp, [sp, #24]
  403b64:	3b01      	subs	r3, #1
  403b66:	18d3      	adds	r3, r2, r3
  403b68:	930b      	str	r3, [sp, #44]	; 0x2c
  403b6a:	f00a 0301 	and.w	r3, sl, #1
  403b6e:	930c      	str	r3, [sp, #48]	; 0x30
  403b70:	4617      	mov	r7, r2
  403b72:	46c2      	mov	sl, r8
  403b74:	4651      	mov	r1, sl
  403b76:	4648      	mov	r0, r9
  403b78:	f7ff fca6 	bl	4034c8 <quorem>
  403b7c:	4631      	mov	r1, r6
  403b7e:	4605      	mov	r5, r0
  403b80:	4648      	mov	r0, r9
  403b82:	f001 fa61 	bl	405048 <__mcmp>
  403b86:	465a      	mov	r2, fp
  403b88:	900a      	str	r0, [sp, #40]	; 0x28
  403b8a:	4651      	mov	r1, sl
  403b8c:	4620      	mov	r0, r4
  403b8e:	f001 fa77 	bl	405080 <__mdiff>
  403b92:	68c2      	ldr	r2, [r0, #12]
  403b94:	4680      	mov	r8, r0
  403b96:	f105 0330 	add.w	r3, r5, #48	; 0x30
  403b9a:	2a00      	cmp	r2, #0
  403b9c:	f040 822b 	bne.w	403ff6 <_dtoa_r+0xa06>
  403ba0:	4601      	mov	r1, r0
  403ba2:	4648      	mov	r0, r9
  403ba4:	9308      	str	r3, [sp, #32]
  403ba6:	f001 fa4f 	bl	405048 <__mcmp>
  403baa:	4641      	mov	r1, r8
  403bac:	9006      	str	r0, [sp, #24]
  403bae:	4620      	mov	r0, r4
  403bb0:	f001 f872 	bl	404c98 <_Bfree>
  403bb4:	9a06      	ldr	r2, [sp, #24]
  403bb6:	9b08      	ldr	r3, [sp, #32]
  403bb8:	b932      	cbnz	r2, 403bc8 <_dtoa_r+0x5d8>
  403bba:	9924      	ldr	r1, [sp, #144]	; 0x90
  403bbc:	b921      	cbnz	r1, 403bc8 <_dtoa_r+0x5d8>
  403bbe:	9a0c      	ldr	r2, [sp, #48]	; 0x30
  403bc0:	2a00      	cmp	r2, #0
  403bc2:	f000 83ef 	beq.w	4043a4 <_dtoa_r+0xdb4>
  403bc6:	9a24      	ldr	r2, [sp, #144]	; 0x90
  403bc8:	990a      	ldr	r1, [sp, #40]	; 0x28
  403bca:	2900      	cmp	r1, #0
  403bcc:	f2c0 829f 	blt.w	40410e <_dtoa_r+0xb1e>
  403bd0:	d105      	bne.n	403bde <_dtoa_r+0x5ee>
  403bd2:	9924      	ldr	r1, [sp, #144]	; 0x90
  403bd4:	b919      	cbnz	r1, 403bde <_dtoa_r+0x5ee>
  403bd6:	990c      	ldr	r1, [sp, #48]	; 0x30
  403bd8:	2900      	cmp	r1, #0
  403bda:	f000 8298 	beq.w	40410e <_dtoa_r+0xb1e>
  403bde:	2a00      	cmp	r2, #0
  403be0:	f300 8306 	bgt.w	4041f0 <_dtoa_r+0xc00>
  403be4:	9a0b      	ldr	r2, [sp, #44]	; 0x2c
  403be6:	703b      	strb	r3, [r7, #0]
  403be8:	f107 0801 	add.w	r8, r7, #1
  403bec:	4297      	cmp	r7, r2
  403bee:	4645      	mov	r5, r8
  403bf0:	f000 830c 	beq.w	40420c <_dtoa_r+0xc1c>
  403bf4:	4649      	mov	r1, r9
  403bf6:	2300      	movs	r3, #0
  403bf8:	220a      	movs	r2, #10
  403bfa:	4620      	mov	r0, r4
  403bfc:	f001 f856 	bl	404cac <__multadd>
  403c00:	455e      	cmp	r6, fp
  403c02:	4681      	mov	r9, r0
  403c04:	4631      	mov	r1, r6
  403c06:	f04f 0300 	mov.w	r3, #0
  403c0a:	f04f 020a 	mov.w	r2, #10
  403c0e:	4620      	mov	r0, r4
  403c10:	f000 81eb 	beq.w	403fea <_dtoa_r+0x9fa>
  403c14:	f001 f84a 	bl	404cac <__multadd>
  403c18:	4659      	mov	r1, fp
  403c1a:	4606      	mov	r6, r0
  403c1c:	2300      	movs	r3, #0
  403c1e:	220a      	movs	r2, #10
  403c20:	4620      	mov	r0, r4
  403c22:	f001 f843 	bl	404cac <__multadd>
  403c26:	4647      	mov	r7, r8
  403c28:	4683      	mov	fp, r0
  403c2a:	e7a3      	b.n	403b74 <_dtoa_r+0x584>
  403c2c:	201c      	movs	r0, #28
  403c2e:	9b08      	ldr	r3, [sp, #32]
  403c30:	4403      	add	r3, r0
  403c32:	9308      	str	r3, [sp, #32]
  403c34:	9b06      	ldr	r3, [sp, #24]
  403c36:	4403      	add	r3, r0
  403c38:	4405      	add	r5, r0
  403c3a:	9306      	str	r3, [sp, #24]
  403c3c:	e763      	b.n	403b06 <_dtoa_r+0x516>
  403c3e:	4641      	mov	r1, r8
  403c40:	4648      	mov	r0, r9
  403c42:	f001 fa01 	bl	405048 <__mcmp>
  403c46:	2800      	cmp	r0, #0
  403c48:	f6bf af73 	bge.w	403b32 <_dtoa_r+0x542>
  403c4c:	9f02      	ldr	r7, [sp, #8]
  403c4e:	4649      	mov	r1, r9
  403c50:	2300      	movs	r3, #0
  403c52:	220a      	movs	r2, #10
  403c54:	4620      	mov	r0, r4
  403c56:	3f01      	subs	r7, #1
  403c58:	9702      	str	r7, [sp, #8]
  403c5a:	f001 f827 	bl	404cac <__multadd>
  403c5e:	9b0b      	ldr	r3, [sp, #44]	; 0x2c
  403c60:	4681      	mov	r9, r0
  403c62:	2b00      	cmp	r3, #0
  403c64:	f040 83b6 	bne.w	4043d4 <_dtoa_r+0xde4>
  403c68:	9b0f      	ldr	r3, [sp, #60]	; 0x3c
  403c6a:	2b00      	cmp	r3, #0
  403c6c:	f340 83bf 	ble.w	4043ee <_dtoa_r+0xdfe>
  403c70:	930a      	str	r3, [sp, #40]	; 0x28
  403c72:	f8dd b010 	ldr.w	fp, [sp, #16]
  403c76:	9f0a      	ldr	r7, [sp, #40]	; 0x28
  403c78:	465d      	mov	r5, fp
  403c7a:	e002      	b.n	403c82 <_dtoa_r+0x692>
  403c7c:	f001 f816 	bl	404cac <__multadd>
  403c80:	4681      	mov	r9, r0
  403c82:	4641      	mov	r1, r8
  403c84:	4648      	mov	r0, r9
  403c86:	f7ff fc1f 	bl	4034c8 <quorem>
  403c8a:	f100 0a30 	add.w	sl, r0, #48	; 0x30
  403c8e:	f805 ab01 	strb.w	sl, [r5], #1
  403c92:	eba5 030b 	sub.w	r3, r5, fp
  403c96:	42bb      	cmp	r3, r7
  403c98:	f04f 020a 	mov.w	r2, #10
  403c9c:	f04f 0300 	mov.w	r3, #0
  403ca0:	4649      	mov	r1, r9
  403ca2:	4620      	mov	r0, r4
  403ca4:	dbea      	blt.n	403c7c <_dtoa_r+0x68c>
  403ca6:	9b04      	ldr	r3, [sp, #16]
  403ca8:	9a0a      	ldr	r2, [sp, #40]	; 0x28
  403caa:	2a01      	cmp	r2, #1
  403cac:	bfac      	ite	ge
  403cae:	189b      	addge	r3, r3, r2
  403cb0:	3301      	addlt	r3, #1
  403cb2:	461d      	mov	r5, r3
  403cb4:	f04f 0b00 	mov.w	fp, #0
  403cb8:	4649      	mov	r1, r9
  403cba:	2201      	movs	r2, #1
  403cbc:	4620      	mov	r0, r4
  403cbe:	f001 f971 	bl	404fa4 <__lshift>
  403cc2:	4641      	mov	r1, r8
  403cc4:	4681      	mov	r9, r0
  403cc6:	f001 f9bf 	bl	405048 <__mcmp>
  403cca:	2800      	cmp	r0, #0
  403ccc:	f340 823d 	ble.w	40414a <_dtoa_r+0xb5a>
  403cd0:	f815 2c01 	ldrb.w	r2, [r5, #-1]
  403cd4:	9904      	ldr	r1, [sp, #16]
  403cd6:	1e6b      	subs	r3, r5, #1
  403cd8:	e004      	b.n	403ce4 <_dtoa_r+0x6f4>
  403cda:	428b      	cmp	r3, r1
  403cdc:	f000 81ae 	beq.w	40403c <_dtoa_r+0xa4c>
  403ce0:	f813 2d01 	ldrb.w	r2, [r3, #-1]!
  403ce4:	2a39      	cmp	r2, #57	; 0x39
  403ce6:	f103 0501 	add.w	r5, r3, #1
  403cea:	d0f6      	beq.n	403cda <_dtoa_r+0x6ea>
  403cec:	3201      	adds	r2, #1
  403cee:	701a      	strb	r2, [r3, #0]
  403cf0:	4641      	mov	r1, r8
  403cf2:	4620      	mov	r0, r4
  403cf4:	f000 ffd0 	bl	404c98 <_Bfree>
  403cf8:	2e00      	cmp	r6, #0
  403cfa:	f43f ae3d 	beq.w	403978 <_dtoa_r+0x388>
  403cfe:	f1bb 0f00 	cmp.w	fp, #0
  403d02:	d005      	beq.n	403d10 <_dtoa_r+0x720>
  403d04:	45b3      	cmp	fp, r6
  403d06:	d003      	beq.n	403d10 <_dtoa_r+0x720>
  403d08:	4659      	mov	r1, fp
  403d0a:	4620      	mov	r0, r4
  403d0c:	f000 ffc4 	bl	404c98 <_Bfree>
  403d10:	4631      	mov	r1, r6
  403d12:	4620      	mov	r0, r4
  403d14:	f000 ffc0 	bl	404c98 <_Bfree>
  403d18:	e62e      	b.n	403978 <_dtoa_r+0x388>
  403d1a:	2300      	movs	r3, #0
  403d1c:	930b      	str	r3, [sp, #44]	; 0x2c
  403d1e:	9b02      	ldr	r3, [sp, #8]
  403d20:	9a25      	ldr	r2, [sp, #148]	; 0x94
  403d22:	4413      	add	r3, r2
  403d24:	930f      	str	r3, [sp, #60]	; 0x3c
  403d26:	3301      	adds	r3, #1
  403d28:	2b01      	cmp	r3, #1
  403d2a:	461f      	mov	r7, r3
  403d2c:	461e      	mov	r6, r3
  403d2e:	930a      	str	r3, [sp, #40]	; 0x28
  403d30:	bfb8      	it	lt
  403d32:	2701      	movlt	r7, #1
  403d34:	2100      	movs	r1, #0
  403d36:	2f17      	cmp	r7, #23
  403d38:	6461      	str	r1, [r4, #68]	; 0x44
  403d3a:	d90a      	bls.n	403d52 <_dtoa_r+0x762>
  403d3c:	2201      	movs	r2, #1
  403d3e:	2304      	movs	r3, #4
  403d40:	005b      	lsls	r3, r3, #1
  403d42:	f103 0014 	add.w	r0, r3, #20
  403d46:	4287      	cmp	r7, r0
  403d48:	4611      	mov	r1, r2
  403d4a:	f102 0201 	add.w	r2, r2, #1
  403d4e:	d2f7      	bcs.n	403d40 <_dtoa_r+0x750>
  403d50:	6461      	str	r1, [r4, #68]	; 0x44
  403d52:	4620      	mov	r0, r4
  403d54:	f000 ff7a 	bl	404c4c <_Balloc>
  403d58:	2e0e      	cmp	r6, #14
  403d5a:	9004      	str	r0, [sp, #16]
  403d5c:	6420      	str	r0, [r4, #64]	; 0x40
  403d5e:	f63f ad41 	bhi.w	4037e4 <_dtoa_r+0x1f4>
  403d62:	2d00      	cmp	r5, #0
  403d64:	f43f ad3e 	beq.w	4037e4 <_dtoa_r+0x1f4>
  403d68:	9902      	ldr	r1, [sp, #8]
  403d6a:	2900      	cmp	r1, #0
  403d6c:	e9cd ab10 	strd	sl, fp, [sp, #64]	; 0x40
  403d70:	f340 8202 	ble.w	404178 <_dtoa_r+0xb88>
  403d74:	4bb8      	ldr	r3, [pc, #736]	; (404058 <_dtoa_r+0xa68>)
  403d76:	f001 020f 	and.w	r2, r1, #15
  403d7a:	110d      	asrs	r5, r1, #4
  403d7c:	eb03 03c2 	add.w	r3, r3, r2, lsl #3
  403d80:	06e9      	lsls	r1, r5, #27
  403d82:	e9d3 6700 	ldrd	r6, r7, [r3]
  403d86:	f140 81ae 	bpl.w	4040e6 <_dtoa_r+0xaf6>
  403d8a:	4bb4      	ldr	r3, [pc, #720]	; (40405c <_dtoa_r+0xa6c>)
  403d8c:	4650      	mov	r0, sl
  403d8e:	4659      	mov	r1, fp
  403d90:	e9d3 2308 	ldrd	r2, r3, [r3, #32]
  403d94:	f002 fab8 	bl	406308 <__aeabi_ddiv>
  403d98:	e9cd 0112 	strd	r0, r1, [sp, #72]	; 0x48
  403d9c:	f005 050f 	and.w	r5, r5, #15
  403da0:	f04f 0a03 	mov.w	sl, #3
  403da4:	b18d      	cbz	r5, 403dca <_dtoa_r+0x7da>
  403da6:	f8df 82b4 	ldr.w	r8, [pc, #692]	; 40405c <_dtoa_r+0xa6c>
  403daa:	07ea      	lsls	r2, r5, #31
  403dac:	d509      	bpl.n	403dc2 <_dtoa_r+0x7d2>
  403dae:	4630      	mov	r0, r6
  403db0:	4639      	mov	r1, r7
  403db2:	e9d8 2300 	ldrd	r2, r3, [r8]
  403db6:	f002 f97d 	bl	4060b4 <__aeabi_dmul>
  403dba:	f10a 0a01 	add.w	sl, sl, #1
  403dbe:	4606      	mov	r6, r0
  403dc0:	460f      	mov	r7, r1
  403dc2:	106d      	asrs	r5, r5, #1
  403dc4:	f108 0808 	add.w	r8, r8, #8
  403dc8:	d1ef      	bne.n	403daa <_dtoa_r+0x7ba>
  403dca:	463b      	mov	r3, r7
  403dcc:	4632      	mov	r2, r6
  403dce:	e9dd 0112 	ldrd	r0, r1, [sp, #72]	; 0x48
  403dd2:	f002 fa99 	bl	406308 <__aeabi_ddiv>
  403dd6:	4607      	mov	r7, r0
  403dd8:	4688      	mov	r8, r1
  403dda:	9b0e      	ldr	r3, [sp, #56]	; 0x38
  403ddc:	b143      	cbz	r3, 403df0 <_dtoa_r+0x800>
  403dde:	2200      	movs	r2, #0
  403de0:	4b9f      	ldr	r3, [pc, #636]	; (404060 <_dtoa_r+0xa70>)
  403de2:	4638      	mov	r0, r7
  403de4:	4641      	mov	r1, r8
  403de6:	f002 fbd7 	bl	406598 <__aeabi_dcmplt>
  403dea:	2800      	cmp	r0, #0
  403dec:	f040 8286 	bne.w	4042fc <_dtoa_r+0xd0c>
  403df0:	4650      	mov	r0, sl
  403df2:	f002 f8f9 	bl	405fe8 <__aeabi_i2d>
  403df6:	463a      	mov	r2, r7
  403df8:	4643      	mov	r3, r8
  403dfa:	f002 f95b 	bl	4060b4 <__aeabi_dmul>
  403dfe:	4b99      	ldr	r3, [pc, #612]	; (404064 <_dtoa_r+0xa74>)
  403e00:	2200      	movs	r2, #0
  403e02:	f001 ffa5 	bl	405d50 <__adddf3>
  403e06:	9b0a      	ldr	r3, [sp, #40]	; 0x28
  403e08:	4605      	mov	r5, r0
  403e0a:	f1a1 7650 	sub.w	r6, r1, #54525952	; 0x3400000
  403e0e:	2b00      	cmp	r3, #0
  403e10:	f000 813e 	beq.w	404090 <_dtoa_r+0xaa0>
  403e14:	9b02      	ldr	r3, [sp, #8]
  403e16:	9315      	str	r3, [sp, #84]	; 0x54
  403e18:	9b0a      	ldr	r3, [sp, #40]	; 0x28
  403e1a:	9312      	str	r3, [sp, #72]	; 0x48
  403e1c:	9b0b      	ldr	r3, [sp, #44]	; 0x2c
  403e1e:	2b00      	cmp	r3, #0
  403e20:	f000 81fa 	beq.w	404218 <_dtoa_r+0xc28>
  403e24:	9a12      	ldr	r2, [sp, #72]	; 0x48
  403e26:	4b8c      	ldr	r3, [pc, #560]	; (404058 <_dtoa_r+0xa68>)
  403e28:	498f      	ldr	r1, [pc, #572]	; (404068 <_dtoa_r+0xa78>)
  403e2a:	eb03 03c2 	add.w	r3, r3, r2, lsl #3
  403e2e:	e953 2302 	ldrd	r2, r3, [r3, #-8]
  403e32:	2000      	movs	r0, #0
  403e34:	f002 fa68 	bl	406308 <__aeabi_ddiv>
  403e38:	462a      	mov	r2, r5
  403e3a:	4633      	mov	r3, r6
  403e3c:	f001 ff86 	bl	405d4c <__aeabi_dsub>
  403e40:	4682      	mov	sl, r0
  403e42:	468b      	mov	fp, r1
  403e44:	4638      	mov	r0, r7
  403e46:	4641      	mov	r1, r8
  403e48:	f002 fbe4 	bl	406614 <__aeabi_d2iz>
  403e4c:	4605      	mov	r5, r0
  403e4e:	f002 f8cb 	bl	405fe8 <__aeabi_i2d>
  403e52:	4602      	mov	r2, r0
  403e54:	460b      	mov	r3, r1
  403e56:	4638      	mov	r0, r7
  403e58:	4641      	mov	r1, r8
  403e5a:	f001 ff77 	bl	405d4c <__aeabi_dsub>
  403e5e:	3530      	adds	r5, #48	; 0x30
  403e60:	fa5f f885 	uxtb.w	r8, r5
  403e64:	9d04      	ldr	r5, [sp, #16]
  403e66:	4606      	mov	r6, r0
  403e68:	460f      	mov	r7, r1
  403e6a:	f885 8000 	strb.w	r8, [r5]
  403e6e:	4602      	mov	r2, r0
  403e70:	460b      	mov	r3, r1
  403e72:	4650      	mov	r0, sl
  403e74:	4659      	mov	r1, fp
  403e76:	3501      	adds	r5, #1
  403e78:	f002 fbac 	bl	4065d4 <__aeabi_dcmpgt>
  403e7c:	2800      	cmp	r0, #0
  403e7e:	d154      	bne.n	403f2a <_dtoa_r+0x93a>
  403e80:	4632      	mov	r2, r6
  403e82:	463b      	mov	r3, r7
  403e84:	2000      	movs	r0, #0
  403e86:	4976      	ldr	r1, [pc, #472]	; (404060 <_dtoa_r+0xa70>)
  403e88:	f001 ff60 	bl	405d4c <__aeabi_dsub>
  403e8c:	4602      	mov	r2, r0
  403e8e:	460b      	mov	r3, r1
  403e90:	4650      	mov	r0, sl
  403e92:	4659      	mov	r1, fp
  403e94:	f002 fb9e 	bl	4065d4 <__aeabi_dcmpgt>
  403e98:	2800      	cmp	r0, #0
  403e9a:	f040 8270 	bne.w	40437e <_dtoa_r+0xd8e>
  403e9e:	9a12      	ldr	r2, [sp, #72]	; 0x48
  403ea0:	2a01      	cmp	r2, #1
  403ea2:	f000 8111 	beq.w	4040c8 <_dtoa_r+0xad8>
  403ea6:	9b12      	ldr	r3, [sp, #72]	; 0x48
  403ea8:	9a04      	ldr	r2, [sp, #16]
  403eaa:	f8cd 9048 	str.w	r9, [sp, #72]	; 0x48
  403eae:	4413      	add	r3, r2
  403eb0:	4699      	mov	r9, r3
  403eb2:	e00d      	b.n	403ed0 <_dtoa_r+0x8e0>
  403eb4:	2000      	movs	r0, #0
  403eb6:	496a      	ldr	r1, [pc, #424]	; (404060 <_dtoa_r+0xa70>)
  403eb8:	f001 ff48 	bl	405d4c <__aeabi_dsub>
  403ebc:	4652      	mov	r2, sl
  403ebe:	465b      	mov	r3, fp
  403ec0:	f002 fb6a 	bl	406598 <__aeabi_dcmplt>
  403ec4:	2800      	cmp	r0, #0
  403ec6:	f040 8258 	bne.w	40437a <_dtoa_r+0xd8a>
  403eca:	454d      	cmp	r5, r9
  403ecc:	f000 80fa 	beq.w	4040c4 <_dtoa_r+0xad4>
  403ed0:	4650      	mov	r0, sl
  403ed2:	4659      	mov	r1, fp
  403ed4:	2200      	movs	r2, #0
  403ed6:	4b65      	ldr	r3, [pc, #404]	; (40406c <_dtoa_r+0xa7c>)
  403ed8:	f002 f8ec 	bl	4060b4 <__aeabi_dmul>
  403edc:	2200      	movs	r2, #0
  403ede:	4b63      	ldr	r3, [pc, #396]	; (40406c <_dtoa_r+0xa7c>)
  403ee0:	4682      	mov	sl, r0
  403ee2:	468b      	mov	fp, r1
  403ee4:	4630      	mov	r0, r6
  403ee6:	4639      	mov	r1, r7
  403ee8:	f002 f8e4 	bl	4060b4 <__aeabi_dmul>
  403eec:	460f      	mov	r7, r1
  403eee:	4606      	mov	r6, r0
  403ef0:	f002 fb90 	bl	406614 <__aeabi_d2iz>
  403ef4:	4680      	mov	r8, r0
  403ef6:	f002 f877 	bl	405fe8 <__aeabi_i2d>
  403efa:	4602      	mov	r2, r0
  403efc:	460b      	mov	r3, r1
  403efe:	4630      	mov	r0, r6
  403f00:	4639      	mov	r1, r7
  403f02:	f001 ff23 	bl	405d4c <__aeabi_dsub>
  403f06:	f108 0830 	add.w	r8, r8, #48	; 0x30
  403f0a:	fa5f f888 	uxtb.w	r8, r8
  403f0e:	4652      	mov	r2, sl
  403f10:	465b      	mov	r3, fp
  403f12:	f805 8b01 	strb.w	r8, [r5], #1
  403f16:	4606      	mov	r6, r0
  403f18:	460f      	mov	r7, r1
  403f1a:	f002 fb3d 	bl	406598 <__aeabi_dcmplt>
  403f1e:	4632      	mov	r2, r6
  403f20:	463b      	mov	r3, r7
  403f22:	2800      	cmp	r0, #0
  403f24:	d0c6      	beq.n	403eb4 <_dtoa_r+0x8c4>
  403f26:	f8dd 9048 	ldr.w	r9, [sp, #72]	; 0x48
  403f2a:	9b15      	ldr	r3, [sp, #84]	; 0x54
  403f2c:	9302      	str	r3, [sp, #8]
  403f2e:	e523      	b.n	403978 <_dtoa_r+0x388>
  403f30:	2300      	movs	r3, #0
  403f32:	930b      	str	r3, [sp, #44]	; 0x2c
  403f34:	9b25      	ldr	r3, [sp, #148]	; 0x94
  403f36:	2b00      	cmp	r3, #0
  403f38:	f340 80dc 	ble.w	4040f4 <_dtoa_r+0xb04>
  403f3c:	461f      	mov	r7, r3
  403f3e:	461e      	mov	r6, r3
  403f40:	930f      	str	r3, [sp, #60]	; 0x3c
  403f42:	930a      	str	r3, [sp, #40]	; 0x28
  403f44:	e6f6      	b.n	403d34 <_dtoa_r+0x744>
  403f46:	2301      	movs	r3, #1
  403f48:	930b      	str	r3, [sp, #44]	; 0x2c
  403f4a:	e7f3      	b.n	403f34 <_dtoa_r+0x944>
  403f4c:	f1ba 0f00 	cmp.w	sl, #0
  403f50:	f47f ada8 	bne.w	403aa4 <_dtoa_r+0x4b4>
  403f54:	f3cb 0313 	ubfx	r3, fp, #0, #20
  403f58:	2b00      	cmp	r3, #0
  403f5a:	f47f adba 	bne.w	403ad2 <_dtoa_r+0x4e2>
  403f5e:	f02b 4700 	bic.w	r7, fp, #2147483648	; 0x80000000
  403f62:	0d3f      	lsrs	r7, r7, #20
  403f64:	053f      	lsls	r7, r7, #20
  403f66:	2f00      	cmp	r7, #0
  403f68:	f000 820d 	beq.w	404386 <_dtoa_r+0xd96>
  403f6c:	9b08      	ldr	r3, [sp, #32]
  403f6e:	3301      	adds	r3, #1
  403f70:	9308      	str	r3, [sp, #32]
  403f72:	9b06      	ldr	r3, [sp, #24]
  403f74:	3301      	adds	r3, #1
  403f76:	9306      	str	r3, [sp, #24]
  403f78:	2301      	movs	r3, #1
  403f7a:	930c      	str	r3, [sp, #48]	; 0x30
  403f7c:	e5ab      	b.n	403ad6 <_dtoa_r+0x4e6>
  403f7e:	9b0a      	ldr	r3, [sp, #40]	; 0x28
  403f80:	2b00      	cmp	r3, #0
  403f82:	f73f ac42 	bgt.w	40380a <_dtoa_r+0x21a>
  403f86:	f040 8221 	bne.w	4043cc <_dtoa_r+0xddc>
  403f8a:	2200      	movs	r2, #0
  403f8c:	4b38      	ldr	r3, [pc, #224]	; (404070 <_dtoa_r+0xa80>)
  403f8e:	e9dd 0108 	ldrd	r0, r1, [sp, #32]
  403f92:	f002 f88f 	bl	4060b4 <__aeabi_dmul>
  403f96:	4652      	mov	r2, sl
  403f98:	465b      	mov	r3, fp
  403f9a:	f002 fb11 	bl	4065c0 <__aeabi_dcmpge>
  403f9e:	f8dd 8028 	ldr.w	r8, [sp, #40]	; 0x28
  403fa2:	4646      	mov	r6, r8
  403fa4:	2800      	cmp	r0, #0
  403fa6:	d041      	beq.n	40402c <_dtoa_r+0xa3c>
  403fa8:	9b25      	ldr	r3, [sp, #148]	; 0x94
  403faa:	9d04      	ldr	r5, [sp, #16]
  403fac:	43db      	mvns	r3, r3
  403fae:	9302      	str	r3, [sp, #8]
  403fb0:	4641      	mov	r1, r8
  403fb2:	4620      	mov	r0, r4
  403fb4:	f000 fe70 	bl	404c98 <_Bfree>
  403fb8:	2e00      	cmp	r6, #0
  403fba:	f43f acdd 	beq.w	403978 <_dtoa_r+0x388>
  403fbe:	e6a7      	b.n	403d10 <_dtoa_r+0x720>
  403fc0:	9a0c      	ldr	r2, [sp, #48]	; 0x30
  403fc2:	4649      	mov	r1, r9
  403fc4:	4620      	mov	r0, r4
  403fc6:	f000 ff9d 	bl	404f04 <__pow5mult>
  403fca:	4681      	mov	r9, r0
  403fcc:	e558      	b.n	403a80 <_dtoa_r+0x490>
  403fce:	9a14      	ldr	r2, [sp, #80]	; 0x50
  403fd0:	2a00      	cmp	r2, #0
  403fd2:	f000 8187 	beq.w	4042e4 <_dtoa_r+0xcf4>
  403fd6:	f203 4333 	addw	r3, r3, #1075	; 0x433
  403fda:	9f0c      	ldr	r7, [sp, #48]	; 0x30
  403fdc:	9d08      	ldr	r5, [sp, #32]
  403fde:	e4f2      	b.n	4039c6 <_dtoa_r+0x3d6>
  403fe0:	f1ba 0f00 	cmp.w	sl, #0
  403fe4:	f47f ad75 	bne.w	403ad2 <_dtoa_r+0x4e2>
  403fe8:	e7b4      	b.n	403f54 <_dtoa_r+0x964>
  403fea:	f000 fe5f 	bl	404cac <__multadd>
  403fee:	4647      	mov	r7, r8
  403ff0:	4606      	mov	r6, r0
  403ff2:	4683      	mov	fp, r0
  403ff4:	e5be      	b.n	403b74 <_dtoa_r+0x584>
  403ff6:	4601      	mov	r1, r0
  403ff8:	4620      	mov	r0, r4
  403ffa:	9306      	str	r3, [sp, #24]
  403ffc:	f000 fe4c 	bl	404c98 <_Bfree>
  404000:	2201      	movs	r2, #1
  404002:	9b06      	ldr	r3, [sp, #24]
  404004:	e5e0      	b.n	403bc8 <_dtoa_r+0x5d8>
  404006:	9b24      	ldr	r3, [sp, #144]	; 0x90
  404008:	2b02      	cmp	r3, #2
  40400a:	f77f ad96 	ble.w	403b3a <_dtoa_r+0x54a>
  40400e:	9b0a      	ldr	r3, [sp, #40]	; 0x28
  404010:	2b00      	cmp	r3, #0
  404012:	d1c9      	bne.n	403fa8 <_dtoa_r+0x9b8>
  404014:	4641      	mov	r1, r8
  404016:	2205      	movs	r2, #5
  404018:	4620      	mov	r0, r4
  40401a:	f000 fe47 	bl	404cac <__multadd>
  40401e:	4601      	mov	r1, r0
  404020:	4680      	mov	r8, r0
  404022:	4648      	mov	r0, r9
  404024:	f001 f810 	bl	405048 <__mcmp>
  404028:	2800      	cmp	r0, #0
  40402a:	ddbd      	ble.n	403fa8 <_dtoa_r+0x9b8>
  40402c:	9a02      	ldr	r2, [sp, #8]
  40402e:	9904      	ldr	r1, [sp, #16]
  404030:	2331      	movs	r3, #49	; 0x31
  404032:	3201      	adds	r2, #1
  404034:	9202      	str	r2, [sp, #8]
  404036:	700b      	strb	r3, [r1, #0]
  404038:	1c4d      	adds	r5, r1, #1
  40403a:	e7b9      	b.n	403fb0 <_dtoa_r+0x9c0>
  40403c:	9a02      	ldr	r2, [sp, #8]
  40403e:	3201      	adds	r2, #1
  404040:	9202      	str	r2, [sp, #8]
  404042:	9a04      	ldr	r2, [sp, #16]
  404044:	2331      	movs	r3, #49	; 0x31
  404046:	7013      	strb	r3, [r2, #0]
  404048:	e652      	b.n	403cf0 <_dtoa_r+0x700>
  40404a:	2301      	movs	r3, #1
  40404c:	930b      	str	r3, [sp, #44]	; 0x2c
  40404e:	e666      	b.n	403d1e <_dtoa_r+0x72e>
  404050:	f8dd 902c 	ldr.w	r9, [sp, #44]	; 0x2c
  404054:	9c0c      	ldr	r4, [sp, #48]	; 0x30
  404056:	e48f      	b.n	403978 <_dtoa_r+0x388>
  404058:	00407708 	.word	0x00407708
  40405c:	004076e0 	.word	0x004076e0
  404060:	3ff00000 	.word	0x3ff00000
  404064:	401c0000 	.word	0x401c0000
  404068:	3fe00000 	.word	0x3fe00000
  40406c:	40240000 	.word	0x40240000
  404070:	40140000 	.word	0x40140000
  404074:	4650      	mov	r0, sl
  404076:	f001 ffb7 	bl	405fe8 <__aeabi_i2d>
  40407a:	463a      	mov	r2, r7
  40407c:	4643      	mov	r3, r8
  40407e:	f002 f819 	bl	4060b4 <__aeabi_dmul>
  404082:	2200      	movs	r2, #0
  404084:	4bc1      	ldr	r3, [pc, #772]	; (40438c <_dtoa_r+0xd9c>)
  404086:	f001 fe63 	bl	405d50 <__adddf3>
  40408a:	4605      	mov	r5, r0
  40408c:	f1a1 7650 	sub.w	r6, r1, #54525952	; 0x3400000
  404090:	4641      	mov	r1, r8
  404092:	2200      	movs	r2, #0
  404094:	4bbe      	ldr	r3, [pc, #760]	; (404390 <_dtoa_r+0xda0>)
  404096:	4638      	mov	r0, r7
  404098:	f001 fe58 	bl	405d4c <__aeabi_dsub>
  40409c:	462a      	mov	r2, r5
  40409e:	4633      	mov	r3, r6
  4040a0:	4682      	mov	sl, r0
  4040a2:	468b      	mov	fp, r1
  4040a4:	f002 fa96 	bl	4065d4 <__aeabi_dcmpgt>
  4040a8:	4680      	mov	r8, r0
  4040aa:	2800      	cmp	r0, #0
  4040ac:	f040 8110 	bne.w	4042d0 <_dtoa_r+0xce0>
  4040b0:	462a      	mov	r2, r5
  4040b2:	f106 4300 	add.w	r3, r6, #2147483648	; 0x80000000
  4040b6:	4650      	mov	r0, sl
  4040b8:	4659      	mov	r1, fp
  4040ba:	f002 fa6d 	bl	406598 <__aeabi_dcmplt>
  4040be:	b118      	cbz	r0, 4040c8 <_dtoa_r+0xad8>
  4040c0:	4646      	mov	r6, r8
  4040c2:	e771      	b.n	403fa8 <_dtoa_r+0x9b8>
  4040c4:	f8dd 9048 	ldr.w	r9, [sp, #72]	; 0x48
  4040c8:	e9dd ab10 	ldrd	sl, fp, [sp, #64]	; 0x40
  4040cc:	f7ff bb8a 	b.w	4037e4 <_dtoa_r+0x1f4>
  4040d0:	9804      	ldr	r0, [sp, #16]
  4040d2:	f7ff babb 	b.w	40364c <_dtoa_r+0x5c>
  4040d6:	9b0c      	ldr	r3, [sp, #48]	; 0x30
  4040d8:	9a0d      	ldr	r2, [sp, #52]	; 0x34
  4040da:	970c      	str	r7, [sp, #48]	; 0x30
  4040dc:	1afb      	subs	r3, r7, r3
  4040de:	441a      	add	r2, r3
  4040e0:	920d      	str	r2, [sp, #52]	; 0x34
  4040e2:	2700      	movs	r7, #0
  4040e4:	e469      	b.n	4039ba <_dtoa_r+0x3ca>
  4040e6:	e9dd 2310 	ldrd	r2, r3, [sp, #64]	; 0x40
  4040ea:	f04f 0a02 	mov.w	sl, #2
  4040ee:	e9cd 2312 	strd	r2, r3, [sp, #72]	; 0x48
  4040f2:	e657      	b.n	403da4 <_dtoa_r+0x7b4>
  4040f4:	2100      	movs	r1, #0
  4040f6:	2301      	movs	r3, #1
  4040f8:	6461      	str	r1, [r4, #68]	; 0x44
  4040fa:	4620      	mov	r0, r4
  4040fc:	9325      	str	r3, [sp, #148]	; 0x94
  4040fe:	f000 fda5 	bl	404c4c <_Balloc>
  404102:	9b25      	ldr	r3, [sp, #148]	; 0x94
  404104:	9004      	str	r0, [sp, #16]
  404106:	6420      	str	r0, [r4, #64]	; 0x40
  404108:	930a      	str	r3, [sp, #40]	; 0x28
  40410a:	930f      	str	r3, [sp, #60]	; 0x3c
  40410c:	e629      	b.n	403d62 <_dtoa_r+0x772>
  40410e:	2a00      	cmp	r2, #0
  404110:	46d0      	mov	r8, sl
  404112:	f8cd b018 	str.w	fp, [sp, #24]
  404116:	469a      	mov	sl, r3
  404118:	dd11      	ble.n	40413e <_dtoa_r+0xb4e>
  40411a:	4649      	mov	r1, r9
  40411c:	2201      	movs	r2, #1
  40411e:	4620      	mov	r0, r4
  404120:	f000 ff40 	bl	404fa4 <__lshift>
  404124:	4641      	mov	r1, r8
  404126:	4681      	mov	r9, r0
  404128:	f000 ff8e 	bl	405048 <__mcmp>
  40412c:	2800      	cmp	r0, #0
  40412e:	f340 8146 	ble.w	4043be <_dtoa_r+0xdce>
  404132:	f1ba 0f39 	cmp.w	sl, #57	; 0x39
  404136:	f000 8106 	beq.w	404346 <_dtoa_r+0xd56>
  40413a:	f105 0a31 	add.w	sl, r5, #49	; 0x31
  40413e:	46b3      	mov	fp, r6
  404140:	f887 a000 	strb.w	sl, [r7]
  404144:	1c7d      	adds	r5, r7, #1
  404146:	9e06      	ldr	r6, [sp, #24]
  404148:	e5d2      	b.n	403cf0 <_dtoa_r+0x700>
  40414a:	d104      	bne.n	404156 <_dtoa_r+0xb66>
  40414c:	f01a 0f01 	tst.w	sl, #1
  404150:	d001      	beq.n	404156 <_dtoa_r+0xb66>
  404152:	e5bd      	b.n	403cd0 <_dtoa_r+0x6e0>
  404154:	4615      	mov	r5, r2
  404156:	f815 3c01 	ldrb.w	r3, [r5, #-1]
  40415a:	2b30      	cmp	r3, #48	; 0x30
  40415c:	f105 32ff 	add.w	r2, r5, #4294967295
  404160:	d0f8      	beq.n	404154 <_dtoa_r+0xb64>
  404162:	e5c5      	b.n	403cf0 <_dtoa_r+0x700>
  404164:	9904      	ldr	r1, [sp, #16]
  404166:	2230      	movs	r2, #48	; 0x30
  404168:	700a      	strb	r2, [r1, #0]
  40416a:	9a02      	ldr	r2, [sp, #8]
  40416c:	f815 8c01 	ldrb.w	r8, [r5, #-1]
  404170:	3201      	adds	r2, #1
  404172:	9202      	str	r2, [sp, #8]
  404174:	f7ff bbfc 	b.w	403970 <_dtoa_r+0x380>
  404178:	f000 80bb 	beq.w	4042f2 <_dtoa_r+0xd02>
  40417c:	9b02      	ldr	r3, [sp, #8]
  40417e:	425d      	negs	r5, r3
  404180:	4b84      	ldr	r3, [pc, #528]	; (404394 <_dtoa_r+0xda4>)
  404182:	f005 020f 	and.w	r2, r5, #15
  404186:	eb03 03c2 	add.w	r3, r3, r2, lsl #3
  40418a:	e9d3 2300 	ldrd	r2, r3, [r3]
  40418e:	e9dd 0110 	ldrd	r0, r1, [sp, #64]	; 0x40
  404192:	f001 ff8f 	bl	4060b4 <__aeabi_dmul>
  404196:	112d      	asrs	r5, r5, #4
  404198:	4607      	mov	r7, r0
  40419a:	4688      	mov	r8, r1
  40419c:	f000 812c 	beq.w	4043f8 <_dtoa_r+0xe08>
  4041a0:	4e7d      	ldr	r6, [pc, #500]	; (404398 <_dtoa_r+0xda8>)
  4041a2:	f04f 0a02 	mov.w	sl, #2
  4041a6:	07eb      	lsls	r3, r5, #31
  4041a8:	d509      	bpl.n	4041be <_dtoa_r+0xbce>
  4041aa:	4638      	mov	r0, r7
  4041ac:	4641      	mov	r1, r8
  4041ae:	e9d6 2300 	ldrd	r2, r3, [r6]
  4041b2:	f001 ff7f 	bl	4060b4 <__aeabi_dmul>
  4041b6:	f10a 0a01 	add.w	sl, sl, #1
  4041ba:	4607      	mov	r7, r0
  4041bc:	4688      	mov	r8, r1
  4041be:	106d      	asrs	r5, r5, #1
  4041c0:	f106 0608 	add.w	r6, r6, #8
  4041c4:	d1ef      	bne.n	4041a6 <_dtoa_r+0xbb6>
  4041c6:	e608      	b.n	403dda <_dtoa_r+0x7ea>
  4041c8:	6871      	ldr	r1, [r6, #4]
  4041ca:	4620      	mov	r0, r4
  4041cc:	f000 fd3e 	bl	404c4c <_Balloc>
  4041d0:	6933      	ldr	r3, [r6, #16]
  4041d2:	3302      	adds	r3, #2
  4041d4:	009a      	lsls	r2, r3, #2
  4041d6:	4605      	mov	r5, r0
  4041d8:	f106 010c 	add.w	r1, r6, #12
  4041dc:	300c      	adds	r0, #12
  4041de:	f000 fc8f 	bl	404b00 <memcpy>
  4041e2:	4629      	mov	r1, r5
  4041e4:	2201      	movs	r2, #1
  4041e6:	4620      	mov	r0, r4
  4041e8:	f000 fedc 	bl	404fa4 <__lshift>
  4041ec:	9006      	str	r0, [sp, #24]
  4041ee:	e4b5      	b.n	403b5c <_dtoa_r+0x56c>
  4041f0:	2b39      	cmp	r3, #57	; 0x39
  4041f2:	f8cd b018 	str.w	fp, [sp, #24]
  4041f6:	46d0      	mov	r8, sl
  4041f8:	f000 80a5 	beq.w	404346 <_dtoa_r+0xd56>
  4041fc:	f103 0a01 	add.w	sl, r3, #1
  404200:	46b3      	mov	fp, r6
  404202:	f887 a000 	strb.w	sl, [r7]
  404206:	1c7d      	adds	r5, r7, #1
  404208:	9e06      	ldr	r6, [sp, #24]
  40420a:	e571      	b.n	403cf0 <_dtoa_r+0x700>
  40420c:	465a      	mov	r2, fp
  40420e:	46d0      	mov	r8, sl
  404210:	46b3      	mov	fp, r6
  404212:	469a      	mov	sl, r3
  404214:	4616      	mov	r6, r2
  404216:	e54f      	b.n	403cb8 <_dtoa_r+0x6c8>
  404218:	9b12      	ldr	r3, [sp, #72]	; 0x48
  40421a:	495e      	ldr	r1, [pc, #376]	; (404394 <_dtoa_r+0xda4>)
  40421c:	eb01 01c3 	add.w	r1, r1, r3, lsl #3
  404220:	462a      	mov	r2, r5
  404222:	4633      	mov	r3, r6
  404224:	e951 0102 	ldrd	r0, r1, [r1, #-8]
  404228:	f001 ff44 	bl	4060b4 <__aeabi_dmul>
  40422c:	e9cd 0116 	strd	r0, r1, [sp, #88]	; 0x58
  404230:	4638      	mov	r0, r7
  404232:	4641      	mov	r1, r8
  404234:	f002 f9ee 	bl	406614 <__aeabi_d2iz>
  404238:	4605      	mov	r5, r0
  40423a:	f001 fed5 	bl	405fe8 <__aeabi_i2d>
  40423e:	460b      	mov	r3, r1
  404240:	4602      	mov	r2, r0
  404242:	4641      	mov	r1, r8
  404244:	4638      	mov	r0, r7
  404246:	f001 fd81 	bl	405d4c <__aeabi_dsub>
  40424a:	9b12      	ldr	r3, [sp, #72]	; 0x48
  40424c:	460f      	mov	r7, r1
  40424e:	9904      	ldr	r1, [sp, #16]
  404250:	3530      	adds	r5, #48	; 0x30
  404252:	2b01      	cmp	r3, #1
  404254:	700d      	strb	r5, [r1, #0]
  404256:	4606      	mov	r6, r0
  404258:	f101 0501 	add.w	r5, r1, #1
  40425c:	d026      	beq.n	4042ac <_dtoa_r+0xcbc>
  40425e:	9b12      	ldr	r3, [sp, #72]	; 0x48
  404260:	9a04      	ldr	r2, [sp, #16]
  404262:	f8df b13c 	ldr.w	fp, [pc, #316]	; 4043a0 <_dtoa_r+0xdb0>
  404266:	f8cd 9048 	str.w	r9, [sp, #72]	; 0x48
  40426a:	4413      	add	r3, r2
  40426c:	f04f 0a00 	mov.w	sl, #0
  404270:	4699      	mov	r9, r3
  404272:	4652      	mov	r2, sl
  404274:	465b      	mov	r3, fp
  404276:	4630      	mov	r0, r6
  404278:	4639      	mov	r1, r7
  40427a:	f001 ff1b 	bl	4060b4 <__aeabi_dmul>
  40427e:	460f      	mov	r7, r1
  404280:	4606      	mov	r6, r0
  404282:	f002 f9c7 	bl	406614 <__aeabi_d2iz>
  404286:	4680      	mov	r8, r0
  404288:	f001 feae 	bl	405fe8 <__aeabi_i2d>
  40428c:	f108 0830 	add.w	r8, r8, #48	; 0x30
  404290:	4602      	mov	r2, r0
  404292:	460b      	mov	r3, r1
  404294:	4630      	mov	r0, r6
  404296:	4639      	mov	r1, r7
  404298:	f001 fd58 	bl	405d4c <__aeabi_dsub>
  40429c:	f805 8b01 	strb.w	r8, [r5], #1
  4042a0:	454d      	cmp	r5, r9
  4042a2:	4606      	mov	r6, r0
  4042a4:	460f      	mov	r7, r1
  4042a6:	d1e4      	bne.n	404272 <_dtoa_r+0xc82>
  4042a8:	f8dd 9048 	ldr.w	r9, [sp, #72]	; 0x48
  4042ac:	4b3b      	ldr	r3, [pc, #236]	; (40439c <_dtoa_r+0xdac>)
  4042ae:	2200      	movs	r2, #0
  4042b0:	e9dd 0116 	ldrd	r0, r1, [sp, #88]	; 0x58
  4042b4:	f001 fd4c 	bl	405d50 <__adddf3>
  4042b8:	4632      	mov	r2, r6
  4042ba:	463b      	mov	r3, r7
  4042bc:	f002 f96c 	bl	406598 <__aeabi_dcmplt>
  4042c0:	2800      	cmp	r0, #0
  4042c2:	d046      	beq.n	404352 <_dtoa_r+0xd62>
  4042c4:	9b15      	ldr	r3, [sp, #84]	; 0x54
  4042c6:	9302      	str	r3, [sp, #8]
  4042c8:	f815 8c01 	ldrb.w	r8, [r5, #-1]
  4042cc:	f7ff bb43 	b.w	403956 <_dtoa_r+0x366>
  4042d0:	f04f 0800 	mov.w	r8, #0
  4042d4:	4646      	mov	r6, r8
  4042d6:	e6a9      	b.n	40402c <_dtoa_r+0xa3c>
  4042d8:	9b08      	ldr	r3, [sp, #32]
  4042da:	9a0a      	ldr	r2, [sp, #40]	; 0x28
  4042dc:	1a9d      	subs	r5, r3, r2
  4042de:	2300      	movs	r3, #0
  4042e0:	f7ff bb71 	b.w	4039c6 <_dtoa_r+0x3d6>
  4042e4:	9b18      	ldr	r3, [sp, #96]	; 0x60
  4042e6:	9f0c      	ldr	r7, [sp, #48]	; 0x30
  4042e8:	9d08      	ldr	r5, [sp, #32]
  4042ea:	f1c3 0336 	rsb	r3, r3, #54	; 0x36
  4042ee:	f7ff bb6a 	b.w	4039c6 <_dtoa_r+0x3d6>
  4042f2:	e9dd 7810 	ldrd	r7, r8, [sp, #64]	; 0x40
  4042f6:	f04f 0a02 	mov.w	sl, #2
  4042fa:	e56e      	b.n	403dda <_dtoa_r+0x7ea>
  4042fc:	9b0a      	ldr	r3, [sp, #40]	; 0x28
  4042fe:	2b00      	cmp	r3, #0
  404300:	f43f aeb8 	beq.w	404074 <_dtoa_r+0xa84>
  404304:	9b0f      	ldr	r3, [sp, #60]	; 0x3c
  404306:	2b00      	cmp	r3, #0
  404308:	f77f aede 	ble.w	4040c8 <_dtoa_r+0xad8>
  40430c:	2200      	movs	r2, #0
  40430e:	4b24      	ldr	r3, [pc, #144]	; (4043a0 <_dtoa_r+0xdb0>)
  404310:	4638      	mov	r0, r7
  404312:	4641      	mov	r1, r8
  404314:	f001 fece 	bl	4060b4 <__aeabi_dmul>
  404318:	4607      	mov	r7, r0
  40431a:	4688      	mov	r8, r1
  40431c:	f10a 0001 	add.w	r0, sl, #1
  404320:	f001 fe62 	bl	405fe8 <__aeabi_i2d>
  404324:	463a      	mov	r2, r7
  404326:	4643      	mov	r3, r8
  404328:	f001 fec4 	bl	4060b4 <__aeabi_dmul>
  40432c:	2200      	movs	r2, #0
  40432e:	4b17      	ldr	r3, [pc, #92]	; (40438c <_dtoa_r+0xd9c>)
  404330:	f001 fd0e 	bl	405d50 <__adddf3>
  404334:	9a02      	ldr	r2, [sp, #8]
  404336:	9b0f      	ldr	r3, [sp, #60]	; 0x3c
  404338:	9312      	str	r3, [sp, #72]	; 0x48
  40433a:	3a01      	subs	r2, #1
  40433c:	4605      	mov	r5, r0
  40433e:	f1a1 7650 	sub.w	r6, r1, #54525952	; 0x3400000
  404342:	9215      	str	r2, [sp, #84]	; 0x54
  404344:	e56a      	b.n	403e1c <_dtoa_r+0x82c>
  404346:	2239      	movs	r2, #57	; 0x39
  404348:	46b3      	mov	fp, r6
  40434a:	703a      	strb	r2, [r7, #0]
  40434c:	9e06      	ldr	r6, [sp, #24]
  40434e:	1c7d      	adds	r5, r7, #1
  404350:	e4c0      	b.n	403cd4 <_dtoa_r+0x6e4>
  404352:	e9dd 2316 	ldrd	r2, r3, [sp, #88]	; 0x58
  404356:	2000      	movs	r0, #0
  404358:	4910      	ldr	r1, [pc, #64]	; (40439c <_dtoa_r+0xdac>)
  40435a:	f001 fcf7 	bl	405d4c <__aeabi_dsub>
  40435e:	4632      	mov	r2, r6
  404360:	463b      	mov	r3, r7
  404362:	f002 f937 	bl	4065d4 <__aeabi_dcmpgt>
  404366:	b908      	cbnz	r0, 40436c <_dtoa_r+0xd7c>
  404368:	e6ae      	b.n	4040c8 <_dtoa_r+0xad8>
  40436a:	4615      	mov	r5, r2
  40436c:	f815 3c01 	ldrb.w	r3, [r5, #-1]
  404370:	2b30      	cmp	r3, #48	; 0x30
  404372:	f105 32ff 	add.w	r2, r5, #4294967295
  404376:	d0f8      	beq.n	40436a <_dtoa_r+0xd7a>
  404378:	e5d7      	b.n	403f2a <_dtoa_r+0x93a>
  40437a:	f8dd 9048 	ldr.w	r9, [sp, #72]	; 0x48
  40437e:	9b15      	ldr	r3, [sp, #84]	; 0x54
  404380:	9302      	str	r3, [sp, #8]
  404382:	f7ff bae8 	b.w	403956 <_dtoa_r+0x366>
  404386:	970c      	str	r7, [sp, #48]	; 0x30
  404388:	f7ff bba5 	b.w	403ad6 <_dtoa_r+0x4e6>
  40438c:	401c0000 	.word	0x401c0000
  404390:	40140000 	.word	0x40140000
  404394:	00407708 	.word	0x00407708
  404398:	004076e0 	.word	0x004076e0
  40439c:	3fe00000 	.word	0x3fe00000
  4043a0:	40240000 	.word	0x40240000
  4043a4:	2b39      	cmp	r3, #57	; 0x39
  4043a6:	f8cd b018 	str.w	fp, [sp, #24]
  4043aa:	46d0      	mov	r8, sl
  4043ac:	f8dd b028 	ldr.w	fp, [sp, #40]	; 0x28
  4043b0:	469a      	mov	sl, r3
  4043b2:	d0c8      	beq.n	404346 <_dtoa_r+0xd56>
  4043b4:	f1bb 0f00 	cmp.w	fp, #0
  4043b8:	f73f aebf 	bgt.w	40413a <_dtoa_r+0xb4a>
  4043bc:	e6bf      	b.n	40413e <_dtoa_r+0xb4e>
  4043be:	f47f aebe 	bne.w	40413e <_dtoa_r+0xb4e>
  4043c2:	f01a 0f01 	tst.w	sl, #1
  4043c6:	f43f aeba 	beq.w	40413e <_dtoa_r+0xb4e>
  4043ca:	e6b2      	b.n	404132 <_dtoa_r+0xb42>
  4043cc:	f04f 0800 	mov.w	r8, #0
  4043d0:	4646      	mov	r6, r8
  4043d2:	e5e9      	b.n	403fa8 <_dtoa_r+0x9b8>
  4043d4:	4631      	mov	r1, r6
  4043d6:	2300      	movs	r3, #0
  4043d8:	220a      	movs	r2, #10
  4043da:	4620      	mov	r0, r4
  4043dc:	f000 fc66 	bl	404cac <__multadd>
  4043e0:	9b0f      	ldr	r3, [sp, #60]	; 0x3c
  4043e2:	2b00      	cmp	r3, #0
  4043e4:	4606      	mov	r6, r0
  4043e6:	dd0a      	ble.n	4043fe <_dtoa_r+0xe0e>
  4043e8:	930a      	str	r3, [sp, #40]	; 0x28
  4043ea:	f7ff bbaa 	b.w	403b42 <_dtoa_r+0x552>
  4043ee:	9b24      	ldr	r3, [sp, #144]	; 0x90
  4043f0:	2b02      	cmp	r3, #2
  4043f2:	dc23      	bgt.n	40443c <_dtoa_r+0xe4c>
  4043f4:	9b0f      	ldr	r3, [sp, #60]	; 0x3c
  4043f6:	e43b      	b.n	403c70 <_dtoa_r+0x680>
  4043f8:	f04f 0a02 	mov.w	sl, #2
  4043fc:	e4ed      	b.n	403dda <_dtoa_r+0x7ea>
  4043fe:	9b24      	ldr	r3, [sp, #144]	; 0x90
  404400:	2b02      	cmp	r3, #2
  404402:	dc1b      	bgt.n	40443c <_dtoa_r+0xe4c>
  404404:	9b0f      	ldr	r3, [sp, #60]	; 0x3c
  404406:	e7ef      	b.n	4043e8 <_dtoa_r+0xdf8>
  404408:	2500      	movs	r5, #0
  40440a:	6465      	str	r5, [r4, #68]	; 0x44
  40440c:	4629      	mov	r1, r5
  40440e:	4620      	mov	r0, r4
  404410:	f000 fc1c 	bl	404c4c <_Balloc>
  404414:	f04f 33ff 	mov.w	r3, #4294967295
  404418:	930a      	str	r3, [sp, #40]	; 0x28
  40441a:	930f      	str	r3, [sp, #60]	; 0x3c
  40441c:	2301      	movs	r3, #1
  40441e:	9004      	str	r0, [sp, #16]
  404420:	9525      	str	r5, [sp, #148]	; 0x94
  404422:	6420      	str	r0, [r4, #64]	; 0x40
  404424:	930b      	str	r3, [sp, #44]	; 0x2c
  404426:	f7ff b9dd 	b.w	4037e4 <_dtoa_r+0x1f4>
  40442a:	2501      	movs	r5, #1
  40442c:	f7ff b9a5 	b.w	40377a <_dtoa_r+0x18a>
  404430:	f43f ab69 	beq.w	403b06 <_dtoa_r+0x516>
  404434:	f1c0 003c 	rsb	r0, r0, #60	; 0x3c
  404438:	f7ff bbf9 	b.w	403c2e <_dtoa_r+0x63e>
  40443c:	9b0f      	ldr	r3, [sp, #60]	; 0x3c
  40443e:	930a      	str	r3, [sp, #40]	; 0x28
  404440:	e5e5      	b.n	40400e <_dtoa_r+0xa1e>
  404442:	bf00      	nop

00404444 <__libc_fini_array>:
  404444:	b538      	push	{r3, r4, r5, lr}
  404446:	4c0a      	ldr	r4, [pc, #40]	; (404470 <__libc_fini_array+0x2c>)
  404448:	4d0a      	ldr	r5, [pc, #40]	; (404474 <__libc_fini_array+0x30>)
  40444a:	1b64      	subs	r4, r4, r5
  40444c:	10a4      	asrs	r4, r4, #2
  40444e:	d00a      	beq.n	404466 <__libc_fini_array+0x22>
  404450:	f104 4380 	add.w	r3, r4, #1073741824	; 0x40000000
  404454:	3b01      	subs	r3, #1
  404456:	eb05 0583 	add.w	r5, r5, r3, lsl #2
  40445a:	3c01      	subs	r4, #1
  40445c:	f855 3904 	ldr.w	r3, [r5], #-4
  404460:	4798      	blx	r3
  404462:	2c00      	cmp	r4, #0
  404464:	d1f9      	bne.n	40445a <__libc_fini_array+0x16>
  404466:	e8bd 4038 	ldmia.w	sp!, {r3, r4, r5, lr}
  40446a:	f003 ba4b 	b.w	407904 <_fini>
  40446e:	bf00      	nop
  404470:	00407914 	.word	0x00407914
  404474:	00407910 	.word	0x00407910

00404478 <_localeconv_r>:
  404478:	4a04      	ldr	r2, [pc, #16]	; (40448c <_localeconv_r+0x14>)
  40447a:	4b05      	ldr	r3, [pc, #20]	; (404490 <_localeconv_r+0x18>)
  40447c:	6812      	ldr	r2, [r2, #0]
  40447e:	6b50      	ldr	r0, [r2, #52]	; 0x34
  404480:	2800      	cmp	r0, #0
  404482:	bf08      	it	eq
  404484:	4618      	moveq	r0, r3
  404486:	30f0      	adds	r0, #240	; 0xf0
  404488:	4770      	bx	lr
  40448a:	bf00      	nop
  40448c:	20000010 	.word	0x20000010
  404490:	20000854 	.word	0x20000854

00404494 <__retarget_lock_acquire_recursive>:
  404494:	4770      	bx	lr
  404496:	bf00      	nop

00404498 <__retarget_lock_release_recursive>:
  404498:	4770      	bx	lr
  40449a:	bf00      	nop

0040449c <_malloc_r>:
  40449c:	e92d 4ff0 	stmdb	sp!, {r4, r5, r6, r7, r8, r9, sl, fp, lr}
  4044a0:	f101 060b 	add.w	r6, r1, #11
  4044a4:	2e16      	cmp	r6, #22
  4044a6:	b083      	sub	sp, #12
  4044a8:	4605      	mov	r5, r0
  4044aa:	f240 809e 	bls.w	4045ea <_malloc_r+0x14e>
  4044ae:	f036 0607 	bics.w	r6, r6, #7
  4044b2:	f100 80bd 	bmi.w	404630 <_malloc_r+0x194>
  4044b6:	42b1      	cmp	r1, r6
  4044b8:	f200 80ba 	bhi.w	404630 <_malloc_r+0x194>
  4044bc:	f000 fbba 	bl	404c34 <__malloc_lock>
  4044c0:	f5b6 7ffc 	cmp.w	r6, #504	; 0x1f8
  4044c4:	f0c0 8293 	bcc.w	4049ee <_malloc_r+0x552>
  4044c8:	0a73      	lsrs	r3, r6, #9
  4044ca:	f000 80b8 	beq.w	40463e <_malloc_r+0x1a2>
  4044ce:	2b04      	cmp	r3, #4
  4044d0:	f200 8179 	bhi.w	4047c6 <_malloc_r+0x32a>
  4044d4:	09b3      	lsrs	r3, r6, #6
  4044d6:	f103 0039 	add.w	r0, r3, #57	; 0x39
  4044da:	f103 0e38 	add.w	lr, r3, #56	; 0x38
  4044de:	00c3      	lsls	r3, r0, #3
  4044e0:	4fbf      	ldr	r7, [pc, #764]	; (4047e0 <_malloc_r+0x344>)
  4044e2:	443b      	add	r3, r7
  4044e4:	f1a3 0108 	sub.w	r1, r3, #8
  4044e8:	685c      	ldr	r4, [r3, #4]
  4044ea:	42a1      	cmp	r1, r4
  4044ec:	d106      	bne.n	4044fc <_malloc_r+0x60>
  4044ee:	e00c      	b.n	40450a <_malloc_r+0x6e>
  4044f0:	2a00      	cmp	r2, #0
  4044f2:	f280 80aa 	bge.w	40464a <_malloc_r+0x1ae>
  4044f6:	68e4      	ldr	r4, [r4, #12]
  4044f8:	42a1      	cmp	r1, r4
  4044fa:	d006      	beq.n	40450a <_malloc_r+0x6e>
  4044fc:	6863      	ldr	r3, [r4, #4]
  4044fe:	f023 0303 	bic.w	r3, r3, #3
  404502:	1b9a      	subs	r2, r3, r6
  404504:	2a0f      	cmp	r2, #15
  404506:	ddf3      	ble.n	4044f0 <_malloc_r+0x54>
  404508:	4670      	mov	r0, lr
  40450a:	693c      	ldr	r4, [r7, #16]
  40450c:	f8df e2e4 	ldr.w	lr, [pc, #740]	; 4047f4 <_malloc_r+0x358>
  404510:	4574      	cmp	r4, lr
  404512:	f000 81ab 	beq.w	40486c <_malloc_r+0x3d0>
  404516:	6863      	ldr	r3, [r4, #4]
  404518:	f023 0303 	bic.w	r3, r3, #3
  40451c:	1b9a      	subs	r2, r3, r6
  40451e:	2a0f      	cmp	r2, #15
  404520:	f300 8190 	bgt.w	404844 <_malloc_r+0x3a8>
  404524:	2a00      	cmp	r2, #0
  404526:	f8c7 e014 	str.w	lr, [r7, #20]
  40452a:	f8c7 e010 	str.w	lr, [r7, #16]
  40452e:	f280 809d 	bge.w	40466c <_malloc_r+0x1d0>
  404532:	f5b3 7f00 	cmp.w	r3, #512	; 0x200
  404536:	f080 8161 	bcs.w	4047fc <_malloc_r+0x360>
  40453a:	08db      	lsrs	r3, r3, #3
  40453c:	f103 0c01 	add.w	ip, r3, #1
  404540:	1099      	asrs	r1, r3, #2
  404542:	687a      	ldr	r2, [r7, #4]
  404544:	f857 803c 	ldr.w	r8, [r7, ip, lsl #3]
  404548:	f8c4 8008 	str.w	r8, [r4, #8]
  40454c:	2301      	movs	r3, #1
  40454e:	408b      	lsls	r3, r1
  404550:	eb07 01cc 	add.w	r1, r7, ip, lsl #3
  404554:	4313      	orrs	r3, r2
  404556:	3908      	subs	r1, #8
  404558:	60e1      	str	r1, [r4, #12]
  40455a:	607b      	str	r3, [r7, #4]
  40455c:	f847 403c 	str.w	r4, [r7, ip, lsl #3]
  404560:	f8c8 400c 	str.w	r4, [r8, #12]
  404564:	1082      	asrs	r2, r0, #2
  404566:	2401      	movs	r4, #1
  404568:	4094      	lsls	r4, r2
  40456a:	429c      	cmp	r4, r3
  40456c:	f200 808b 	bhi.w	404686 <_malloc_r+0x1ea>
  404570:	421c      	tst	r4, r3
  404572:	d106      	bne.n	404582 <_malloc_r+0xe6>
  404574:	f020 0003 	bic.w	r0, r0, #3
  404578:	0064      	lsls	r4, r4, #1
  40457a:	421c      	tst	r4, r3
  40457c:	f100 0004 	add.w	r0, r0, #4
  404580:	d0fa      	beq.n	404578 <_malloc_r+0xdc>
  404582:	eb07 09c0 	add.w	r9, r7, r0, lsl #3
  404586:	46cc      	mov	ip, r9
  404588:	4680      	mov	r8, r0
  40458a:	f8dc 300c 	ldr.w	r3, [ip, #12]
  40458e:	459c      	cmp	ip, r3
  404590:	d107      	bne.n	4045a2 <_malloc_r+0x106>
  404592:	e16d      	b.n	404870 <_malloc_r+0x3d4>
  404594:	2a00      	cmp	r2, #0
  404596:	f280 817b 	bge.w	404890 <_malloc_r+0x3f4>
  40459a:	68db      	ldr	r3, [r3, #12]
  40459c:	459c      	cmp	ip, r3
  40459e:	f000 8167 	beq.w	404870 <_malloc_r+0x3d4>
  4045a2:	6859      	ldr	r1, [r3, #4]
  4045a4:	f021 0103 	bic.w	r1, r1, #3
  4045a8:	1b8a      	subs	r2, r1, r6
  4045aa:	2a0f      	cmp	r2, #15
  4045ac:	ddf2      	ble.n	404594 <_malloc_r+0xf8>
  4045ae:	f8d3 c00c 	ldr.w	ip, [r3, #12]
  4045b2:	f8d3 8008 	ldr.w	r8, [r3, #8]
  4045b6:	9300      	str	r3, [sp, #0]
  4045b8:	199c      	adds	r4, r3, r6
  4045ba:	4628      	mov	r0, r5
  4045bc:	f046 0601 	orr.w	r6, r6, #1
  4045c0:	f042 0501 	orr.w	r5, r2, #1
  4045c4:	605e      	str	r6, [r3, #4]
  4045c6:	f8c8 c00c 	str.w	ip, [r8, #12]
  4045ca:	f8cc 8008 	str.w	r8, [ip, #8]
  4045ce:	617c      	str	r4, [r7, #20]
  4045d0:	613c      	str	r4, [r7, #16]
  4045d2:	f8c4 e00c 	str.w	lr, [r4, #12]
  4045d6:	f8c4 e008 	str.w	lr, [r4, #8]
  4045da:	6065      	str	r5, [r4, #4]
  4045dc:	505a      	str	r2, [r3, r1]
  4045de:	f000 fb2f 	bl	404c40 <__malloc_unlock>
  4045e2:	9b00      	ldr	r3, [sp, #0]
  4045e4:	f103 0408 	add.w	r4, r3, #8
  4045e8:	e01e      	b.n	404628 <_malloc_r+0x18c>
  4045ea:	2910      	cmp	r1, #16
  4045ec:	d820      	bhi.n	404630 <_malloc_r+0x194>
  4045ee:	f000 fb21 	bl	404c34 <__malloc_lock>
  4045f2:	2610      	movs	r6, #16
  4045f4:	2318      	movs	r3, #24
  4045f6:	2002      	movs	r0, #2
  4045f8:	4f79      	ldr	r7, [pc, #484]	; (4047e0 <_malloc_r+0x344>)
  4045fa:	443b      	add	r3, r7
  4045fc:	f1a3 0208 	sub.w	r2, r3, #8
  404600:	685c      	ldr	r4, [r3, #4]
  404602:	4294      	cmp	r4, r2
  404604:	f000 813d 	beq.w	404882 <_malloc_r+0x3e6>
  404608:	6863      	ldr	r3, [r4, #4]
  40460a:	68e1      	ldr	r1, [r4, #12]
  40460c:	68a6      	ldr	r6, [r4, #8]
  40460e:	f023 0303 	bic.w	r3, r3, #3
  404612:	4423      	add	r3, r4
  404614:	4628      	mov	r0, r5
  404616:	685a      	ldr	r2, [r3, #4]
  404618:	60f1      	str	r1, [r6, #12]
  40461a:	f042 0201 	orr.w	r2, r2, #1
  40461e:	608e      	str	r6, [r1, #8]
  404620:	605a      	str	r2, [r3, #4]
  404622:	f000 fb0d 	bl	404c40 <__malloc_unlock>
  404626:	3408      	adds	r4, #8
  404628:	4620      	mov	r0, r4
  40462a:	b003      	add	sp, #12
  40462c:	e8bd 8ff0 	ldmia.w	sp!, {r4, r5, r6, r7, r8, r9, sl, fp, pc}
  404630:	2400      	movs	r4, #0
  404632:	230c      	movs	r3, #12
  404634:	4620      	mov	r0, r4
  404636:	602b      	str	r3, [r5, #0]
  404638:	b003      	add	sp, #12
  40463a:	e8bd 8ff0 	ldmia.w	sp!, {r4, r5, r6, r7, r8, r9, sl, fp, pc}
  40463e:	2040      	movs	r0, #64	; 0x40
  404640:	f44f 7300 	mov.w	r3, #512	; 0x200
  404644:	f04f 0e3f 	mov.w	lr, #63	; 0x3f
  404648:	e74a      	b.n	4044e0 <_malloc_r+0x44>
  40464a:	4423      	add	r3, r4
  40464c:	68e1      	ldr	r1, [r4, #12]
  40464e:	685a      	ldr	r2, [r3, #4]
  404650:	68a6      	ldr	r6, [r4, #8]
  404652:	f042 0201 	orr.w	r2, r2, #1
  404656:	60f1      	str	r1, [r6, #12]
  404658:	4628      	mov	r0, r5
  40465a:	608e      	str	r6, [r1, #8]
  40465c:	605a      	str	r2, [r3, #4]
  40465e:	f000 faef 	bl	404c40 <__malloc_unlock>
  404662:	3408      	adds	r4, #8
  404664:	4620      	mov	r0, r4
  404666:	b003      	add	sp, #12
  404668:	e8bd 8ff0 	ldmia.w	sp!, {r4, r5, r6, r7, r8, r9, sl, fp, pc}
  40466c:	4423      	add	r3, r4
  40466e:	4628      	mov	r0, r5
  404670:	685a      	ldr	r2, [r3, #4]
  404672:	f042 0201 	orr.w	r2, r2, #1
  404676:	605a      	str	r2, [r3, #4]
  404678:	f000 fae2 	bl	404c40 <__malloc_unlock>
  40467c:	3408      	adds	r4, #8
  40467e:	4620      	mov	r0, r4
  404680:	b003      	add	sp, #12
  404682:	e8bd 8ff0 	ldmia.w	sp!, {r4, r5, r6, r7, r8, r9, sl, fp, pc}
  404686:	68bc      	ldr	r4, [r7, #8]
  404688:	6863      	ldr	r3, [r4, #4]
  40468a:	f023 0803 	bic.w	r8, r3, #3
  40468e:	45b0      	cmp	r8, r6
  404690:	d304      	bcc.n	40469c <_malloc_r+0x200>
  404692:	eba8 0306 	sub.w	r3, r8, r6
  404696:	2b0f      	cmp	r3, #15
  404698:	f300 8085 	bgt.w	4047a6 <_malloc_r+0x30a>
  40469c:	f8df 9158 	ldr.w	r9, [pc, #344]	; 4047f8 <_malloc_r+0x35c>
  4046a0:	4b50      	ldr	r3, [pc, #320]	; (4047e4 <_malloc_r+0x348>)
  4046a2:	f8d9 2000 	ldr.w	r2, [r9]
  4046a6:	681b      	ldr	r3, [r3, #0]
  4046a8:	3201      	adds	r2, #1
  4046aa:	4433      	add	r3, r6
  4046ac:	eb04 0a08 	add.w	sl, r4, r8
  4046b0:	f000 8155 	beq.w	40495e <_malloc_r+0x4c2>
  4046b4:	f503 5380 	add.w	r3, r3, #4096	; 0x1000
  4046b8:	330f      	adds	r3, #15
  4046ba:	f423 6b7f 	bic.w	fp, r3, #4080	; 0xff0
  4046be:	f02b 0b0f 	bic.w	fp, fp, #15
  4046c2:	4659      	mov	r1, fp
  4046c4:	4628      	mov	r0, r5
  4046c6:	f000 fdbb 	bl	405240 <_sbrk_r>
  4046ca:	1c41      	adds	r1, r0, #1
  4046cc:	4602      	mov	r2, r0
  4046ce:	f000 80fc 	beq.w	4048ca <_malloc_r+0x42e>
  4046d2:	4582      	cmp	sl, r0
  4046d4:	f200 80f7 	bhi.w	4048c6 <_malloc_r+0x42a>
  4046d8:	4b43      	ldr	r3, [pc, #268]	; (4047e8 <_malloc_r+0x34c>)
  4046da:	6819      	ldr	r1, [r3, #0]
  4046dc:	4459      	add	r1, fp
  4046de:	6019      	str	r1, [r3, #0]
  4046e0:	f000 814d 	beq.w	40497e <_malloc_r+0x4e2>
  4046e4:	f8d9 0000 	ldr.w	r0, [r9]
  4046e8:	3001      	adds	r0, #1
  4046ea:	bf1b      	ittet	ne
  4046ec:	eba2 0a0a 	subne.w	sl, r2, sl
  4046f0:	4451      	addne	r1, sl
  4046f2:	f8c9 2000 	streq.w	r2, [r9]
  4046f6:	6019      	strne	r1, [r3, #0]
  4046f8:	f012 0107 	ands.w	r1, r2, #7
  4046fc:	f000 8115 	beq.w	40492a <_malloc_r+0x48e>
  404700:	f1c1 0008 	rsb	r0, r1, #8
  404704:	f5c1 5180 	rsb	r1, r1, #4096	; 0x1000
  404708:	4402      	add	r2, r0
  40470a:	3108      	adds	r1, #8
  40470c:	eb02 090b 	add.w	r9, r2, fp
  404710:	f3c9 090b 	ubfx	r9, r9, #0, #12
  404714:	eba1 0909 	sub.w	r9, r1, r9
  404718:	4649      	mov	r1, r9
  40471a:	4628      	mov	r0, r5
  40471c:	9301      	str	r3, [sp, #4]
  40471e:	9200      	str	r2, [sp, #0]
  404720:	f000 fd8e 	bl	405240 <_sbrk_r>
  404724:	1c43      	adds	r3, r0, #1
  404726:	e89d 000c 	ldmia.w	sp, {r2, r3}
  40472a:	f000 8143 	beq.w	4049b4 <_malloc_r+0x518>
  40472e:	1a80      	subs	r0, r0, r2
  404730:	4448      	add	r0, r9
  404732:	f040 0001 	orr.w	r0, r0, #1
  404736:	6819      	ldr	r1, [r3, #0]
  404738:	60ba      	str	r2, [r7, #8]
  40473a:	4449      	add	r1, r9
  40473c:	42bc      	cmp	r4, r7
  40473e:	6050      	str	r0, [r2, #4]
  404740:	6019      	str	r1, [r3, #0]
  404742:	d017      	beq.n	404774 <_malloc_r+0x2d8>
  404744:	f1b8 0f0f 	cmp.w	r8, #15
  404748:	f240 80fb 	bls.w	404942 <_malloc_r+0x4a6>
  40474c:	6860      	ldr	r0, [r4, #4]
  40474e:	f1a8 020c 	sub.w	r2, r8, #12
  404752:	f022 0207 	bic.w	r2, r2, #7
  404756:	eb04 0e02 	add.w	lr, r4, r2
  40475a:	f000 0001 	and.w	r0, r0, #1
  40475e:	f04f 0c05 	mov.w	ip, #5
  404762:	4310      	orrs	r0, r2
  404764:	2a0f      	cmp	r2, #15
  404766:	6060      	str	r0, [r4, #4]
  404768:	f8ce c004 	str.w	ip, [lr, #4]
  40476c:	f8ce c008 	str.w	ip, [lr, #8]
  404770:	f200 8117 	bhi.w	4049a2 <_malloc_r+0x506>
  404774:	4b1d      	ldr	r3, [pc, #116]	; (4047ec <_malloc_r+0x350>)
  404776:	68bc      	ldr	r4, [r7, #8]
  404778:	681a      	ldr	r2, [r3, #0]
  40477a:	4291      	cmp	r1, r2
  40477c:	bf88      	it	hi
  40477e:	6019      	strhi	r1, [r3, #0]
  404780:	4b1b      	ldr	r3, [pc, #108]	; (4047f0 <_malloc_r+0x354>)
  404782:	681a      	ldr	r2, [r3, #0]
  404784:	4291      	cmp	r1, r2
  404786:	6862      	ldr	r2, [r4, #4]
  404788:	bf88      	it	hi
  40478a:	6019      	strhi	r1, [r3, #0]
  40478c:	f022 0203 	bic.w	r2, r2, #3
  404790:	4296      	cmp	r6, r2
  404792:	eba2 0306 	sub.w	r3, r2, r6
  404796:	d801      	bhi.n	40479c <_malloc_r+0x300>
  404798:	2b0f      	cmp	r3, #15
  40479a:	dc04      	bgt.n	4047a6 <_malloc_r+0x30a>
  40479c:	4628      	mov	r0, r5
  40479e:	f000 fa4f 	bl	404c40 <__malloc_unlock>
  4047a2:	2400      	movs	r4, #0
  4047a4:	e740      	b.n	404628 <_malloc_r+0x18c>
  4047a6:	19a2      	adds	r2, r4, r6
  4047a8:	f043 0301 	orr.w	r3, r3, #1
  4047ac:	f046 0601 	orr.w	r6, r6, #1
  4047b0:	6066      	str	r6, [r4, #4]
  4047b2:	4628      	mov	r0, r5
  4047b4:	60ba      	str	r2, [r7, #8]
  4047b6:	6053      	str	r3, [r2, #4]
  4047b8:	f000 fa42 	bl	404c40 <__malloc_unlock>
  4047bc:	3408      	adds	r4, #8
  4047be:	4620      	mov	r0, r4
  4047c0:	b003      	add	sp, #12
  4047c2:	e8bd 8ff0 	ldmia.w	sp!, {r4, r5, r6, r7, r8, r9, sl, fp, pc}
  4047c6:	2b14      	cmp	r3, #20
  4047c8:	d971      	bls.n	4048ae <_malloc_r+0x412>
  4047ca:	2b54      	cmp	r3, #84	; 0x54
  4047cc:	f200 80a3 	bhi.w	404916 <_malloc_r+0x47a>
  4047d0:	0b33      	lsrs	r3, r6, #12
  4047d2:	f103 006f 	add.w	r0, r3, #111	; 0x6f
  4047d6:	f103 0e6e 	add.w	lr, r3, #110	; 0x6e
  4047da:	00c3      	lsls	r3, r0, #3
  4047dc:	e680      	b.n	4044e0 <_malloc_r+0x44>
  4047de:	bf00      	nop
  4047e0:	20000444 	.word	0x20000444
  4047e4:	20000a9c 	.word	0x20000a9c
  4047e8:	20000a6c 	.word	0x20000a6c
  4047ec:	20000a94 	.word	0x20000a94
  4047f0:	20000a98 	.word	0x20000a98
  4047f4:	2000044c 	.word	0x2000044c
  4047f8:	2000084c 	.word	0x2000084c
  4047fc:	0a5a      	lsrs	r2, r3, #9
  4047fe:	2a04      	cmp	r2, #4
  404800:	d95b      	bls.n	4048ba <_malloc_r+0x41e>
  404802:	2a14      	cmp	r2, #20
  404804:	f200 80ae 	bhi.w	404964 <_malloc_r+0x4c8>
  404808:	f102 015c 	add.w	r1, r2, #92	; 0x5c
  40480c:	00c9      	lsls	r1, r1, #3
  40480e:	325b      	adds	r2, #91	; 0x5b
  404810:	eb07 0c01 	add.w	ip, r7, r1
  404814:	5879      	ldr	r1, [r7, r1]
  404816:	f1ac 0c08 	sub.w	ip, ip, #8
  40481a:	458c      	cmp	ip, r1
  40481c:	f000 8088 	beq.w	404930 <_malloc_r+0x494>
  404820:	684a      	ldr	r2, [r1, #4]
  404822:	f022 0203 	bic.w	r2, r2, #3
  404826:	4293      	cmp	r3, r2
  404828:	d273      	bcs.n	404912 <_malloc_r+0x476>
  40482a:	6889      	ldr	r1, [r1, #8]
  40482c:	458c      	cmp	ip, r1
  40482e:	d1f7      	bne.n	404820 <_malloc_r+0x384>
  404830:	f8dc 200c 	ldr.w	r2, [ip, #12]
  404834:	687b      	ldr	r3, [r7, #4]
  404836:	60e2      	str	r2, [r4, #12]
  404838:	f8c4 c008 	str.w	ip, [r4, #8]
  40483c:	6094      	str	r4, [r2, #8]
  40483e:	f8cc 400c 	str.w	r4, [ip, #12]
  404842:	e68f      	b.n	404564 <_malloc_r+0xc8>
  404844:	19a1      	adds	r1, r4, r6
  404846:	f046 0c01 	orr.w	ip, r6, #1
  40484a:	f042 0601 	orr.w	r6, r2, #1
  40484e:	f8c4 c004 	str.w	ip, [r4, #4]
  404852:	4628      	mov	r0, r5
  404854:	6179      	str	r1, [r7, #20]
  404856:	6139      	str	r1, [r7, #16]
  404858:	f8c1 e00c 	str.w	lr, [r1, #12]
  40485c:	f8c1 e008 	str.w	lr, [r1, #8]
  404860:	604e      	str	r6, [r1, #4]
  404862:	50e2      	str	r2, [r4, r3]
  404864:	f000 f9ec 	bl	404c40 <__malloc_unlock>
  404868:	3408      	adds	r4, #8
  40486a:	e6dd      	b.n	404628 <_malloc_r+0x18c>
  40486c:	687b      	ldr	r3, [r7, #4]
  40486e:	e679      	b.n	404564 <_malloc_r+0xc8>
  404870:	f108 0801 	add.w	r8, r8, #1
  404874:	f018 0f03 	tst.w	r8, #3
  404878:	f10c 0c08 	add.w	ip, ip, #8
  40487c:	f47f ae85 	bne.w	40458a <_malloc_r+0xee>
  404880:	e02d      	b.n	4048de <_malloc_r+0x442>
  404882:	68dc      	ldr	r4, [r3, #12]
  404884:	42a3      	cmp	r3, r4
  404886:	bf08      	it	eq
  404888:	3002      	addeq	r0, #2
  40488a:	f43f ae3e 	beq.w	40450a <_malloc_r+0x6e>
  40488e:	e6bb      	b.n	404608 <_malloc_r+0x16c>
  404890:	4419      	add	r1, r3
  404892:	461c      	mov	r4, r3
  404894:	684a      	ldr	r2, [r1, #4]
  404896:	68db      	ldr	r3, [r3, #12]
  404898:	f854 6f08 	ldr.w	r6, [r4, #8]!
  40489c:	f042 0201 	orr.w	r2, r2, #1
  4048a0:	604a      	str	r2, [r1, #4]
  4048a2:	4628      	mov	r0, r5
  4048a4:	60f3      	str	r3, [r6, #12]
  4048a6:	609e      	str	r6, [r3, #8]
  4048a8:	f000 f9ca 	bl	404c40 <__malloc_unlock>
  4048ac:	e6bc      	b.n	404628 <_malloc_r+0x18c>
  4048ae:	f103 005c 	add.w	r0, r3, #92	; 0x5c
  4048b2:	f103 0e5b 	add.w	lr, r3, #91	; 0x5b
  4048b6:	00c3      	lsls	r3, r0, #3
  4048b8:	e612      	b.n	4044e0 <_malloc_r+0x44>
  4048ba:	099a      	lsrs	r2, r3, #6
  4048bc:	f102 0139 	add.w	r1, r2, #57	; 0x39
  4048c0:	00c9      	lsls	r1, r1, #3
  4048c2:	3238      	adds	r2, #56	; 0x38
  4048c4:	e7a4      	b.n	404810 <_malloc_r+0x374>
  4048c6:	42bc      	cmp	r4, r7
  4048c8:	d054      	beq.n	404974 <_malloc_r+0x4d8>
  4048ca:	68bc      	ldr	r4, [r7, #8]
  4048cc:	6862      	ldr	r2, [r4, #4]
  4048ce:	f022 0203 	bic.w	r2, r2, #3
  4048d2:	e75d      	b.n	404790 <_malloc_r+0x2f4>
  4048d4:	f859 3908 	ldr.w	r3, [r9], #-8
  4048d8:	4599      	cmp	r9, r3
  4048da:	f040 8086 	bne.w	4049ea <_malloc_r+0x54e>
  4048de:	f010 0f03 	tst.w	r0, #3
  4048e2:	f100 30ff 	add.w	r0, r0, #4294967295
  4048e6:	d1f5      	bne.n	4048d4 <_malloc_r+0x438>
  4048e8:	687b      	ldr	r3, [r7, #4]
  4048ea:	ea23 0304 	bic.w	r3, r3, r4
  4048ee:	607b      	str	r3, [r7, #4]
  4048f0:	0064      	lsls	r4, r4, #1
  4048f2:	429c      	cmp	r4, r3
  4048f4:	f63f aec7 	bhi.w	404686 <_malloc_r+0x1ea>
  4048f8:	2c00      	cmp	r4, #0
  4048fa:	f43f aec4 	beq.w	404686 <_malloc_r+0x1ea>
  4048fe:	421c      	tst	r4, r3
  404900:	4640      	mov	r0, r8
  404902:	f47f ae3e 	bne.w	404582 <_malloc_r+0xe6>
  404906:	0064      	lsls	r4, r4, #1
  404908:	421c      	tst	r4, r3
  40490a:	f100 0004 	add.w	r0, r0, #4
  40490e:	d0fa      	beq.n	404906 <_malloc_r+0x46a>
  404910:	e637      	b.n	404582 <_malloc_r+0xe6>
  404912:	468c      	mov	ip, r1
  404914:	e78c      	b.n	404830 <_malloc_r+0x394>
  404916:	f5b3 7faa 	cmp.w	r3, #340	; 0x154
  40491a:	d815      	bhi.n	404948 <_malloc_r+0x4ac>
  40491c:	0bf3      	lsrs	r3, r6, #15
  40491e:	f103 0078 	add.w	r0, r3, #120	; 0x78
  404922:	f103 0e77 	add.w	lr, r3, #119	; 0x77
  404926:	00c3      	lsls	r3, r0, #3
  404928:	e5da      	b.n	4044e0 <_malloc_r+0x44>
  40492a:	f44f 5180 	mov.w	r1, #4096	; 0x1000
  40492e:	e6ed      	b.n	40470c <_malloc_r+0x270>
  404930:	687b      	ldr	r3, [r7, #4]
  404932:	1092      	asrs	r2, r2, #2
  404934:	2101      	movs	r1, #1
  404936:	fa01 f202 	lsl.w	r2, r1, r2
  40493a:	4313      	orrs	r3, r2
  40493c:	607b      	str	r3, [r7, #4]
  40493e:	4662      	mov	r2, ip
  404940:	e779      	b.n	404836 <_malloc_r+0x39a>
  404942:	2301      	movs	r3, #1
  404944:	6053      	str	r3, [r2, #4]
  404946:	e729      	b.n	40479c <_malloc_r+0x300>
  404948:	f240 5254 	movw	r2, #1364	; 0x554
  40494c:	4293      	cmp	r3, r2
  40494e:	d822      	bhi.n	404996 <_malloc_r+0x4fa>
  404950:	0cb3      	lsrs	r3, r6, #18
  404952:	f103 007d 	add.w	r0, r3, #125	; 0x7d
  404956:	f103 0e7c 	add.w	lr, r3, #124	; 0x7c
  40495a:	00c3      	lsls	r3, r0, #3
  40495c:	e5c0      	b.n	4044e0 <_malloc_r+0x44>
  40495e:	f103 0b10 	add.w	fp, r3, #16
  404962:	e6ae      	b.n	4046c2 <_malloc_r+0x226>
  404964:	2a54      	cmp	r2, #84	; 0x54
  404966:	d829      	bhi.n	4049bc <_malloc_r+0x520>
  404968:	0b1a      	lsrs	r2, r3, #12
  40496a:	f102 016f 	add.w	r1, r2, #111	; 0x6f
  40496e:	00c9      	lsls	r1, r1, #3
  404970:	326e      	adds	r2, #110	; 0x6e
  404972:	e74d      	b.n	404810 <_malloc_r+0x374>
  404974:	4b20      	ldr	r3, [pc, #128]	; (4049f8 <_malloc_r+0x55c>)
  404976:	6819      	ldr	r1, [r3, #0]
  404978:	4459      	add	r1, fp
  40497a:	6019      	str	r1, [r3, #0]
  40497c:	e6b2      	b.n	4046e4 <_malloc_r+0x248>
  40497e:	f3ca 000b 	ubfx	r0, sl, #0, #12
  404982:	2800      	cmp	r0, #0
  404984:	f47f aeae 	bne.w	4046e4 <_malloc_r+0x248>
  404988:	eb08 030b 	add.w	r3, r8, fp
  40498c:	68ba      	ldr	r2, [r7, #8]
  40498e:	f043 0301 	orr.w	r3, r3, #1
  404992:	6053      	str	r3, [r2, #4]
  404994:	e6ee      	b.n	404774 <_malloc_r+0x2d8>
  404996:	207f      	movs	r0, #127	; 0x7f
  404998:	f44f 737e 	mov.w	r3, #1016	; 0x3f8
  40499c:	f04f 0e7e 	mov.w	lr, #126	; 0x7e
  4049a0:	e59e      	b.n	4044e0 <_malloc_r+0x44>
  4049a2:	f104 0108 	add.w	r1, r4, #8
  4049a6:	4628      	mov	r0, r5
  4049a8:	9300      	str	r3, [sp, #0]
  4049aa:	f000 feb7 	bl	40571c <_free_r>
  4049ae:	9b00      	ldr	r3, [sp, #0]
  4049b0:	6819      	ldr	r1, [r3, #0]
  4049b2:	e6df      	b.n	404774 <_malloc_r+0x2d8>
  4049b4:	2001      	movs	r0, #1
  4049b6:	f04f 0900 	mov.w	r9, #0
  4049ba:	e6bc      	b.n	404736 <_malloc_r+0x29a>
  4049bc:	f5b2 7faa 	cmp.w	r2, #340	; 0x154
  4049c0:	d805      	bhi.n	4049ce <_malloc_r+0x532>
  4049c2:	0bda      	lsrs	r2, r3, #15
  4049c4:	f102 0178 	add.w	r1, r2, #120	; 0x78
  4049c8:	00c9      	lsls	r1, r1, #3
  4049ca:	3277      	adds	r2, #119	; 0x77
  4049cc:	e720      	b.n	404810 <_malloc_r+0x374>
  4049ce:	f240 5154 	movw	r1, #1364	; 0x554
  4049d2:	428a      	cmp	r2, r1
  4049d4:	d805      	bhi.n	4049e2 <_malloc_r+0x546>
  4049d6:	0c9a      	lsrs	r2, r3, #18
  4049d8:	f102 017d 	add.w	r1, r2, #125	; 0x7d
  4049dc:	00c9      	lsls	r1, r1, #3
  4049de:	327c      	adds	r2, #124	; 0x7c
  4049e0:	e716      	b.n	404810 <_malloc_r+0x374>
  4049e2:	f44f 717e 	mov.w	r1, #1016	; 0x3f8
  4049e6:	227e      	movs	r2, #126	; 0x7e
  4049e8:	e712      	b.n	404810 <_malloc_r+0x374>
  4049ea:	687b      	ldr	r3, [r7, #4]
  4049ec:	e780      	b.n	4048f0 <_malloc_r+0x454>
  4049ee:	08f0      	lsrs	r0, r6, #3
  4049f0:	f106 0308 	add.w	r3, r6, #8
  4049f4:	e600      	b.n	4045f8 <_malloc_r+0x15c>
  4049f6:	bf00      	nop
  4049f8:	20000a6c 	.word	0x20000a6c
  4049fc:	00000000 	.word	0x00000000

00404a00 <memchr>:
  404a00:	f001 01ff 	and.w	r1, r1, #255	; 0xff
  404a04:	2a10      	cmp	r2, #16
  404a06:	db2b      	blt.n	404a60 <memchr+0x60>
  404a08:	f010 0f07 	tst.w	r0, #7
  404a0c:	d008      	beq.n	404a20 <memchr+0x20>
  404a0e:	f810 3b01 	ldrb.w	r3, [r0], #1
  404a12:	3a01      	subs	r2, #1
  404a14:	428b      	cmp	r3, r1
  404a16:	d02d      	beq.n	404a74 <memchr+0x74>
  404a18:	f010 0f07 	tst.w	r0, #7
  404a1c:	b342      	cbz	r2, 404a70 <memchr+0x70>
  404a1e:	d1f6      	bne.n	404a0e <memchr+0xe>
  404a20:	b4f0      	push	{r4, r5, r6, r7}
  404a22:	ea41 2101 	orr.w	r1, r1, r1, lsl #8
  404a26:	ea41 4101 	orr.w	r1, r1, r1, lsl #16
  404a2a:	f022 0407 	bic.w	r4, r2, #7
  404a2e:	f07f 0700 	mvns.w	r7, #0
  404a32:	2300      	movs	r3, #0
  404a34:	e8f0 5602 	ldrd	r5, r6, [r0], #8
  404a38:	3c08      	subs	r4, #8
  404a3a:	ea85 0501 	eor.w	r5, r5, r1
  404a3e:	ea86 0601 	eor.w	r6, r6, r1
  404a42:	fa85 f547 	uadd8	r5, r5, r7
  404a46:	faa3 f587 	sel	r5, r3, r7
  404a4a:	fa86 f647 	uadd8	r6, r6, r7
  404a4e:	faa5 f687 	sel	r6, r5, r7
  404a52:	b98e      	cbnz	r6, 404a78 <memchr+0x78>
  404a54:	d1ee      	bne.n	404a34 <memchr+0x34>
  404a56:	bcf0      	pop	{r4, r5, r6, r7}
  404a58:	f001 01ff 	and.w	r1, r1, #255	; 0xff
  404a5c:	f002 0207 	and.w	r2, r2, #7
  404a60:	b132      	cbz	r2, 404a70 <memchr+0x70>
  404a62:	f810 3b01 	ldrb.w	r3, [r0], #1
  404a66:	3a01      	subs	r2, #1
  404a68:	ea83 0301 	eor.w	r3, r3, r1
  404a6c:	b113      	cbz	r3, 404a74 <memchr+0x74>
  404a6e:	d1f8      	bne.n	404a62 <memchr+0x62>
  404a70:	2000      	movs	r0, #0
  404a72:	4770      	bx	lr
  404a74:	3801      	subs	r0, #1
  404a76:	4770      	bx	lr
  404a78:	2d00      	cmp	r5, #0
  404a7a:	bf06      	itte	eq
  404a7c:	4635      	moveq	r5, r6
  404a7e:	3803      	subeq	r0, #3
  404a80:	3807      	subne	r0, #7
  404a82:	f015 0f01 	tst.w	r5, #1
  404a86:	d107      	bne.n	404a98 <memchr+0x98>
  404a88:	3001      	adds	r0, #1
  404a8a:	f415 7f80 	tst.w	r5, #256	; 0x100
  404a8e:	bf02      	ittt	eq
  404a90:	3001      	addeq	r0, #1
  404a92:	f415 3fc0 	tsteq.w	r5, #98304	; 0x18000
  404a96:	3001      	addeq	r0, #1
  404a98:	bcf0      	pop	{r4, r5, r6, r7}
  404a9a:	3801      	subs	r0, #1
  404a9c:	4770      	bx	lr
  404a9e:	bf00      	nop

00404aa0 <memcmp>:
  404aa0:	2a03      	cmp	r2, #3
  404aa2:	b470      	push	{r4, r5, r6}
  404aa4:	d922      	bls.n	404aec <memcmp+0x4c>
  404aa6:	ea40 0301 	orr.w	r3, r0, r1
  404aaa:	079b      	lsls	r3, r3, #30
  404aac:	d011      	beq.n	404ad2 <memcmp+0x32>
  404aae:	7803      	ldrb	r3, [r0, #0]
  404ab0:	780c      	ldrb	r4, [r1, #0]
  404ab2:	42a3      	cmp	r3, r4
  404ab4:	d11d      	bne.n	404af2 <memcmp+0x52>
  404ab6:	440a      	add	r2, r1
  404ab8:	3101      	adds	r1, #1
  404aba:	e005      	b.n	404ac8 <memcmp+0x28>
  404abc:	f810 3f01 	ldrb.w	r3, [r0, #1]!
  404ac0:	f811 4b01 	ldrb.w	r4, [r1], #1
  404ac4:	42a3      	cmp	r3, r4
  404ac6:	d114      	bne.n	404af2 <memcmp+0x52>
  404ac8:	4291      	cmp	r1, r2
  404aca:	d1f7      	bne.n	404abc <memcmp+0x1c>
  404acc:	2000      	movs	r0, #0
  404ace:	bc70      	pop	{r4, r5, r6}
  404ad0:	4770      	bx	lr
  404ad2:	680d      	ldr	r5, [r1, #0]
  404ad4:	6806      	ldr	r6, [r0, #0]
  404ad6:	42ae      	cmp	r6, r5
  404ad8:	460c      	mov	r4, r1
  404ada:	4603      	mov	r3, r0
  404adc:	f101 0104 	add.w	r1, r1, #4
  404ae0:	f100 0004 	add.w	r0, r0, #4
  404ae4:	d108      	bne.n	404af8 <memcmp+0x58>
  404ae6:	3a04      	subs	r2, #4
  404ae8:	2a03      	cmp	r2, #3
  404aea:	d8f2      	bhi.n	404ad2 <memcmp+0x32>
  404aec:	2a00      	cmp	r2, #0
  404aee:	d1de      	bne.n	404aae <memcmp+0xe>
  404af0:	e7ec      	b.n	404acc <memcmp+0x2c>
  404af2:	1b18      	subs	r0, r3, r4
  404af4:	bc70      	pop	{r4, r5, r6}
  404af6:	4770      	bx	lr
  404af8:	4621      	mov	r1, r4
  404afa:	4618      	mov	r0, r3
  404afc:	e7d7      	b.n	404aae <memcmp+0xe>
  404afe:	bf00      	nop

00404b00 <memcpy>:
  404b00:	4684      	mov	ip, r0
  404b02:	ea41 0300 	orr.w	r3, r1, r0
  404b06:	f013 0303 	ands.w	r3, r3, #3
  404b0a:	d16d      	bne.n	404be8 <memcpy+0xe8>
  404b0c:	3a40      	subs	r2, #64	; 0x40
  404b0e:	d341      	bcc.n	404b94 <memcpy+0x94>
  404b10:	f851 3b04 	ldr.w	r3, [r1], #4
  404b14:	f840 3b04 	str.w	r3, [r0], #4
  404b18:	f851 3b04 	ldr.w	r3, [r1], #4
  404b1c:	f840 3b04 	str.w	r3, [r0], #4
  404b20:	f851 3b04 	ldr.w	r3, [r1], #4
  404b24:	f840 3b04 	str.w	r3, [r0], #4
  404b28:	f851 3b04 	ldr.w	r3, [r1], #4
  404b2c:	f840 3b04 	str.w	r3, [r0], #4
  404b30:	f851 3b04 	ldr.w	r3, [r1], #4
  404b34:	f840 3b04 	str.w	r3, [r0], #4
  404b38:	f851 3b04 	ldr.w	r3, [r1], #4
  404b3c:	f840 3b04 	str.w	r3, [r0], #4
  404b40:	f851 3b04 	ldr.w	r3, [r1], #4
  404b44:	f840 3b04 	str.w	r3, [r0], #4
  404b48:	f851 3b04 	ldr.w	r3, [r1], #4
  404b4c:	f840 3b04 	str.w	r3, [r0], #4
  404b50:	f851 3b04 	ldr.w	r3, [r1], #4
  404b54:	f840 3b04 	str.w	r3, [r0], #4
  404b58:	f851 3b04 	ldr.w	r3, [r1], #4
  404b5c:	f840 3b04 	str.w	r3, [r0], #4
  404b60:	f851 3b04 	ldr.w	r3, [r1], #4
  404b64:	f840 3b04 	str.w	r3, [r0], #4
  404b68:	f851 3b04 	ldr.w	r3, [r1], #4
  404b6c:	f840 3b04 	str.w	r3, [r0], #4
  404b70:	f851 3b04 	ldr.w	r3, [r1], #4
  404b74:	f840 3b04 	str.w	r3, [r0], #4
  404b78:	f851 3b04 	ldr.w	r3, [r1], #4
  404b7c:	f840 3b04 	str.w	r3, [r0], #4
  404b80:	f851 3b04 	ldr.w	r3, [r1], #4
  404b84:	f840 3b04 	str.w	r3, [r0], #4
  404b88:	f851 3b04 	ldr.w	r3, [r1], #4
  404b8c:	f840 3b04 	str.w	r3, [r0], #4
  404b90:	3a40      	subs	r2, #64	; 0x40
  404b92:	d2bd      	bcs.n	404b10 <memcpy+0x10>
  404b94:	3230      	adds	r2, #48	; 0x30
  404b96:	d311      	bcc.n	404bbc <memcpy+0xbc>
  404b98:	f851 3b04 	ldr.w	r3, [r1], #4
  404b9c:	f840 3b04 	str.w	r3, [r0], #4
  404ba0:	f851 3b04 	ldr.w	r3, [r1], #4
  404ba4:	f840 3b04 	str.w	r3, [r0], #4
  404ba8:	f851 3b04 	ldr.w	r3, [r1], #4
  404bac:	f840 3b04 	str.w	r3, [r0], #4
  404bb0:	f851 3b04 	ldr.w	r3, [r1], #4
  404bb4:	f840 3b04 	str.w	r3, [r0], #4
  404bb8:	3a10      	subs	r2, #16
  404bba:	d2ed      	bcs.n	404b98 <memcpy+0x98>
  404bbc:	320c      	adds	r2, #12
  404bbe:	d305      	bcc.n	404bcc <memcpy+0xcc>
  404bc0:	f851 3b04 	ldr.w	r3, [r1], #4
  404bc4:	f840 3b04 	str.w	r3, [r0], #4
  404bc8:	3a04      	subs	r2, #4
  404bca:	d2f9      	bcs.n	404bc0 <memcpy+0xc0>
  404bcc:	3204      	adds	r2, #4
  404bce:	d008      	beq.n	404be2 <memcpy+0xe2>
  404bd0:	07d2      	lsls	r2, r2, #31
  404bd2:	bf1c      	itt	ne
  404bd4:	f811 3b01 	ldrbne.w	r3, [r1], #1
  404bd8:	f800 3b01 	strbne.w	r3, [r0], #1
  404bdc:	d301      	bcc.n	404be2 <memcpy+0xe2>
  404bde:	880b      	ldrh	r3, [r1, #0]
  404be0:	8003      	strh	r3, [r0, #0]
  404be2:	4660      	mov	r0, ip
  404be4:	4770      	bx	lr
  404be6:	bf00      	nop
  404be8:	2a08      	cmp	r2, #8
  404bea:	d313      	bcc.n	404c14 <memcpy+0x114>
  404bec:	078b      	lsls	r3, r1, #30
  404bee:	d08d      	beq.n	404b0c <memcpy+0xc>
  404bf0:	f010 0303 	ands.w	r3, r0, #3
  404bf4:	d08a      	beq.n	404b0c <memcpy+0xc>
  404bf6:	f1c3 0304 	rsb	r3, r3, #4
  404bfa:	1ad2      	subs	r2, r2, r3
  404bfc:	07db      	lsls	r3, r3, #31
  404bfe:	bf1c      	itt	ne
  404c00:	f811 3b01 	ldrbne.w	r3, [r1], #1
  404c04:	f800 3b01 	strbne.w	r3, [r0], #1
  404c08:	d380      	bcc.n	404b0c <memcpy+0xc>
  404c0a:	f831 3b02 	ldrh.w	r3, [r1], #2
  404c0e:	f820 3b02 	strh.w	r3, [r0], #2
  404c12:	e77b      	b.n	404b0c <memcpy+0xc>
  404c14:	3a04      	subs	r2, #4
  404c16:	d3d9      	bcc.n	404bcc <memcpy+0xcc>
  404c18:	3a01      	subs	r2, #1
  404c1a:	f811 3b01 	ldrb.w	r3, [r1], #1
  404c1e:	f800 3b01 	strb.w	r3, [r0], #1
  404c22:	d2f9      	bcs.n	404c18 <memcpy+0x118>
  404c24:	780b      	ldrb	r3, [r1, #0]
  404c26:	7003      	strb	r3, [r0, #0]
  404c28:	784b      	ldrb	r3, [r1, #1]
  404c2a:	7043      	strb	r3, [r0, #1]
  404c2c:	788b      	ldrb	r3, [r1, #2]
  404c2e:	7083      	strb	r3, [r0, #2]
  404c30:	4660      	mov	r0, ip
  404c32:	4770      	bx	lr

00404c34 <__malloc_lock>:
  404c34:	4801      	ldr	r0, [pc, #4]	; (404c3c <__malloc_lock+0x8>)
  404c36:	f7ff bc2d 	b.w	404494 <__retarget_lock_acquire_recursive>
  404c3a:	bf00      	nop
  404c3c:	20019708 	.word	0x20019708

00404c40 <__malloc_unlock>:
  404c40:	4801      	ldr	r0, [pc, #4]	; (404c48 <__malloc_unlock+0x8>)
  404c42:	f7ff bc29 	b.w	404498 <__retarget_lock_release_recursive>
  404c46:	bf00      	nop
  404c48:	20019708 	.word	0x20019708

00404c4c <_Balloc>:
  404c4c:	6cc3      	ldr	r3, [r0, #76]	; 0x4c
  404c4e:	b570      	push	{r4, r5, r6, lr}
  404c50:	4605      	mov	r5, r0
  404c52:	460c      	mov	r4, r1
  404c54:	b14b      	cbz	r3, 404c6a <_Balloc+0x1e>
  404c56:	f853 0024 	ldr.w	r0, [r3, r4, lsl #2]
  404c5a:	b180      	cbz	r0, 404c7e <_Balloc+0x32>
  404c5c:	6802      	ldr	r2, [r0, #0]
  404c5e:	f843 2024 	str.w	r2, [r3, r4, lsl #2]
  404c62:	2300      	movs	r3, #0
  404c64:	6103      	str	r3, [r0, #16]
  404c66:	60c3      	str	r3, [r0, #12]
  404c68:	bd70      	pop	{r4, r5, r6, pc}
  404c6a:	2221      	movs	r2, #33	; 0x21
  404c6c:	2104      	movs	r1, #4
  404c6e:	f000 fcd5 	bl	40561c <_calloc_r>
  404c72:	64e8      	str	r0, [r5, #76]	; 0x4c
  404c74:	4603      	mov	r3, r0
  404c76:	2800      	cmp	r0, #0
  404c78:	d1ed      	bne.n	404c56 <_Balloc+0xa>
  404c7a:	2000      	movs	r0, #0
  404c7c:	bd70      	pop	{r4, r5, r6, pc}
  404c7e:	2101      	movs	r1, #1
  404c80:	fa01 f604 	lsl.w	r6, r1, r4
  404c84:	1d72      	adds	r2, r6, #5
  404c86:	4628      	mov	r0, r5
  404c88:	0092      	lsls	r2, r2, #2
  404c8a:	f000 fcc7 	bl	40561c <_calloc_r>
  404c8e:	2800      	cmp	r0, #0
  404c90:	d0f3      	beq.n	404c7a <_Balloc+0x2e>
  404c92:	6044      	str	r4, [r0, #4]
  404c94:	6086      	str	r6, [r0, #8]
  404c96:	e7e4      	b.n	404c62 <_Balloc+0x16>

00404c98 <_Bfree>:
  404c98:	b131      	cbz	r1, 404ca8 <_Bfree+0x10>
  404c9a:	6cc3      	ldr	r3, [r0, #76]	; 0x4c
  404c9c:	684a      	ldr	r2, [r1, #4]
  404c9e:	f853 0022 	ldr.w	r0, [r3, r2, lsl #2]
  404ca2:	6008      	str	r0, [r1, #0]
  404ca4:	f843 1022 	str.w	r1, [r3, r2, lsl #2]
  404ca8:	4770      	bx	lr
  404caa:	bf00      	nop

00404cac <__multadd>:
  404cac:	b5f0      	push	{r4, r5, r6, r7, lr}
  404cae:	690c      	ldr	r4, [r1, #16]
  404cb0:	b083      	sub	sp, #12
  404cb2:	460d      	mov	r5, r1
  404cb4:	4606      	mov	r6, r0
  404cb6:	f101 0e14 	add.w	lr, r1, #20
  404cba:	2700      	movs	r7, #0
  404cbc:	f8de 0000 	ldr.w	r0, [lr]
  404cc0:	b281      	uxth	r1, r0
  404cc2:	fb02 3301 	mla	r3, r2, r1, r3
  404cc6:	0c01      	lsrs	r1, r0, #16
  404cc8:	0c18      	lsrs	r0, r3, #16
  404cca:	fb02 0101 	mla	r1, r2, r1, r0
  404cce:	b29b      	uxth	r3, r3
  404cd0:	3701      	adds	r7, #1
  404cd2:	eb03 4301 	add.w	r3, r3, r1, lsl #16
  404cd6:	42bc      	cmp	r4, r7
  404cd8:	f84e 3b04 	str.w	r3, [lr], #4
  404cdc:	ea4f 4311 	mov.w	r3, r1, lsr #16
  404ce0:	dcec      	bgt.n	404cbc <__multadd+0x10>
  404ce2:	b13b      	cbz	r3, 404cf4 <__multadd+0x48>
  404ce4:	68aa      	ldr	r2, [r5, #8]
  404ce6:	4294      	cmp	r4, r2
  404ce8:	da07      	bge.n	404cfa <__multadd+0x4e>
  404cea:	eb05 0284 	add.w	r2, r5, r4, lsl #2
  404cee:	3401      	adds	r4, #1
  404cf0:	6153      	str	r3, [r2, #20]
  404cf2:	612c      	str	r4, [r5, #16]
  404cf4:	4628      	mov	r0, r5
  404cf6:	b003      	add	sp, #12
  404cf8:	bdf0      	pop	{r4, r5, r6, r7, pc}
  404cfa:	6869      	ldr	r1, [r5, #4]
  404cfc:	9301      	str	r3, [sp, #4]
  404cfe:	3101      	adds	r1, #1
  404d00:	4630      	mov	r0, r6
  404d02:	f7ff ffa3 	bl	404c4c <_Balloc>
  404d06:	692a      	ldr	r2, [r5, #16]
  404d08:	3202      	adds	r2, #2
  404d0a:	f105 010c 	add.w	r1, r5, #12
  404d0e:	4607      	mov	r7, r0
  404d10:	0092      	lsls	r2, r2, #2
  404d12:	300c      	adds	r0, #12
  404d14:	f7ff fef4 	bl	404b00 <memcpy>
  404d18:	6cf2      	ldr	r2, [r6, #76]	; 0x4c
  404d1a:	6869      	ldr	r1, [r5, #4]
  404d1c:	9b01      	ldr	r3, [sp, #4]
  404d1e:	f852 0021 	ldr.w	r0, [r2, r1, lsl #2]
  404d22:	6028      	str	r0, [r5, #0]
  404d24:	f842 5021 	str.w	r5, [r2, r1, lsl #2]
  404d28:	463d      	mov	r5, r7
  404d2a:	e7de      	b.n	404cea <__multadd+0x3e>

00404d2c <__hi0bits>:
  404d2c:	0c02      	lsrs	r2, r0, #16
  404d2e:	0412      	lsls	r2, r2, #16
  404d30:	4603      	mov	r3, r0
  404d32:	b9b2      	cbnz	r2, 404d62 <__hi0bits+0x36>
  404d34:	0403      	lsls	r3, r0, #16
  404d36:	2010      	movs	r0, #16
  404d38:	f013 4f7f 	tst.w	r3, #4278190080	; 0xff000000
  404d3c:	bf04      	itt	eq
  404d3e:	021b      	lsleq	r3, r3, #8
  404d40:	3008      	addeq	r0, #8
  404d42:	f013 4f70 	tst.w	r3, #4026531840	; 0xf0000000
  404d46:	bf04      	itt	eq
  404d48:	011b      	lsleq	r3, r3, #4
  404d4a:	3004      	addeq	r0, #4
  404d4c:	f013 4f40 	tst.w	r3, #3221225472	; 0xc0000000
  404d50:	bf04      	itt	eq
  404d52:	009b      	lsleq	r3, r3, #2
  404d54:	3002      	addeq	r0, #2
  404d56:	2b00      	cmp	r3, #0
  404d58:	db02      	blt.n	404d60 <__hi0bits+0x34>
  404d5a:	005b      	lsls	r3, r3, #1
  404d5c:	d403      	bmi.n	404d66 <__hi0bits+0x3a>
  404d5e:	2020      	movs	r0, #32
  404d60:	4770      	bx	lr
  404d62:	2000      	movs	r0, #0
  404d64:	e7e8      	b.n	404d38 <__hi0bits+0xc>
  404d66:	3001      	adds	r0, #1
  404d68:	4770      	bx	lr
  404d6a:	bf00      	nop

00404d6c <__lo0bits>:
  404d6c:	6803      	ldr	r3, [r0, #0]
  404d6e:	f013 0207 	ands.w	r2, r3, #7
  404d72:	4601      	mov	r1, r0
  404d74:	d007      	beq.n	404d86 <__lo0bits+0x1a>
  404d76:	07da      	lsls	r2, r3, #31
  404d78:	d421      	bmi.n	404dbe <__lo0bits+0x52>
  404d7a:	0798      	lsls	r0, r3, #30
  404d7c:	d421      	bmi.n	404dc2 <__lo0bits+0x56>
  404d7e:	089b      	lsrs	r3, r3, #2
  404d80:	600b      	str	r3, [r1, #0]
  404d82:	2002      	movs	r0, #2
  404d84:	4770      	bx	lr
  404d86:	b298      	uxth	r0, r3
  404d88:	b198      	cbz	r0, 404db2 <__lo0bits+0x46>
  404d8a:	4610      	mov	r0, r2
  404d8c:	f013 0fff 	tst.w	r3, #255	; 0xff
  404d90:	bf04      	itt	eq
  404d92:	0a1b      	lsreq	r3, r3, #8
  404d94:	3008      	addeq	r0, #8
  404d96:	071a      	lsls	r2, r3, #28
  404d98:	bf04      	itt	eq
  404d9a:	091b      	lsreq	r3, r3, #4
  404d9c:	3004      	addeq	r0, #4
  404d9e:	079a      	lsls	r2, r3, #30
  404da0:	bf04      	itt	eq
  404da2:	089b      	lsreq	r3, r3, #2
  404da4:	3002      	addeq	r0, #2
  404da6:	07da      	lsls	r2, r3, #31
  404da8:	d407      	bmi.n	404dba <__lo0bits+0x4e>
  404daa:	085b      	lsrs	r3, r3, #1
  404dac:	d104      	bne.n	404db8 <__lo0bits+0x4c>
  404dae:	2020      	movs	r0, #32
  404db0:	4770      	bx	lr
  404db2:	0c1b      	lsrs	r3, r3, #16
  404db4:	2010      	movs	r0, #16
  404db6:	e7e9      	b.n	404d8c <__lo0bits+0x20>
  404db8:	3001      	adds	r0, #1
  404dba:	600b      	str	r3, [r1, #0]
  404dbc:	4770      	bx	lr
  404dbe:	2000      	movs	r0, #0
  404dc0:	4770      	bx	lr
  404dc2:	085b      	lsrs	r3, r3, #1
  404dc4:	600b      	str	r3, [r1, #0]
  404dc6:	2001      	movs	r0, #1
  404dc8:	4770      	bx	lr
  404dca:	bf00      	nop

00404dcc <__i2b>:
  404dcc:	b510      	push	{r4, lr}
  404dce:	460c      	mov	r4, r1
  404dd0:	2101      	movs	r1, #1
  404dd2:	f7ff ff3b 	bl	404c4c <_Balloc>
  404dd6:	2201      	movs	r2, #1
  404dd8:	6144      	str	r4, [r0, #20]
  404dda:	6102      	str	r2, [r0, #16]
  404ddc:	bd10      	pop	{r4, pc}
  404dde:	bf00      	nop

00404de0 <__multiply>:
  404de0:	e92d 4ff0 	stmdb	sp!, {r4, r5, r6, r7, r8, r9, sl, fp, lr}
  404de4:	690c      	ldr	r4, [r1, #16]
  404de6:	6915      	ldr	r5, [r2, #16]
  404de8:	42ac      	cmp	r4, r5
  404dea:	b083      	sub	sp, #12
  404dec:	468b      	mov	fp, r1
  404dee:	4616      	mov	r6, r2
  404df0:	da04      	bge.n	404dfc <__multiply+0x1c>
  404df2:	4622      	mov	r2, r4
  404df4:	46b3      	mov	fp, r6
  404df6:	462c      	mov	r4, r5
  404df8:	460e      	mov	r6, r1
  404dfa:	4615      	mov	r5, r2
  404dfc:	f8db 3008 	ldr.w	r3, [fp, #8]
  404e00:	f8db 1004 	ldr.w	r1, [fp, #4]
  404e04:	eb04 0805 	add.w	r8, r4, r5
  404e08:	4598      	cmp	r8, r3
  404e0a:	bfc8      	it	gt
  404e0c:	3101      	addgt	r1, #1
  404e0e:	f7ff ff1d 	bl	404c4c <_Balloc>
  404e12:	f100 0914 	add.w	r9, r0, #20
  404e16:	eb09 0a88 	add.w	sl, r9, r8, lsl #2
  404e1a:	45d1      	cmp	r9, sl
  404e1c:	9000      	str	r0, [sp, #0]
  404e1e:	d205      	bcs.n	404e2c <__multiply+0x4c>
  404e20:	464b      	mov	r3, r9
  404e22:	2100      	movs	r1, #0
  404e24:	f843 1b04 	str.w	r1, [r3], #4
  404e28:	459a      	cmp	sl, r3
  404e2a:	d8fb      	bhi.n	404e24 <__multiply+0x44>
  404e2c:	f106 0c14 	add.w	ip, r6, #20
  404e30:	eb0c 0385 	add.w	r3, ip, r5, lsl #2
  404e34:	f10b 0b14 	add.w	fp, fp, #20
  404e38:	459c      	cmp	ip, r3
  404e3a:	eb0b 0e84 	add.w	lr, fp, r4, lsl #2
  404e3e:	d24c      	bcs.n	404eda <__multiply+0xfa>
  404e40:	f8cd a004 	str.w	sl, [sp, #4]
  404e44:	469a      	mov	sl, r3
  404e46:	f8dc 5000 	ldr.w	r5, [ip]
  404e4a:	b2af      	uxth	r7, r5
  404e4c:	b1ef      	cbz	r7, 404e8a <__multiply+0xaa>
  404e4e:	2100      	movs	r1, #0
  404e50:	464d      	mov	r5, r9
  404e52:	465e      	mov	r6, fp
  404e54:	460c      	mov	r4, r1
  404e56:	f856 2b04 	ldr.w	r2, [r6], #4
  404e5a:	6828      	ldr	r0, [r5, #0]
  404e5c:	b293      	uxth	r3, r2
  404e5e:	b281      	uxth	r1, r0
  404e60:	fb07 1303 	mla	r3, r7, r3, r1
  404e64:	0c12      	lsrs	r2, r2, #16
  404e66:	0c01      	lsrs	r1, r0, #16
  404e68:	4423      	add	r3, r4
  404e6a:	fb07 1102 	mla	r1, r7, r2, r1
  404e6e:	eb01 4113 	add.w	r1, r1, r3, lsr #16
  404e72:	b29b      	uxth	r3, r3
  404e74:	ea43 4301 	orr.w	r3, r3, r1, lsl #16
  404e78:	45b6      	cmp	lr, r6
  404e7a:	f845 3b04 	str.w	r3, [r5], #4
  404e7e:	ea4f 4411 	mov.w	r4, r1, lsr #16
  404e82:	d8e8      	bhi.n	404e56 <__multiply+0x76>
  404e84:	602c      	str	r4, [r5, #0]
  404e86:	f8dc 5000 	ldr.w	r5, [ip]
  404e8a:	0c2d      	lsrs	r5, r5, #16
  404e8c:	d01d      	beq.n	404eca <__multiply+0xea>
  404e8e:	f8d9 3000 	ldr.w	r3, [r9]
  404e92:	4648      	mov	r0, r9
  404e94:	461c      	mov	r4, r3
  404e96:	4659      	mov	r1, fp
  404e98:	2200      	movs	r2, #0
  404e9a:	880e      	ldrh	r6, [r1, #0]
  404e9c:	0c24      	lsrs	r4, r4, #16
  404e9e:	fb05 4406 	mla	r4, r5, r6, r4
  404ea2:	4422      	add	r2, r4
  404ea4:	b29b      	uxth	r3, r3
  404ea6:	ea43 4302 	orr.w	r3, r3, r2, lsl #16
  404eaa:	f840 3b04 	str.w	r3, [r0], #4
  404eae:	f851 3b04 	ldr.w	r3, [r1], #4
  404eb2:	6804      	ldr	r4, [r0, #0]
  404eb4:	0c1b      	lsrs	r3, r3, #16
  404eb6:	b2a6      	uxth	r6, r4
  404eb8:	fb05 6303 	mla	r3, r5, r3, r6
  404ebc:	eb03 4312 	add.w	r3, r3, r2, lsr #16
  404ec0:	458e      	cmp	lr, r1
  404ec2:	ea4f 4213 	mov.w	r2, r3, lsr #16
  404ec6:	d8e8      	bhi.n	404e9a <__multiply+0xba>
  404ec8:	6003      	str	r3, [r0, #0]
  404eca:	f10c 0c04 	add.w	ip, ip, #4
  404ece:	45e2      	cmp	sl, ip
  404ed0:	f109 0904 	add.w	r9, r9, #4
  404ed4:	d8b7      	bhi.n	404e46 <__multiply+0x66>
  404ed6:	f8dd a004 	ldr.w	sl, [sp, #4]
  404eda:	f1b8 0f00 	cmp.w	r8, #0
  404ede:	dd0b      	ble.n	404ef8 <__multiply+0x118>
  404ee0:	f85a 3c04 	ldr.w	r3, [sl, #-4]
  404ee4:	f1aa 0a04 	sub.w	sl, sl, #4
  404ee8:	b11b      	cbz	r3, 404ef2 <__multiply+0x112>
  404eea:	e005      	b.n	404ef8 <__multiply+0x118>
  404eec:	f85a 3d04 	ldr.w	r3, [sl, #-4]!
  404ef0:	b913      	cbnz	r3, 404ef8 <__multiply+0x118>
  404ef2:	f1b8 0801 	subs.w	r8, r8, #1
  404ef6:	d1f9      	bne.n	404eec <__multiply+0x10c>
  404ef8:	9800      	ldr	r0, [sp, #0]
  404efa:	f8c0 8010 	str.w	r8, [r0, #16]
  404efe:	b003      	add	sp, #12
  404f00:	e8bd 8ff0 	ldmia.w	sp!, {r4, r5, r6, r7, r8, r9, sl, fp, pc}

00404f04 <__pow5mult>:
  404f04:	f012 0303 	ands.w	r3, r2, #3
  404f08:	e92d 41f0 	stmdb	sp!, {r4, r5, r6, r7, r8, lr}
  404f0c:	4614      	mov	r4, r2
  404f0e:	4607      	mov	r7, r0
  404f10:	d12e      	bne.n	404f70 <__pow5mult+0x6c>
  404f12:	460d      	mov	r5, r1
  404f14:	10a4      	asrs	r4, r4, #2
  404f16:	d01c      	beq.n	404f52 <__pow5mult+0x4e>
  404f18:	6cbe      	ldr	r6, [r7, #72]	; 0x48
  404f1a:	b396      	cbz	r6, 404f82 <__pow5mult+0x7e>
  404f1c:	07e3      	lsls	r3, r4, #31
  404f1e:	f04f 0800 	mov.w	r8, #0
  404f22:	d406      	bmi.n	404f32 <__pow5mult+0x2e>
  404f24:	1064      	asrs	r4, r4, #1
  404f26:	d014      	beq.n	404f52 <__pow5mult+0x4e>
  404f28:	6830      	ldr	r0, [r6, #0]
  404f2a:	b1a8      	cbz	r0, 404f58 <__pow5mult+0x54>
  404f2c:	4606      	mov	r6, r0
  404f2e:	07e3      	lsls	r3, r4, #31
  404f30:	d5f8      	bpl.n	404f24 <__pow5mult+0x20>
  404f32:	4632      	mov	r2, r6
  404f34:	4629      	mov	r1, r5
  404f36:	4638      	mov	r0, r7
  404f38:	f7ff ff52 	bl	404de0 <__multiply>
  404f3c:	b1b5      	cbz	r5, 404f6c <__pow5mult+0x68>
  404f3e:	686a      	ldr	r2, [r5, #4]
  404f40:	6cfb      	ldr	r3, [r7, #76]	; 0x4c
  404f42:	1064      	asrs	r4, r4, #1
  404f44:	f853 1022 	ldr.w	r1, [r3, r2, lsl #2]
  404f48:	6029      	str	r1, [r5, #0]
  404f4a:	f843 5022 	str.w	r5, [r3, r2, lsl #2]
  404f4e:	4605      	mov	r5, r0
  404f50:	d1ea      	bne.n	404f28 <__pow5mult+0x24>
  404f52:	4628      	mov	r0, r5
  404f54:	e8bd 81f0 	ldmia.w	sp!, {r4, r5, r6, r7, r8, pc}
  404f58:	4632      	mov	r2, r6
  404f5a:	4631      	mov	r1, r6
  404f5c:	4638      	mov	r0, r7
  404f5e:	f7ff ff3f 	bl	404de0 <__multiply>
  404f62:	6030      	str	r0, [r6, #0]
  404f64:	f8c0 8000 	str.w	r8, [r0]
  404f68:	4606      	mov	r6, r0
  404f6a:	e7e0      	b.n	404f2e <__pow5mult+0x2a>
  404f6c:	4605      	mov	r5, r0
  404f6e:	e7d9      	b.n	404f24 <__pow5mult+0x20>
  404f70:	1e5a      	subs	r2, r3, #1
  404f72:	4d0b      	ldr	r5, [pc, #44]	; (404fa0 <__pow5mult+0x9c>)
  404f74:	2300      	movs	r3, #0
  404f76:	f855 2022 	ldr.w	r2, [r5, r2, lsl #2]
  404f7a:	f7ff fe97 	bl	404cac <__multadd>
  404f7e:	4605      	mov	r5, r0
  404f80:	e7c8      	b.n	404f14 <__pow5mult+0x10>
  404f82:	2101      	movs	r1, #1
  404f84:	4638      	mov	r0, r7
  404f86:	f7ff fe61 	bl	404c4c <_Balloc>
  404f8a:	f240 2171 	movw	r1, #625	; 0x271
  404f8e:	2201      	movs	r2, #1
  404f90:	2300      	movs	r3, #0
  404f92:	6141      	str	r1, [r0, #20]
  404f94:	6102      	str	r2, [r0, #16]
  404f96:	4606      	mov	r6, r0
  404f98:	64b8      	str	r0, [r7, #72]	; 0x48
  404f9a:	6003      	str	r3, [r0, #0]
  404f9c:	e7be      	b.n	404f1c <__pow5mult+0x18>
  404f9e:	bf00      	nop
  404fa0:	004077d0 	.word	0x004077d0

00404fa4 <__lshift>:
  404fa4:	e92d 43f8 	stmdb	sp!, {r3, r4, r5, r6, r7, r8, r9, lr}
  404fa8:	4691      	mov	r9, r2
  404faa:	690a      	ldr	r2, [r1, #16]
  404fac:	688b      	ldr	r3, [r1, #8]
  404fae:	ea4f 1469 	mov.w	r4, r9, asr #5
  404fb2:	eb04 0802 	add.w	r8, r4, r2
  404fb6:	f108 0501 	add.w	r5, r8, #1
  404fba:	429d      	cmp	r5, r3
  404fbc:	460e      	mov	r6, r1
  404fbe:	4607      	mov	r7, r0
  404fc0:	6849      	ldr	r1, [r1, #4]
  404fc2:	dd04      	ble.n	404fce <__lshift+0x2a>
  404fc4:	005b      	lsls	r3, r3, #1
  404fc6:	429d      	cmp	r5, r3
  404fc8:	f101 0101 	add.w	r1, r1, #1
  404fcc:	dcfa      	bgt.n	404fc4 <__lshift+0x20>
  404fce:	4638      	mov	r0, r7
  404fd0:	f7ff fe3c 	bl	404c4c <_Balloc>
  404fd4:	2c00      	cmp	r4, #0
  404fd6:	f100 0314 	add.w	r3, r0, #20
  404fda:	dd06      	ble.n	404fea <__lshift+0x46>
  404fdc:	eb03 0284 	add.w	r2, r3, r4, lsl #2
  404fe0:	2100      	movs	r1, #0
  404fe2:	f843 1b04 	str.w	r1, [r3], #4
  404fe6:	429a      	cmp	r2, r3
  404fe8:	d1fb      	bne.n	404fe2 <__lshift+0x3e>
  404fea:	6934      	ldr	r4, [r6, #16]
  404fec:	f106 0114 	add.w	r1, r6, #20
  404ff0:	f019 091f 	ands.w	r9, r9, #31
  404ff4:	eb01 0e84 	add.w	lr, r1, r4, lsl #2
  404ff8:	d01d      	beq.n	405036 <__lshift+0x92>
  404ffa:	f1c9 0c20 	rsb	ip, r9, #32
  404ffe:	2200      	movs	r2, #0
  405000:	680c      	ldr	r4, [r1, #0]
  405002:	fa04 f409 	lsl.w	r4, r4, r9
  405006:	4314      	orrs	r4, r2
  405008:	f843 4b04 	str.w	r4, [r3], #4
  40500c:	f851 2b04 	ldr.w	r2, [r1], #4
  405010:	458e      	cmp	lr, r1
  405012:	fa22 f20c 	lsr.w	r2, r2, ip
  405016:	d8f3      	bhi.n	405000 <__lshift+0x5c>
  405018:	601a      	str	r2, [r3, #0]
  40501a:	b10a      	cbz	r2, 405020 <__lshift+0x7c>
  40501c:	f108 0502 	add.w	r5, r8, #2
  405020:	6cfb      	ldr	r3, [r7, #76]	; 0x4c
  405022:	6872      	ldr	r2, [r6, #4]
  405024:	3d01      	subs	r5, #1
  405026:	f853 1022 	ldr.w	r1, [r3, r2, lsl #2]
  40502a:	6105      	str	r5, [r0, #16]
  40502c:	6031      	str	r1, [r6, #0]
  40502e:	f843 6022 	str.w	r6, [r3, r2, lsl #2]
  405032:	e8bd 83f8 	ldmia.w	sp!, {r3, r4, r5, r6, r7, r8, r9, pc}
  405036:	3b04      	subs	r3, #4
  405038:	f851 2b04 	ldr.w	r2, [r1], #4
  40503c:	f843 2f04 	str.w	r2, [r3, #4]!
  405040:	458e      	cmp	lr, r1
  405042:	d8f9      	bhi.n	405038 <__lshift+0x94>
  405044:	e7ec      	b.n	405020 <__lshift+0x7c>
  405046:	bf00      	nop

00405048 <__mcmp>:
  405048:	b430      	push	{r4, r5}
  40504a:	690b      	ldr	r3, [r1, #16]
  40504c:	4605      	mov	r5, r0
  40504e:	6900      	ldr	r0, [r0, #16]
  405050:	1ac0      	subs	r0, r0, r3
  405052:	d10f      	bne.n	405074 <__mcmp+0x2c>
  405054:	009b      	lsls	r3, r3, #2
  405056:	3514      	adds	r5, #20
  405058:	3114      	adds	r1, #20
  40505a:	4419      	add	r1, r3
  40505c:	442b      	add	r3, r5
  40505e:	e001      	b.n	405064 <__mcmp+0x1c>
  405060:	429d      	cmp	r5, r3
  405062:	d207      	bcs.n	405074 <__mcmp+0x2c>
  405064:	f853 4d04 	ldr.w	r4, [r3, #-4]!
  405068:	f851 2d04 	ldr.w	r2, [r1, #-4]!
  40506c:	4294      	cmp	r4, r2
  40506e:	d0f7      	beq.n	405060 <__mcmp+0x18>
  405070:	d302      	bcc.n	405078 <__mcmp+0x30>
  405072:	2001      	movs	r0, #1
  405074:	bc30      	pop	{r4, r5}
  405076:	4770      	bx	lr
  405078:	f04f 30ff 	mov.w	r0, #4294967295
  40507c:	e7fa      	b.n	405074 <__mcmp+0x2c>
  40507e:	bf00      	nop

00405080 <__mdiff>:
  405080:	e92d 41f0 	stmdb	sp!, {r4, r5, r6, r7, r8, lr}
  405084:	690f      	ldr	r7, [r1, #16]
  405086:	460e      	mov	r6, r1
  405088:	6911      	ldr	r1, [r2, #16]
  40508a:	1a7f      	subs	r7, r7, r1
  40508c:	2f00      	cmp	r7, #0
  40508e:	4690      	mov	r8, r2
  405090:	d117      	bne.n	4050c2 <__mdiff+0x42>
  405092:	0089      	lsls	r1, r1, #2
  405094:	f106 0514 	add.w	r5, r6, #20
  405098:	f102 0e14 	add.w	lr, r2, #20
  40509c:	186b      	adds	r3, r5, r1
  40509e:	4471      	add	r1, lr
  4050a0:	e001      	b.n	4050a6 <__mdiff+0x26>
  4050a2:	429d      	cmp	r5, r3
  4050a4:	d25c      	bcs.n	405160 <__mdiff+0xe0>
  4050a6:	f853 2d04 	ldr.w	r2, [r3, #-4]!
  4050aa:	f851 4d04 	ldr.w	r4, [r1, #-4]!
  4050ae:	42a2      	cmp	r2, r4
  4050b0:	d0f7      	beq.n	4050a2 <__mdiff+0x22>
  4050b2:	d25e      	bcs.n	405172 <__mdiff+0xf2>
  4050b4:	4633      	mov	r3, r6
  4050b6:	462c      	mov	r4, r5
  4050b8:	4646      	mov	r6, r8
  4050ba:	4675      	mov	r5, lr
  4050bc:	4698      	mov	r8, r3
  4050be:	2701      	movs	r7, #1
  4050c0:	e005      	b.n	4050ce <__mdiff+0x4e>
  4050c2:	db58      	blt.n	405176 <__mdiff+0xf6>
  4050c4:	f106 0514 	add.w	r5, r6, #20
  4050c8:	f108 0414 	add.w	r4, r8, #20
  4050cc:	2700      	movs	r7, #0
  4050ce:	6871      	ldr	r1, [r6, #4]
  4050d0:	f7ff fdbc 	bl	404c4c <_Balloc>
  4050d4:	f8d8 3010 	ldr.w	r3, [r8, #16]
  4050d8:	6936      	ldr	r6, [r6, #16]
  4050da:	60c7      	str	r7, [r0, #12]
  4050dc:	eb04 0c83 	add.w	ip, r4, r3, lsl #2
  4050e0:	46a6      	mov	lr, r4
  4050e2:	eb05 0786 	add.w	r7, r5, r6, lsl #2
  4050e6:	f100 0414 	add.w	r4, r0, #20
  4050ea:	2300      	movs	r3, #0
  4050ec:	f85e 1b04 	ldr.w	r1, [lr], #4
  4050f0:	f855 8b04 	ldr.w	r8, [r5], #4
  4050f4:	b28a      	uxth	r2, r1
  4050f6:	fa13 f388 	uxtah	r3, r3, r8
  4050fa:	0c09      	lsrs	r1, r1, #16
  4050fc:	1a9a      	subs	r2, r3, r2
  4050fe:	ebc1 4318 	rsb	r3, r1, r8, lsr #16
  405102:	eb03 4322 	add.w	r3, r3, r2, asr #16
  405106:	b292      	uxth	r2, r2
  405108:	ea42 4203 	orr.w	r2, r2, r3, lsl #16
  40510c:	45f4      	cmp	ip, lr
  40510e:	f844 2b04 	str.w	r2, [r4], #4
  405112:	ea4f 4323 	mov.w	r3, r3, asr #16
  405116:	d8e9      	bhi.n	4050ec <__mdiff+0x6c>
  405118:	42af      	cmp	r7, r5
  40511a:	d917      	bls.n	40514c <__mdiff+0xcc>
  40511c:	46a4      	mov	ip, r4
  40511e:	46ae      	mov	lr, r5
  405120:	f85e 2b04 	ldr.w	r2, [lr], #4
  405124:	fa13 f382 	uxtah	r3, r3, r2
  405128:	1419      	asrs	r1, r3, #16
  40512a:	eb01 4112 	add.w	r1, r1, r2, lsr #16
  40512e:	b29b      	uxth	r3, r3
  405130:	ea43 4201 	orr.w	r2, r3, r1, lsl #16
  405134:	4577      	cmp	r7, lr
  405136:	f84c 2b04 	str.w	r2, [ip], #4
  40513a:	ea4f 4321 	mov.w	r3, r1, asr #16
  40513e:	d8ef      	bhi.n	405120 <__mdiff+0xa0>
  405140:	43ed      	mvns	r5, r5
  405142:	442f      	add	r7, r5
  405144:	f027 0703 	bic.w	r7, r7, #3
  405148:	3704      	adds	r7, #4
  40514a:	443c      	add	r4, r7
  40514c:	3c04      	subs	r4, #4
  40514e:	b922      	cbnz	r2, 40515a <__mdiff+0xda>
  405150:	f854 3d04 	ldr.w	r3, [r4, #-4]!
  405154:	3e01      	subs	r6, #1
  405156:	2b00      	cmp	r3, #0
  405158:	d0fa      	beq.n	405150 <__mdiff+0xd0>
  40515a:	6106      	str	r6, [r0, #16]
  40515c:	e8bd 81f0 	ldmia.w	sp!, {r4, r5, r6, r7, r8, pc}
  405160:	2100      	movs	r1, #0
  405162:	f7ff fd73 	bl	404c4c <_Balloc>
  405166:	2201      	movs	r2, #1
  405168:	2300      	movs	r3, #0
  40516a:	6102      	str	r2, [r0, #16]
  40516c:	6143      	str	r3, [r0, #20]
  40516e:	e8bd 81f0 	ldmia.w	sp!, {r4, r5, r6, r7, r8, pc}
  405172:	4674      	mov	r4, lr
  405174:	e7ab      	b.n	4050ce <__mdiff+0x4e>
  405176:	4633      	mov	r3, r6
  405178:	f106 0414 	add.w	r4, r6, #20
  40517c:	f102 0514 	add.w	r5, r2, #20
  405180:	4616      	mov	r6, r2
  405182:	2701      	movs	r7, #1
  405184:	4698      	mov	r8, r3
  405186:	e7a2      	b.n	4050ce <__mdiff+0x4e>

00405188 <__d2b>:
  405188:	e92d 41f0 	stmdb	sp!, {r4, r5, r6, r7, r8, lr}
  40518c:	b082      	sub	sp, #8
  40518e:	2101      	movs	r1, #1
  405190:	461c      	mov	r4, r3
  405192:	f3c3 570a 	ubfx	r7, r3, #20, #11
  405196:	4615      	mov	r5, r2
  405198:	9e08      	ldr	r6, [sp, #32]
  40519a:	f7ff fd57 	bl	404c4c <_Balloc>
  40519e:	f3c4 0413 	ubfx	r4, r4, #0, #20
  4051a2:	4680      	mov	r8, r0
  4051a4:	b10f      	cbz	r7, 4051aa <__d2b+0x22>
  4051a6:	f444 1480 	orr.w	r4, r4, #1048576	; 0x100000
  4051aa:	9401      	str	r4, [sp, #4]
  4051ac:	b31d      	cbz	r5, 4051f6 <__d2b+0x6e>
  4051ae:	a802      	add	r0, sp, #8
  4051b0:	f840 5d08 	str.w	r5, [r0, #-8]!
  4051b4:	f7ff fdda 	bl	404d6c <__lo0bits>
  4051b8:	2800      	cmp	r0, #0
  4051ba:	d134      	bne.n	405226 <__d2b+0x9e>
  4051bc:	e89d 000c 	ldmia.w	sp, {r2, r3}
  4051c0:	f8c8 2014 	str.w	r2, [r8, #20]
  4051c4:	2b00      	cmp	r3, #0
  4051c6:	bf0c      	ite	eq
  4051c8:	2101      	moveq	r1, #1
  4051ca:	2102      	movne	r1, #2
  4051cc:	f8c8 3018 	str.w	r3, [r8, #24]
  4051d0:	f8c8 1010 	str.w	r1, [r8, #16]
  4051d4:	b9df      	cbnz	r7, 40520e <__d2b+0x86>
  4051d6:	eb08 0381 	add.w	r3, r8, r1, lsl #2
  4051da:	f2a0 4032 	subw	r0, r0, #1074	; 0x432
  4051de:	6030      	str	r0, [r6, #0]
  4051e0:	6918      	ldr	r0, [r3, #16]
  4051e2:	f7ff fda3 	bl	404d2c <__hi0bits>
  4051e6:	9b09      	ldr	r3, [sp, #36]	; 0x24
  4051e8:	ebc0 1041 	rsb	r0, r0, r1, lsl #5
  4051ec:	6018      	str	r0, [r3, #0]
  4051ee:	4640      	mov	r0, r8
  4051f0:	b002      	add	sp, #8
  4051f2:	e8bd 81f0 	ldmia.w	sp!, {r4, r5, r6, r7, r8, pc}
  4051f6:	a801      	add	r0, sp, #4
  4051f8:	f7ff fdb8 	bl	404d6c <__lo0bits>
  4051fc:	9b01      	ldr	r3, [sp, #4]
  4051fe:	f8c8 3014 	str.w	r3, [r8, #20]
  405202:	2101      	movs	r1, #1
  405204:	3020      	adds	r0, #32
  405206:	f8c8 1010 	str.w	r1, [r8, #16]
  40520a:	2f00      	cmp	r7, #0
  40520c:	d0e3      	beq.n	4051d6 <__d2b+0x4e>
  40520e:	9b09      	ldr	r3, [sp, #36]	; 0x24
  405210:	f2a7 4733 	subw	r7, r7, #1075	; 0x433
  405214:	4407      	add	r7, r0
  405216:	f1c0 0035 	rsb	r0, r0, #53	; 0x35
  40521a:	6037      	str	r7, [r6, #0]
  40521c:	6018      	str	r0, [r3, #0]
  40521e:	4640      	mov	r0, r8
  405220:	b002      	add	sp, #8
  405222:	e8bd 81f0 	ldmia.w	sp!, {r4, r5, r6, r7, r8, pc}
  405226:	e89d 000a 	ldmia.w	sp, {r1, r3}
  40522a:	f1c0 0220 	rsb	r2, r0, #32
  40522e:	fa03 f202 	lsl.w	r2, r3, r2
  405232:	430a      	orrs	r2, r1
  405234:	40c3      	lsrs	r3, r0
  405236:	9301      	str	r3, [sp, #4]
  405238:	f8c8 2014 	str.w	r2, [r8, #20]
  40523c:	e7c2      	b.n	4051c4 <__d2b+0x3c>
  40523e:	bf00      	nop

00405240 <_sbrk_r>:
  405240:	b538      	push	{r3, r4, r5, lr}
  405242:	4c07      	ldr	r4, [pc, #28]	; (405260 <_sbrk_r+0x20>)
  405244:	2300      	movs	r3, #0
  405246:	4605      	mov	r5, r0
  405248:	4608      	mov	r0, r1
  40524a:	6023      	str	r3, [r4, #0]
  40524c:	f7fc faec 	bl	401828 <_sbrk>
  405250:	1c43      	adds	r3, r0, #1
  405252:	d000      	beq.n	405256 <_sbrk_r+0x16>
  405254:	bd38      	pop	{r3, r4, r5, pc}
  405256:	6823      	ldr	r3, [r4, #0]
  405258:	2b00      	cmp	r3, #0
  40525a:	d0fb      	beq.n	405254 <_sbrk_r+0x14>
  40525c:	602b      	str	r3, [r5, #0]
  40525e:	bd38      	pop	{r3, r4, r5, pc}
  405260:	2001971c 	.word	0x2001971c

00405264 <strchr>:
  405264:	b2c9      	uxtb	r1, r1
  405266:	2900      	cmp	r1, #0
  405268:	d041      	beq.n	4052ee <strchr+0x8a>
  40526a:	0782      	lsls	r2, r0, #30
  40526c:	b4f0      	push	{r4, r5, r6, r7}
  40526e:	d067      	beq.n	405340 <strchr+0xdc>
  405270:	7803      	ldrb	r3, [r0, #0]
  405272:	2b00      	cmp	r3, #0
  405274:	d068      	beq.n	405348 <strchr+0xe4>
  405276:	4299      	cmp	r1, r3
  405278:	d037      	beq.n	4052ea <strchr+0x86>
  40527a:	1c43      	adds	r3, r0, #1
  40527c:	e004      	b.n	405288 <strchr+0x24>
  40527e:	f813 0b01 	ldrb.w	r0, [r3], #1
  405282:	b390      	cbz	r0, 4052ea <strchr+0x86>
  405284:	4281      	cmp	r1, r0
  405286:	d02f      	beq.n	4052e8 <strchr+0x84>
  405288:	079a      	lsls	r2, r3, #30
  40528a:	461c      	mov	r4, r3
  40528c:	d1f7      	bne.n	40527e <strchr+0x1a>
  40528e:	6825      	ldr	r5, [r4, #0]
  405290:	ea41 2301 	orr.w	r3, r1, r1, lsl #8
  405294:	ea43 4303 	orr.w	r3, r3, r3, lsl #16
  405298:	ea83 0605 	eor.w	r6, r3, r5
  40529c:	f1a6 3001 	sub.w	r0, r6, #16843009	; 0x1010101
  4052a0:	f1a5 3201 	sub.w	r2, r5, #16843009	; 0x1010101
  4052a4:	ea20 0006 	bic.w	r0, r0, r6
  4052a8:	ea22 0205 	bic.w	r2, r2, r5
  4052ac:	4302      	orrs	r2, r0
  4052ae:	f012 3f80 	tst.w	r2, #2155905152	; 0x80808080
  4052b2:	d111      	bne.n	4052d8 <strchr+0x74>
  4052b4:	4620      	mov	r0, r4
  4052b6:	f850 6f04 	ldr.w	r6, [r0, #4]!
  4052ba:	ea83 0706 	eor.w	r7, r3, r6
  4052be:	f1a7 3501 	sub.w	r5, r7, #16843009	; 0x1010101
  4052c2:	f1a6 3201 	sub.w	r2, r6, #16843009	; 0x1010101
  4052c6:	ea25 0507 	bic.w	r5, r5, r7
  4052ca:	ea22 0206 	bic.w	r2, r2, r6
  4052ce:	432a      	orrs	r2, r5
  4052d0:	f012 3f80 	tst.w	r2, #2155905152	; 0x80808080
  4052d4:	d0ef      	beq.n	4052b6 <strchr+0x52>
  4052d6:	4604      	mov	r4, r0
  4052d8:	7820      	ldrb	r0, [r4, #0]
  4052da:	b918      	cbnz	r0, 4052e4 <strchr+0x80>
  4052dc:	e005      	b.n	4052ea <strchr+0x86>
  4052de:	f814 0f01 	ldrb.w	r0, [r4, #1]!
  4052e2:	b110      	cbz	r0, 4052ea <strchr+0x86>
  4052e4:	4281      	cmp	r1, r0
  4052e6:	d1fa      	bne.n	4052de <strchr+0x7a>
  4052e8:	4620      	mov	r0, r4
  4052ea:	bcf0      	pop	{r4, r5, r6, r7}
  4052ec:	4770      	bx	lr
  4052ee:	0783      	lsls	r3, r0, #30
  4052f0:	d024      	beq.n	40533c <strchr+0xd8>
  4052f2:	7803      	ldrb	r3, [r0, #0]
  4052f4:	2b00      	cmp	r3, #0
  4052f6:	d0f9      	beq.n	4052ec <strchr+0x88>
  4052f8:	1c43      	adds	r3, r0, #1
  4052fa:	e003      	b.n	405304 <strchr+0xa0>
  4052fc:	7802      	ldrb	r2, [r0, #0]
  4052fe:	3301      	adds	r3, #1
  405300:	2a00      	cmp	r2, #0
  405302:	d0f3      	beq.n	4052ec <strchr+0x88>
  405304:	0799      	lsls	r1, r3, #30
  405306:	4618      	mov	r0, r3
  405308:	d1f8      	bne.n	4052fc <strchr+0x98>
  40530a:	6819      	ldr	r1, [r3, #0]
  40530c:	f1a1 3201 	sub.w	r2, r1, #16843009	; 0x1010101
  405310:	ea22 0201 	bic.w	r2, r2, r1
  405314:	f012 3f80 	tst.w	r2, #2155905152	; 0x80808080
  405318:	d108      	bne.n	40532c <strchr+0xc8>
  40531a:	f853 1f04 	ldr.w	r1, [r3, #4]!
  40531e:	f1a1 3201 	sub.w	r2, r1, #16843009	; 0x1010101
  405322:	ea22 0201 	bic.w	r2, r2, r1
  405326:	f012 3f80 	tst.w	r2, #2155905152	; 0x80808080
  40532a:	d0f6      	beq.n	40531a <strchr+0xb6>
  40532c:	781a      	ldrb	r2, [r3, #0]
  40532e:	4618      	mov	r0, r3
  405330:	b142      	cbz	r2, 405344 <strchr+0xe0>
  405332:	f810 3f01 	ldrb.w	r3, [r0, #1]!
  405336:	2b00      	cmp	r3, #0
  405338:	d1fb      	bne.n	405332 <strchr+0xce>
  40533a:	4770      	bx	lr
  40533c:	4603      	mov	r3, r0
  40533e:	e7e4      	b.n	40530a <strchr+0xa6>
  405340:	4604      	mov	r4, r0
  405342:	e7a4      	b.n	40528e <strchr+0x2a>
  405344:	4618      	mov	r0, r3
  405346:	4770      	bx	lr
  405348:	4618      	mov	r0, r3
  40534a:	e7ce      	b.n	4052ea <strchr+0x86>
	...

00405380 <strlen>:
  405380:	f890 f000 	pld	[r0]
  405384:	e96d 4502 	strd	r4, r5, [sp, #-8]!
  405388:	f020 0107 	bic.w	r1, r0, #7
  40538c:	f06f 0c00 	mvn.w	ip, #0
  405390:	f010 0407 	ands.w	r4, r0, #7
  405394:	f891 f020 	pld	[r1, #32]
  405398:	f040 8049 	bne.w	40542e <strlen+0xae>
  40539c:	f04f 0400 	mov.w	r4, #0
  4053a0:	f06f 0007 	mvn.w	r0, #7
  4053a4:	e9d1 2300 	ldrd	r2, r3, [r1]
  4053a8:	f891 f040 	pld	[r1, #64]	; 0x40
  4053ac:	f100 0008 	add.w	r0, r0, #8
  4053b0:	fa82 f24c 	uadd8	r2, r2, ip
  4053b4:	faa4 f28c 	sel	r2, r4, ip
  4053b8:	fa83 f34c 	uadd8	r3, r3, ip
  4053bc:	faa2 f38c 	sel	r3, r2, ip
  4053c0:	bb4b      	cbnz	r3, 405416 <strlen+0x96>
  4053c2:	e9d1 2302 	ldrd	r2, r3, [r1, #8]
  4053c6:	fa82 f24c 	uadd8	r2, r2, ip
  4053ca:	f100 0008 	add.w	r0, r0, #8
  4053ce:	faa4 f28c 	sel	r2, r4, ip
  4053d2:	fa83 f34c 	uadd8	r3, r3, ip
  4053d6:	faa2 f38c 	sel	r3, r2, ip
  4053da:	b9e3      	cbnz	r3, 405416 <strlen+0x96>
  4053dc:	e9d1 2304 	ldrd	r2, r3, [r1, #16]
  4053e0:	fa82 f24c 	uadd8	r2, r2, ip
  4053e4:	f100 0008 	add.w	r0, r0, #8
  4053e8:	faa4 f28c 	sel	r2, r4, ip
  4053ec:	fa83 f34c 	uadd8	r3, r3, ip
  4053f0:	faa2 f38c 	sel	r3, r2, ip
  4053f4:	b97b      	cbnz	r3, 405416 <strlen+0x96>
  4053f6:	e9d1 2306 	ldrd	r2, r3, [r1, #24]
  4053fa:	f101 0120 	add.w	r1, r1, #32
  4053fe:	fa82 f24c 	uadd8	r2, r2, ip
  405402:	f100 0008 	add.w	r0, r0, #8
  405406:	faa4 f28c 	sel	r2, r4, ip
  40540a:	fa83 f34c 	uadd8	r3, r3, ip
  40540e:	faa2 f38c 	sel	r3, r2, ip
  405412:	2b00      	cmp	r3, #0
  405414:	d0c6      	beq.n	4053a4 <strlen+0x24>
  405416:	2a00      	cmp	r2, #0
  405418:	bf04      	itt	eq
  40541a:	3004      	addeq	r0, #4
  40541c:	461a      	moveq	r2, r3
  40541e:	ba12      	rev	r2, r2
  405420:	fab2 f282 	clz	r2, r2
  405424:	e8fd 4502 	ldrd	r4, r5, [sp], #8
  405428:	eb00 00d2 	add.w	r0, r0, r2, lsr #3
  40542c:	4770      	bx	lr
  40542e:	e9d1 2300 	ldrd	r2, r3, [r1]
  405432:	f004 0503 	and.w	r5, r4, #3
  405436:	f1c4 0000 	rsb	r0, r4, #0
  40543a:	ea4f 05c5 	mov.w	r5, r5, lsl #3
  40543e:	f014 0f04 	tst.w	r4, #4
  405442:	f891 f040 	pld	[r1, #64]	; 0x40
  405446:	fa0c f505 	lsl.w	r5, ip, r5
  40544a:	ea62 0205 	orn	r2, r2, r5
  40544e:	bf1c      	itt	ne
  405450:	ea63 0305 	ornne	r3, r3, r5
  405454:	4662      	movne	r2, ip
  405456:	f04f 0400 	mov.w	r4, #0
  40545a:	e7a9      	b.n	4053b0 <strlen+0x30>

0040545c <__ssprint_r>:
  40545c:	e92d 4ff0 	stmdb	sp!, {r4, r5, r6, r7, r8, r9, sl, fp, lr}
  405460:	6893      	ldr	r3, [r2, #8]
  405462:	b083      	sub	sp, #12
  405464:	4690      	mov	r8, r2
  405466:	2b00      	cmp	r3, #0
  405468:	d070      	beq.n	40554c <__ssprint_r+0xf0>
  40546a:	4682      	mov	sl, r0
  40546c:	460c      	mov	r4, r1
  40546e:	6817      	ldr	r7, [r2, #0]
  405470:	688d      	ldr	r5, [r1, #8]
  405472:	6808      	ldr	r0, [r1, #0]
  405474:	e042      	b.n	4054fc <__ssprint_r+0xa0>
  405476:	89a3      	ldrh	r3, [r4, #12]
  405478:	f413 6f90 	tst.w	r3, #1152	; 0x480
  40547c:	d02e      	beq.n	4054dc <__ssprint_r+0x80>
  40547e:	6965      	ldr	r5, [r4, #20]
  405480:	6921      	ldr	r1, [r4, #16]
  405482:	eb05 0545 	add.w	r5, r5, r5, lsl #1
  405486:	eba0 0b01 	sub.w	fp, r0, r1
  40548a:	eb05 75d5 	add.w	r5, r5, r5, lsr #31
  40548e:	f10b 0001 	add.w	r0, fp, #1
  405492:	106d      	asrs	r5, r5, #1
  405494:	4430      	add	r0, r6
  405496:	42a8      	cmp	r0, r5
  405498:	462a      	mov	r2, r5
  40549a:	bf84      	itt	hi
  40549c:	4605      	movhi	r5, r0
  40549e:	462a      	movhi	r2, r5
  4054a0:	055b      	lsls	r3, r3, #21
  4054a2:	d538      	bpl.n	405516 <__ssprint_r+0xba>
  4054a4:	4611      	mov	r1, r2
  4054a6:	4650      	mov	r0, sl
  4054a8:	f7fe fff8 	bl	40449c <_malloc_r>
  4054ac:	2800      	cmp	r0, #0
  4054ae:	d03c      	beq.n	40552a <__ssprint_r+0xce>
  4054b0:	465a      	mov	r2, fp
  4054b2:	6921      	ldr	r1, [r4, #16]
  4054b4:	9001      	str	r0, [sp, #4]
  4054b6:	f7ff fb23 	bl	404b00 <memcpy>
  4054ba:	89a2      	ldrh	r2, [r4, #12]
  4054bc:	9b01      	ldr	r3, [sp, #4]
  4054be:	f422 6290 	bic.w	r2, r2, #1152	; 0x480
  4054c2:	f042 0280 	orr.w	r2, r2, #128	; 0x80
  4054c6:	81a2      	strh	r2, [r4, #12]
  4054c8:	eba5 020b 	sub.w	r2, r5, fp
  4054cc:	eb03 000b 	add.w	r0, r3, fp
  4054d0:	6165      	str	r5, [r4, #20]
  4054d2:	6123      	str	r3, [r4, #16]
  4054d4:	6020      	str	r0, [r4, #0]
  4054d6:	60a2      	str	r2, [r4, #8]
  4054d8:	4635      	mov	r5, r6
  4054da:	46b3      	mov	fp, r6
  4054dc:	465a      	mov	r2, fp
  4054de:	4649      	mov	r1, r9
  4054e0:	f000 fa18 	bl	405914 <memmove>
  4054e4:	f8d8 3008 	ldr.w	r3, [r8, #8]
  4054e8:	68a2      	ldr	r2, [r4, #8]
  4054ea:	6820      	ldr	r0, [r4, #0]
  4054ec:	1b55      	subs	r5, r2, r5
  4054ee:	4458      	add	r0, fp
  4054f0:	1b9e      	subs	r6, r3, r6
  4054f2:	60a5      	str	r5, [r4, #8]
  4054f4:	6020      	str	r0, [r4, #0]
  4054f6:	f8c8 6008 	str.w	r6, [r8, #8]
  4054fa:	b33e      	cbz	r6, 40554c <__ssprint_r+0xf0>
  4054fc:	687e      	ldr	r6, [r7, #4]
  4054fe:	463b      	mov	r3, r7
  405500:	3708      	adds	r7, #8
  405502:	2e00      	cmp	r6, #0
  405504:	d0fa      	beq.n	4054fc <__ssprint_r+0xa0>
  405506:	42ae      	cmp	r6, r5
  405508:	f8d3 9000 	ldr.w	r9, [r3]
  40550c:	46ab      	mov	fp, r5
  40550e:	d2b2      	bcs.n	405476 <__ssprint_r+0x1a>
  405510:	4635      	mov	r5, r6
  405512:	46b3      	mov	fp, r6
  405514:	e7e2      	b.n	4054dc <__ssprint_r+0x80>
  405516:	4650      	mov	r0, sl
  405518:	f000 fa60 	bl	4059dc <_realloc_r>
  40551c:	4603      	mov	r3, r0
  40551e:	2800      	cmp	r0, #0
  405520:	d1d2      	bne.n	4054c8 <__ssprint_r+0x6c>
  405522:	6921      	ldr	r1, [r4, #16]
  405524:	4650      	mov	r0, sl
  405526:	f000 f8f9 	bl	40571c <_free_r>
  40552a:	230c      	movs	r3, #12
  40552c:	f8ca 3000 	str.w	r3, [sl]
  405530:	89a3      	ldrh	r3, [r4, #12]
  405532:	2200      	movs	r2, #0
  405534:	f043 0340 	orr.w	r3, r3, #64	; 0x40
  405538:	f04f 30ff 	mov.w	r0, #4294967295
  40553c:	81a3      	strh	r3, [r4, #12]
  40553e:	f8c8 2008 	str.w	r2, [r8, #8]
  405542:	f8c8 2004 	str.w	r2, [r8, #4]
  405546:	b003      	add	sp, #12
  405548:	e8bd 8ff0 	ldmia.w	sp!, {r4, r5, r6, r7, r8, r9, sl, fp, pc}
  40554c:	2000      	movs	r0, #0
  40554e:	f8c8 0004 	str.w	r0, [r8, #4]
  405552:	b003      	add	sp, #12
  405554:	e8bd 8ff0 	ldmia.w	sp!, {r4, r5, r6, r7, r8, r9, sl, fp, pc}

00405558 <__register_exitproc>:
  405558:	e92d 43f8 	stmdb	sp!, {r3, r4, r5, r6, r7, r8, r9, lr}
  40555c:	4d2c      	ldr	r5, [pc, #176]	; (405610 <__register_exitproc+0xb8>)
  40555e:	4606      	mov	r6, r0
  405560:	6828      	ldr	r0, [r5, #0]
  405562:	4698      	mov	r8, r3
  405564:	460f      	mov	r7, r1
  405566:	4691      	mov	r9, r2
  405568:	f7fe ff94 	bl	404494 <__retarget_lock_acquire_recursive>
  40556c:	4b29      	ldr	r3, [pc, #164]	; (405614 <__register_exitproc+0xbc>)
  40556e:	681c      	ldr	r4, [r3, #0]
  405570:	f8d4 3148 	ldr.w	r3, [r4, #328]	; 0x148
  405574:	2b00      	cmp	r3, #0
  405576:	d03e      	beq.n	4055f6 <__register_exitproc+0x9e>
  405578:	685a      	ldr	r2, [r3, #4]
  40557a:	2a1f      	cmp	r2, #31
  40557c:	dc1c      	bgt.n	4055b8 <__register_exitproc+0x60>
  40557e:	f102 0e01 	add.w	lr, r2, #1
  405582:	b176      	cbz	r6, 4055a2 <__register_exitproc+0x4a>
  405584:	eb03 0182 	add.w	r1, r3, r2, lsl #2
  405588:	2401      	movs	r4, #1
  40558a:	f8c1 9088 	str.w	r9, [r1, #136]	; 0x88
  40558e:	f8d3 0188 	ldr.w	r0, [r3, #392]	; 0x188
  405592:	4094      	lsls	r4, r2
  405594:	4320      	orrs	r0, r4
  405596:	2e02      	cmp	r6, #2
  405598:	f8c3 0188 	str.w	r0, [r3, #392]	; 0x188
  40559c:	f8c1 8108 	str.w	r8, [r1, #264]	; 0x108
  4055a0:	d023      	beq.n	4055ea <__register_exitproc+0x92>
  4055a2:	3202      	adds	r2, #2
  4055a4:	f8c3 e004 	str.w	lr, [r3, #4]
  4055a8:	6828      	ldr	r0, [r5, #0]
  4055aa:	f843 7022 	str.w	r7, [r3, r2, lsl #2]
  4055ae:	f7fe ff73 	bl	404498 <__retarget_lock_release_recursive>
  4055b2:	2000      	movs	r0, #0
  4055b4:	e8bd 83f8 	ldmia.w	sp!, {r3, r4, r5, r6, r7, r8, r9, pc}
  4055b8:	4b17      	ldr	r3, [pc, #92]	; (405618 <__register_exitproc+0xc0>)
  4055ba:	b30b      	cbz	r3, 405600 <__register_exitproc+0xa8>
  4055bc:	f44f 70c8 	mov.w	r0, #400	; 0x190
  4055c0:	f3af 8000 	nop.w
  4055c4:	4603      	mov	r3, r0
  4055c6:	b1d8      	cbz	r0, 405600 <__register_exitproc+0xa8>
  4055c8:	f8d4 2148 	ldr.w	r2, [r4, #328]	; 0x148
  4055cc:	6002      	str	r2, [r0, #0]
  4055ce:	2100      	movs	r1, #0
  4055d0:	6041      	str	r1, [r0, #4]
  4055d2:	460a      	mov	r2, r1
  4055d4:	f8c4 0148 	str.w	r0, [r4, #328]	; 0x148
  4055d8:	f04f 0e01 	mov.w	lr, #1
  4055dc:	f8c0 1188 	str.w	r1, [r0, #392]	; 0x188
  4055e0:	f8c0 118c 	str.w	r1, [r0, #396]	; 0x18c
  4055e4:	2e00      	cmp	r6, #0
  4055e6:	d0dc      	beq.n	4055a2 <__register_exitproc+0x4a>
  4055e8:	e7cc      	b.n	405584 <__register_exitproc+0x2c>
  4055ea:	f8d3 118c 	ldr.w	r1, [r3, #396]	; 0x18c
  4055ee:	430c      	orrs	r4, r1
  4055f0:	f8c3 418c 	str.w	r4, [r3, #396]	; 0x18c
  4055f4:	e7d5      	b.n	4055a2 <__register_exitproc+0x4a>
  4055f6:	f504 73a6 	add.w	r3, r4, #332	; 0x14c
  4055fa:	f8c4 3148 	str.w	r3, [r4, #328]	; 0x148
  4055fe:	e7bb      	b.n	405578 <__register_exitproc+0x20>
  405600:	6828      	ldr	r0, [r5, #0]
  405602:	f7fe ff49 	bl	404498 <__retarget_lock_release_recursive>
  405606:	f04f 30ff 	mov.w	r0, #4294967295
  40560a:	e8bd 83f8 	ldmia.w	sp!, {r3, r4, r5, r6, r7, r8, r9, pc}
  40560e:	bf00      	nop
  405610:	20000440 	.word	0x20000440
  405614:	00407668 	.word	0x00407668
  405618:	00000000 	.word	0x00000000

0040561c <_calloc_r>:
  40561c:	b510      	push	{r4, lr}
  40561e:	fb02 f101 	mul.w	r1, r2, r1
  405622:	f7fe ff3b 	bl	40449c <_malloc_r>
  405626:	4604      	mov	r4, r0
  405628:	b1d8      	cbz	r0, 405662 <_calloc_r+0x46>
  40562a:	f850 2c04 	ldr.w	r2, [r0, #-4]
  40562e:	f022 0203 	bic.w	r2, r2, #3
  405632:	3a04      	subs	r2, #4
  405634:	2a24      	cmp	r2, #36	; 0x24
  405636:	d818      	bhi.n	40566a <_calloc_r+0x4e>
  405638:	2a13      	cmp	r2, #19
  40563a:	d914      	bls.n	405666 <_calloc_r+0x4a>
  40563c:	2300      	movs	r3, #0
  40563e:	2a1b      	cmp	r2, #27
  405640:	6003      	str	r3, [r0, #0]
  405642:	6043      	str	r3, [r0, #4]
  405644:	d916      	bls.n	405674 <_calloc_r+0x58>
  405646:	2a24      	cmp	r2, #36	; 0x24
  405648:	6083      	str	r3, [r0, #8]
  40564a:	60c3      	str	r3, [r0, #12]
  40564c:	bf11      	iteee	ne
  40564e:	f100 0210 	addne.w	r2, r0, #16
  405652:	6103      	streq	r3, [r0, #16]
  405654:	6143      	streq	r3, [r0, #20]
  405656:	f100 0218 	addeq.w	r2, r0, #24
  40565a:	2300      	movs	r3, #0
  40565c:	6013      	str	r3, [r2, #0]
  40565e:	6053      	str	r3, [r2, #4]
  405660:	6093      	str	r3, [r2, #8]
  405662:	4620      	mov	r0, r4
  405664:	bd10      	pop	{r4, pc}
  405666:	4602      	mov	r2, r0
  405668:	e7f7      	b.n	40565a <_calloc_r+0x3e>
  40566a:	2100      	movs	r1, #0
  40566c:	f7fc fa16 	bl	401a9c <memset>
  405670:	4620      	mov	r0, r4
  405672:	bd10      	pop	{r4, pc}
  405674:	f100 0208 	add.w	r2, r0, #8
  405678:	e7ef      	b.n	40565a <_calloc_r+0x3e>
  40567a:	bf00      	nop

0040567c <_malloc_trim_r>:
  40567c:	b5f8      	push	{r3, r4, r5, r6, r7, lr}
  40567e:	4f24      	ldr	r7, [pc, #144]	; (405710 <_malloc_trim_r+0x94>)
  405680:	460c      	mov	r4, r1
  405682:	4606      	mov	r6, r0
  405684:	f7ff fad6 	bl	404c34 <__malloc_lock>
  405688:	68bb      	ldr	r3, [r7, #8]
  40568a:	685d      	ldr	r5, [r3, #4]
  40568c:	f5c4 617e 	rsb	r1, r4, #4064	; 0xfe0
  405690:	310f      	adds	r1, #15
  405692:	f025 0503 	bic.w	r5, r5, #3
  405696:	4429      	add	r1, r5
  405698:	f421 617f 	bic.w	r1, r1, #4080	; 0xff0
  40569c:	f021 010f 	bic.w	r1, r1, #15
  4056a0:	f5a1 5480 	sub.w	r4, r1, #4096	; 0x1000
  4056a4:	f5b4 5f80 	cmp.w	r4, #4096	; 0x1000
  4056a8:	db07      	blt.n	4056ba <_malloc_trim_r+0x3e>
  4056aa:	2100      	movs	r1, #0
  4056ac:	4630      	mov	r0, r6
  4056ae:	f7ff fdc7 	bl	405240 <_sbrk_r>
  4056b2:	68bb      	ldr	r3, [r7, #8]
  4056b4:	442b      	add	r3, r5
  4056b6:	4298      	cmp	r0, r3
  4056b8:	d004      	beq.n	4056c4 <_malloc_trim_r+0x48>
  4056ba:	4630      	mov	r0, r6
  4056bc:	f7ff fac0 	bl	404c40 <__malloc_unlock>
  4056c0:	2000      	movs	r0, #0
  4056c2:	bdf8      	pop	{r3, r4, r5, r6, r7, pc}
  4056c4:	4261      	negs	r1, r4
  4056c6:	4630      	mov	r0, r6
  4056c8:	f7ff fdba 	bl	405240 <_sbrk_r>
  4056cc:	3001      	adds	r0, #1
  4056ce:	d00d      	beq.n	4056ec <_malloc_trim_r+0x70>
  4056d0:	4b10      	ldr	r3, [pc, #64]	; (405714 <_malloc_trim_r+0x98>)
  4056d2:	68ba      	ldr	r2, [r7, #8]
  4056d4:	6819      	ldr	r1, [r3, #0]
  4056d6:	1b2d      	subs	r5, r5, r4
  4056d8:	f045 0501 	orr.w	r5, r5, #1
  4056dc:	4630      	mov	r0, r6
  4056de:	1b09      	subs	r1, r1, r4
  4056e0:	6055      	str	r5, [r2, #4]
  4056e2:	6019      	str	r1, [r3, #0]
  4056e4:	f7ff faac 	bl	404c40 <__malloc_unlock>
  4056e8:	2001      	movs	r0, #1
  4056ea:	bdf8      	pop	{r3, r4, r5, r6, r7, pc}
  4056ec:	2100      	movs	r1, #0
  4056ee:	4630      	mov	r0, r6
  4056f0:	f7ff fda6 	bl	405240 <_sbrk_r>
  4056f4:	68ba      	ldr	r2, [r7, #8]
  4056f6:	1a83      	subs	r3, r0, r2
  4056f8:	2b0f      	cmp	r3, #15
  4056fa:	ddde      	ble.n	4056ba <_malloc_trim_r+0x3e>
  4056fc:	4c06      	ldr	r4, [pc, #24]	; (405718 <_malloc_trim_r+0x9c>)
  4056fe:	4905      	ldr	r1, [pc, #20]	; (405714 <_malloc_trim_r+0x98>)
  405700:	6824      	ldr	r4, [r4, #0]
  405702:	f043 0301 	orr.w	r3, r3, #1
  405706:	1b00      	subs	r0, r0, r4
  405708:	6053      	str	r3, [r2, #4]
  40570a:	6008      	str	r0, [r1, #0]
  40570c:	e7d5      	b.n	4056ba <_malloc_trim_r+0x3e>
  40570e:	bf00      	nop
  405710:	20000444 	.word	0x20000444
  405714:	20000a6c 	.word	0x20000a6c
  405718:	2000084c 	.word	0x2000084c

0040571c <_free_r>:
  40571c:	2900      	cmp	r1, #0
  40571e:	d044      	beq.n	4057aa <_free_r+0x8e>
  405720:	e92d 41f0 	stmdb	sp!, {r4, r5, r6, r7, r8, lr}
  405724:	460d      	mov	r5, r1
  405726:	4680      	mov	r8, r0
  405728:	f7ff fa84 	bl	404c34 <__malloc_lock>
  40572c:	f855 7c04 	ldr.w	r7, [r5, #-4]
  405730:	4969      	ldr	r1, [pc, #420]	; (4058d8 <_free_r+0x1bc>)
  405732:	f027 0301 	bic.w	r3, r7, #1
  405736:	f1a5 0408 	sub.w	r4, r5, #8
  40573a:	18e2      	adds	r2, r4, r3
  40573c:	688e      	ldr	r6, [r1, #8]
  40573e:	6850      	ldr	r0, [r2, #4]
  405740:	42b2      	cmp	r2, r6
  405742:	f020 0003 	bic.w	r0, r0, #3
  405746:	d05e      	beq.n	405806 <_free_r+0xea>
  405748:	07fe      	lsls	r6, r7, #31
  40574a:	6050      	str	r0, [r2, #4]
  40574c:	d40b      	bmi.n	405766 <_free_r+0x4a>
  40574e:	f855 7c08 	ldr.w	r7, [r5, #-8]
  405752:	1be4      	subs	r4, r4, r7
  405754:	f101 0e08 	add.w	lr, r1, #8
  405758:	68a5      	ldr	r5, [r4, #8]
  40575a:	4575      	cmp	r5, lr
  40575c:	443b      	add	r3, r7
  40575e:	d06d      	beq.n	40583c <_free_r+0x120>
  405760:	68e7      	ldr	r7, [r4, #12]
  405762:	60ef      	str	r7, [r5, #12]
  405764:	60bd      	str	r5, [r7, #8]
  405766:	1815      	adds	r5, r2, r0
  405768:	686d      	ldr	r5, [r5, #4]
  40576a:	07ed      	lsls	r5, r5, #31
  40576c:	d53e      	bpl.n	4057ec <_free_r+0xd0>
  40576e:	f043 0201 	orr.w	r2, r3, #1
  405772:	6062      	str	r2, [r4, #4]
  405774:	50e3      	str	r3, [r4, r3]
  405776:	f5b3 7f00 	cmp.w	r3, #512	; 0x200
  40577a:	d217      	bcs.n	4057ac <_free_r+0x90>
  40577c:	08db      	lsrs	r3, r3, #3
  40577e:	1c58      	adds	r0, r3, #1
  405780:	109a      	asrs	r2, r3, #2
  405782:	684d      	ldr	r5, [r1, #4]
  405784:	f851 7030 	ldr.w	r7, [r1, r0, lsl #3]
  405788:	60a7      	str	r7, [r4, #8]
  40578a:	2301      	movs	r3, #1
  40578c:	4093      	lsls	r3, r2
  40578e:	eb01 02c0 	add.w	r2, r1, r0, lsl #3
  405792:	432b      	orrs	r3, r5
  405794:	3a08      	subs	r2, #8
  405796:	60e2      	str	r2, [r4, #12]
  405798:	604b      	str	r3, [r1, #4]
  40579a:	f841 4030 	str.w	r4, [r1, r0, lsl #3]
  40579e:	60fc      	str	r4, [r7, #12]
  4057a0:	4640      	mov	r0, r8
  4057a2:	e8bd 41f0 	ldmia.w	sp!, {r4, r5, r6, r7, r8, lr}
  4057a6:	f7ff ba4b 	b.w	404c40 <__malloc_unlock>
  4057aa:	4770      	bx	lr
  4057ac:	0a5a      	lsrs	r2, r3, #9
  4057ae:	2a04      	cmp	r2, #4
  4057b0:	d852      	bhi.n	405858 <_free_r+0x13c>
  4057b2:	099a      	lsrs	r2, r3, #6
  4057b4:	f102 0739 	add.w	r7, r2, #57	; 0x39
  4057b8:	00ff      	lsls	r7, r7, #3
  4057ba:	f102 0538 	add.w	r5, r2, #56	; 0x38
  4057be:	19c8      	adds	r0, r1, r7
  4057c0:	59ca      	ldr	r2, [r1, r7]
  4057c2:	3808      	subs	r0, #8
  4057c4:	4290      	cmp	r0, r2
  4057c6:	d04f      	beq.n	405868 <_free_r+0x14c>
  4057c8:	6851      	ldr	r1, [r2, #4]
  4057ca:	f021 0103 	bic.w	r1, r1, #3
  4057ce:	428b      	cmp	r3, r1
  4057d0:	d232      	bcs.n	405838 <_free_r+0x11c>
  4057d2:	6892      	ldr	r2, [r2, #8]
  4057d4:	4290      	cmp	r0, r2
  4057d6:	d1f7      	bne.n	4057c8 <_free_r+0xac>
  4057d8:	68c3      	ldr	r3, [r0, #12]
  4057da:	60a0      	str	r0, [r4, #8]
  4057dc:	60e3      	str	r3, [r4, #12]
  4057de:	609c      	str	r4, [r3, #8]
  4057e0:	60c4      	str	r4, [r0, #12]
  4057e2:	4640      	mov	r0, r8
  4057e4:	e8bd 41f0 	ldmia.w	sp!, {r4, r5, r6, r7, r8, lr}
  4057e8:	f7ff ba2a 	b.w	404c40 <__malloc_unlock>
  4057ec:	6895      	ldr	r5, [r2, #8]
  4057ee:	4f3b      	ldr	r7, [pc, #236]	; (4058dc <_free_r+0x1c0>)
  4057f0:	42bd      	cmp	r5, r7
  4057f2:	4403      	add	r3, r0
  4057f4:	d040      	beq.n	405878 <_free_r+0x15c>
  4057f6:	68d0      	ldr	r0, [r2, #12]
  4057f8:	60e8      	str	r0, [r5, #12]
  4057fa:	f043 0201 	orr.w	r2, r3, #1
  4057fe:	6085      	str	r5, [r0, #8]
  405800:	6062      	str	r2, [r4, #4]
  405802:	50e3      	str	r3, [r4, r3]
  405804:	e7b7      	b.n	405776 <_free_r+0x5a>
  405806:	07ff      	lsls	r7, r7, #31
  405808:	4403      	add	r3, r0
  40580a:	d407      	bmi.n	40581c <_free_r+0x100>
  40580c:	f855 2c08 	ldr.w	r2, [r5, #-8]
  405810:	1aa4      	subs	r4, r4, r2
  405812:	4413      	add	r3, r2
  405814:	68a0      	ldr	r0, [r4, #8]
  405816:	68e2      	ldr	r2, [r4, #12]
  405818:	60c2      	str	r2, [r0, #12]
  40581a:	6090      	str	r0, [r2, #8]
  40581c:	4a30      	ldr	r2, [pc, #192]	; (4058e0 <_free_r+0x1c4>)
  40581e:	6812      	ldr	r2, [r2, #0]
  405820:	f043 0001 	orr.w	r0, r3, #1
  405824:	4293      	cmp	r3, r2
  405826:	6060      	str	r0, [r4, #4]
  405828:	608c      	str	r4, [r1, #8]
  40582a:	d3b9      	bcc.n	4057a0 <_free_r+0x84>
  40582c:	4b2d      	ldr	r3, [pc, #180]	; (4058e4 <_free_r+0x1c8>)
  40582e:	4640      	mov	r0, r8
  405830:	6819      	ldr	r1, [r3, #0]
  405832:	f7ff ff23 	bl	40567c <_malloc_trim_r>
  405836:	e7b3      	b.n	4057a0 <_free_r+0x84>
  405838:	4610      	mov	r0, r2
  40583a:	e7cd      	b.n	4057d8 <_free_r+0xbc>
  40583c:	1811      	adds	r1, r2, r0
  40583e:	6849      	ldr	r1, [r1, #4]
  405840:	07c9      	lsls	r1, r1, #31
  405842:	d444      	bmi.n	4058ce <_free_r+0x1b2>
  405844:	6891      	ldr	r1, [r2, #8]
  405846:	68d2      	ldr	r2, [r2, #12]
  405848:	60ca      	str	r2, [r1, #12]
  40584a:	4403      	add	r3, r0
  40584c:	f043 0001 	orr.w	r0, r3, #1
  405850:	6091      	str	r1, [r2, #8]
  405852:	6060      	str	r0, [r4, #4]
  405854:	50e3      	str	r3, [r4, r3]
  405856:	e7a3      	b.n	4057a0 <_free_r+0x84>
  405858:	2a14      	cmp	r2, #20
  40585a:	d816      	bhi.n	40588a <_free_r+0x16e>
  40585c:	f102 075c 	add.w	r7, r2, #92	; 0x5c
  405860:	00ff      	lsls	r7, r7, #3
  405862:	f102 055b 	add.w	r5, r2, #91	; 0x5b
  405866:	e7aa      	b.n	4057be <_free_r+0xa2>
  405868:	10aa      	asrs	r2, r5, #2
  40586a:	2301      	movs	r3, #1
  40586c:	684d      	ldr	r5, [r1, #4]
  40586e:	4093      	lsls	r3, r2
  405870:	432b      	orrs	r3, r5
  405872:	604b      	str	r3, [r1, #4]
  405874:	4603      	mov	r3, r0
  405876:	e7b0      	b.n	4057da <_free_r+0xbe>
  405878:	f043 0201 	orr.w	r2, r3, #1
  40587c:	614c      	str	r4, [r1, #20]
  40587e:	610c      	str	r4, [r1, #16]
  405880:	60e5      	str	r5, [r4, #12]
  405882:	60a5      	str	r5, [r4, #8]
  405884:	6062      	str	r2, [r4, #4]
  405886:	50e3      	str	r3, [r4, r3]
  405888:	e78a      	b.n	4057a0 <_free_r+0x84>
  40588a:	2a54      	cmp	r2, #84	; 0x54
  40588c:	d806      	bhi.n	40589c <_free_r+0x180>
  40588e:	0b1a      	lsrs	r2, r3, #12
  405890:	f102 076f 	add.w	r7, r2, #111	; 0x6f
  405894:	00ff      	lsls	r7, r7, #3
  405896:	f102 056e 	add.w	r5, r2, #110	; 0x6e
  40589a:	e790      	b.n	4057be <_free_r+0xa2>
  40589c:	f5b2 7faa 	cmp.w	r2, #340	; 0x154
  4058a0:	d806      	bhi.n	4058b0 <_free_r+0x194>
  4058a2:	0bda      	lsrs	r2, r3, #15
  4058a4:	f102 0778 	add.w	r7, r2, #120	; 0x78
  4058a8:	00ff      	lsls	r7, r7, #3
  4058aa:	f102 0577 	add.w	r5, r2, #119	; 0x77
  4058ae:	e786      	b.n	4057be <_free_r+0xa2>
  4058b0:	f240 5054 	movw	r0, #1364	; 0x554
  4058b4:	4282      	cmp	r2, r0
  4058b6:	d806      	bhi.n	4058c6 <_free_r+0x1aa>
  4058b8:	0c9a      	lsrs	r2, r3, #18
  4058ba:	f102 077d 	add.w	r7, r2, #125	; 0x7d
  4058be:	00ff      	lsls	r7, r7, #3
  4058c0:	f102 057c 	add.w	r5, r2, #124	; 0x7c
  4058c4:	e77b      	b.n	4057be <_free_r+0xa2>
  4058c6:	f44f 777e 	mov.w	r7, #1016	; 0x3f8
  4058ca:	257e      	movs	r5, #126	; 0x7e
  4058cc:	e777      	b.n	4057be <_free_r+0xa2>
  4058ce:	f043 0101 	orr.w	r1, r3, #1
  4058d2:	6061      	str	r1, [r4, #4]
  4058d4:	6013      	str	r3, [r2, #0]
  4058d6:	e763      	b.n	4057a0 <_free_r+0x84>
  4058d8:	20000444 	.word	0x20000444
  4058dc:	2000044c 	.word	0x2000044c
  4058e0:	20000850 	.word	0x20000850
  4058e4:	20000a9c 	.word	0x20000a9c

004058e8 <__ascii_mbtowc>:
  4058e8:	b082      	sub	sp, #8
  4058ea:	b149      	cbz	r1, 405900 <__ascii_mbtowc+0x18>
  4058ec:	b15a      	cbz	r2, 405906 <__ascii_mbtowc+0x1e>
  4058ee:	b16b      	cbz	r3, 40590c <__ascii_mbtowc+0x24>
  4058f0:	7813      	ldrb	r3, [r2, #0]
  4058f2:	600b      	str	r3, [r1, #0]
  4058f4:	7812      	ldrb	r2, [r2, #0]
  4058f6:	1c10      	adds	r0, r2, #0
  4058f8:	bf18      	it	ne
  4058fa:	2001      	movne	r0, #1
  4058fc:	b002      	add	sp, #8
  4058fe:	4770      	bx	lr
  405900:	a901      	add	r1, sp, #4
  405902:	2a00      	cmp	r2, #0
  405904:	d1f3      	bne.n	4058ee <__ascii_mbtowc+0x6>
  405906:	4610      	mov	r0, r2
  405908:	b002      	add	sp, #8
  40590a:	4770      	bx	lr
  40590c:	f06f 0001 	mvn.w	r0, #1
  405910:	e7f4      	b.n	4058fc <__ascii_mbtowc+0x14>
  405912:	bf00      	nop

00405914 <memmove>:
  405914:	4288      	cmp	r0, r1
  405916:	b5f0      	push	{r4, r5, r6, r7, lr}
  405918:	d90d      	bls.n	405936 <memmove+0x22>
  40591a:	188b      	adds	r3, r1, r2
  40591c:	4298      	cmp	r0, r3
  40591e:	d20a      	bcs.n	405936 <memmove+0x22>
  405920:	1884      	adds	r4, r0, r2
  405922:	2a00      	cmp	r2, #0
  405924:	d051      	beq.n	4059ca <memmove+0xb6>
  405926:	4622      	mov	r2, r4
  405928:	f813 4d01 	ldrb.w	r4, [r3, #-1]!
  40592c:	f802 4d01 	strb.w	r4, [r2, #-1]!
  405930:	4299      	cmp	r1, r3
  405932:	d1f9      	bne.n	405928 <memmove+0x14>
  405934:	bdf0      	pop	{r4, r5, r6, r7, pc}
  405936:	2a0f      	cmp	r2, #15
  405938:	d948      	bls.n	4059cc <memmove+0xb8>
  40593a:	ea41 0300 	orr.w	r3, r1, r0
  40593e:	079b      	lsls	r3, r3, #30
  405940:	d146      	bne.n	4059d0 <memmove+0xbc>
  405942:	f100 0410 	add.w	r4, r0, #16
  405946:	f101 0310 	add.w	r3, r1, #16
  40594a:	4615      	mov	r5, r2
  40594c:	f853 6c10 	ldr.w	r6, [r3, #-16]
  405950:	f844 6c10 	str.w	r6, [r4, #-16]
  405954:	f853 6c0c 	ldr.w	r6, [r3, #-12]
  405958:	f844 6c0c 	str.w	r6, [r4, #-12]
  40595c:	f853 6c08 	ldr.w	r6, [r3, #-8]
  405960:	f844 6c08 	str.w	r6, [r4, #-8]
  405964:	3d10      	subs	r5, #16
  405966:	f853 6c04 	ldr.w	r6, [r3, #-4]
  40596a:	f844 6c04 	str.w	r6, [r4, #-4]
  40596e:	2d0f      	cmp	r5, #15
  405970:	f103 0310 	add.w	r3, r3, #16
  405974:	f104 0410 	add.w	r4, r4, #16
  405978:	d8e8      	bhi.n	40594c <memmove+0x38>
  40597a:	f1a2 0310 	sub.w	r3, r2, #16
  40597e:	f023 030f 	bic.w	r3, r3, #15
  405982:	f002 0e0f 	and.w	lr, r2, #15
  405986:	3310      	adds	r3, #16
  405988:	f1be 0f03 	cmp.w	lr, #3
  40598c:	4419      	add	r1, r3
  40598e:	4403      	add	r3, r0
  405990:	d921      	bls.n	4059d6 <memmove+0xc2>
  405992:	1f1e      	subs	r6, r3, #4
  405994:	460d      	mov	r5, r1
  405996:	4674      	mov	r4, lr
  405998:	3c04      	subs	r4, #4
  40599a:	f855 7b04 	ldr.w	r7, [r5], #4
  40599e:	f846 7f04 	str.w	r7, [r6, #4]!
  4059a2:	2c03      	cmp	r4, #3
  4059a4:	d8f8      	bhi.n	405998 <memmove+0x84>
  4059a6:	f1ae 0404 	sub.w	r4, lr, #4
  4059aa:	f024 0403 	bic.w	r4, r4, #3
  4059ae:	3404      	adds	r4, #4
  4059b0:	4421      	add	r1, r4
  4059b2:	4423      	add	r3, r4
  4059b4:	f002 0203 	and.w	r2, r2, #3
  4059b8:	b162      	cbz	r2, 4059d4 <memmove+0xc0>
  4059ba:	3b01      	subs	r3, #1
  4059bc:	440a      	add	r2, r1
  4059be:	f811 4b01 	ldrb.w	r4, [r1], #1
  4059c2:	f803 4f01 	strb.w	r4, [r3, #1]!
  4059c6:	428a      	cmp	r2, r1
  4059c8:	d1f9      	bne.n	4059be <memmove+0xaa>
  4059ca:	bdf0      	pop	{r4, r5, r6, r7, pc}
  4059cc:	4603      	mov	r3, r0
  4059ce:	e7f3      	b.n	4059b8 <memmove+0xa4>
  4059d0:	4603      	mov	r3, r0
  4059d2:	e7f2      	b.n	4059ba <memmove+0xa6>
  4059d4:	bdf0      	pop	{r4, r5, r6, r7, pc}
  4059d6:	4672      	mov	r2, lr
  4059d8:	e7ee      	b.n	4059b8 <memmove+0xa4>
  4059da:	bf00      	nop

004059dc <_realloc_r>:
  4059dc:	2900      	cmp	r1, #0
  4059de:	f000 8095 	beq.w	405b0c <_realloc_r+0x130>
  4059e2:	e92d 4ff0 	stmdb	sp!, {r4, r5, r6, r7, r8, r9, sl, fp, lr}
  4059e6:	460d      	mov	r5, r1
  4059e8:	4616      	mov	r6, r2
  4059ea:	b083      	sub	sp, #12
  4059ec:	4680      	mov	r8, r0
  4059ee:	f106 070b 	add.w	r7, r6, #11
  4059f2:	f7ff f91f 	bl	404c34 <__malloc_lock>
  4059f6:	f855 ec04 	ldr.w	lr, [r5, #-4]
  4059fa:	2f16      	cmp	r7, #22
  4059fc:	f02e 0403 	bic.w	r4, lr, #3
  405a00:	f1a5 0908 	sub.w	r9, r5, #8
  405a04:	d83c      	bhi.n	405a80 <_realloc_r+0xa4>
  405a06:	2210      	movs	r2, #16
  405a08:	4617      	mov	r7, r2
  405a0a:	42be      	cmp	r6, r7
  405a0c:	d83d      	bhi.n	405a8a <_realloc_r+0xae>
  405a0e:	4294      	cmp	r4, r2
  405a10:	da43      	bge.n	405a9a <_realloc_r+0xbe>
  405a12:	4bc4      	ldr	r3, [pc, #784]	; (405d24 <_realloc_r+0x348>)
  405a14:	6899      	ldr	r1, [r3, #8]
  405a16:	eb09 0004 	add.w	r0, r9, r4
  405a1a:	4288      	cmp	r0, r1
  405a1c:	f000 80b4 	beq.w	405b88 <_realloc_r+0x1ac>
  405a20:	6843      	ldr	r3, [r0, #4]
  405a22:	f023 0101 	bic.w	r1, r3, #1
  405a26:	4401      	add	r1, r0
  405a28:	6849      	ldr	r1, [r1, #4]
  405a2a:	07c9      	lsls	r1, r1, #31
  405a2c:	d54c      	bpl.n	405ac8 <_realloc_r+0xec>
  405a2e:	f01e 0f01 	tst.w	lr, #1
  405a32:	f000 809b 	beq.w	405b6c <_realloc_r+0x190>
  405a36:	4631      	mov	r1, r6
  405a38:	4640      	mov	r0, r8
  405a3a:	f7fe fd2f 	bl	40449c <_malloc_r>
  405a3e:	4606      	mov	r6, r0
  405a40:	2800      	cmp	r0, #0
  405a42:	d03a      	beq.n	405aba <_realloc_r+0xde>
  405a44:	f855 3c04 	ldr.w	r3, [r5, #-4]
  405a48:	f023 0301 	bic.w	r3, r3, #1
  405a4c:	444b      	add	r3, r9
  405a4e:	f1a0 0208 	sub.w	r2, r0, #8
  405a52:	429a      	cmp	r2, r3
  405a54:	f000 8121 	beq.w	405c9a <_realloc_r+0x2be>
  405a58:	1f22      	subs	r2, r4, #4
  405a5a:	2a24      	cmp	r2, #36	; 0x24
  405a5c:	f200 8107 	bhi.w	405c6e <_realloc_r+0x292>
  405a60:	2a13      	cmp	r2, #19
  405a62:	f200 80db 	bhi.w	405c1c <_realloc_r+0x240>
  405a66:	4603      	mov	r3, r0
  405a68:	462a      	mov	r2, r5
  405a6a:	6811      	ldr	r1, [r2, #0]
  405a6c:	6019      	str	r1, [r3, #0]
  405a6e:	6851      	ldr	r1, [r2, #4]
  405a70:	6059      	str	r1, [r3, #4]
  405a72:	6892      	ldr	r2, [r2, #8]
  405a74:	609a      	str	r2, [r3, #8]
  405a76:	4629      	mov	r1, r5
  405a78:	4640      	mov	r0, r8
  405a7a:	f7ff fe4f 	bl	40571c <_free_r>
  405a7e:	e01c      	b.n	405aba <_realloc_r+0xde>
  405a80:	f027 0707 	bic.w	r7, r7, #7
  405a84:	2f00      	cmp	r7, #0
  405a86:	463a      	mov	r2, r7
  405a88:	dabf      	bge.n	405a0a <_realloc_r+0x2e>
  405a8a:	2600      	movs	r6, #0
  405a8c:	230c      	movs	r3, #12
  405a8e:	4630      	mov	r0, r6
  405a90:	f8c8 3000 	str.w	r3, [r8]
  405a94:	b003      	add	sp, #12
  405a96:	e8bd 8ff0 	ldmia.w	sp!, {r4, r5, r6, r7, r8, r9, sl, fp, pc}
  405a9a:	462e      	mov	r6, r5
  405a9c:	1be3      	subs	r3, r4, r7
  405a9e:	2b0f      	cmp	r3, #15
  405aa0:	d81e      	bhi.n	405ae0 <_realloc_r+0x104>
  405aa2:	f8d9 3004 	ldr.w	r3, [r9, #4]
  405aa6:	f003 0301 	and.w	r3, r3, #1
  405aaa:	4323      	orrs	r3, r4
  405aac:	444c      	add	r4, r9
  405aae:	f8c9 3004 	str.w	r3, [r9, #4]
  405ab2:	6863      	ldr	r3, [r4, #4]
  405ab4:	f043 0301 	orr.w	r3, r3, #1
  405ab8:	6063      	str	r3, [r4, #4]
  405aba:	4640      	mov	r0, r8
  405abc:	f7ff f8c0 	bl	404c40 <__malloc_unlock>
  405ac0:	4630      	mov	r0, r6
  405ac2:	b003      	add	sp, #12
  405ac4:	e8bd 8ff0 	ldmia.w	sp!, {r4, r5, r6, r7, r8, r9, sl, fp, pc}
  405ac8:	f023 0303 	bic.w	r3, r3, #3
  405acc:	18e1      	adds	r1, r4, r3
  405ace:	4291      	cmp	r1, r2
  405ad0:	db1f      	blt.n	405b12 <_realloc_r+0x136>
  405ad2:	68c3      	ldr	r3, [r0, #12]
  405ad4:	6882      	ldr	r2, [r0, #8]
  405ad6:	462e      	mov	r6, r5
  405ad8:	60d3      	str	r3, [r2, #12]
  405ada:	460c      	mov	r4, r1
  405adc:	609a      	str	r2, [r3, #8]
  405ade:	e7dd      	b.n	405a9c <_realloc_r+0xc0>
  405ae0:	f8d9 2004 	ldr.w	r2, [r9, #4]
  405ae4:	eb09 0107 	add.w	r1, r9, r7
  405ae8:	f002 0201 	and.w	r2, r2, #1
  405aec:	444c      	add	r4, r9
  405aee:	f043 0301 	orr.w	r3, r3, #1
  405af2:	4317      	orrs	r7, r2
  405af4:	f8c9 7004 	str.w	r7, [r9, #4]
  405af8:	604b      	str	r3, [r1, #4]
  405afa:	6863      	ldr	r3, [r4, #4]
  405afc:	f043 0301 	orr.w	r3, r3, #1
  405b00:	3108      	adds	r1, #8
  405b02:	6063      	str	r3, [r4, #4]
  405b04:	4640      	mov	r0, r8
  405b06:	f7ff fe09 	bl	40571c <_free_r>
  405b0a:	e7d6      	b.n	405aba <_realloc_r+0xde>
  405b0c:	4611      	mov	r1, r2
  405b0e:	f7fe bcc5 	b.w	40449c <_malloc_r>
  405b12:	f01e 0f01 	tst.w	lr, #1
  405b16:	d18e      	bne.n	405a36 <_realloc_r+0x5a>
  405b18:	f855 1c08 	ldr.w	r1, [r5, #-8]
  405b1c:	eba9 0a01 	sub.w	sl, r9, r1
  405b20:	f8da 1004 	ldr.w	r1, [sl, #4]
  405b24:	f021 0103 	bic.w	r1, r1, #3
  405b28:	440b      	add	r3, r1
  405b2a:	4423      	add	r3, r4
  405b2c:	4293      	cmp	r3, r2
  405b2e:	db25      	blt.n	405b7c <_realloc_r+0x1a0>
  405b30:	68c2      	ldr	r2, [r0, #12]
  405b32:	6881      	ldr	r1, [r0, #8]
  405b34:	4656      	mov	r6, sl
  405b36:	60ca      	str	r2, [r1, #12]
  405b38:	6091      	str	r1, [r2, #8]
  405b3a:	f8da 100c 	ldr.w	r1, [sl, #12]
  405b3e:	f856 0f08 	ldr.w	r0, [r6, #8]!
  405b42:	1f22      	subs	r2, r4, #4
  405b44:	2a24      	cmp	r2, #36	; 0x24
  405b46:	60c1      	str	r1, [r0, #12]
  405b48:	6088      	str	r0, [r1, #8]
  405b4a:	f200 8094 	bhi.w	405c76 <_realloc_r+0x29a>
  405b4e:	2a13      	cmp	r2, #19
  405b50:	d96f      	bls.n	405c32 <_realloc_r+0x256>
  405b52:	6829      	ldr	r1, [r5, #0]
  405b54:	f8ca 1008 	str.w	r1, [sl, #8]
  405b58:	6869      	ldr	r1, [r5, #4]
  405b5a:	f8ca 100c 	str.w	r1, [sl, #12]
  405b5e:	2a1b      	cmp	r2, #27
  405b60:	f200 80a2 	bhi.w	405ca8 <_realloc_r+0x2cc>
  405b64:	3508      	adds	r5, #8
  405b66:	f10a 0210 	add.w	r2, sl, #16
  405b6a:	e063      	b.n	405c34 <_realloc_r+0x258>
  405b6c:	f855 3c08 	ldr.w	r3, [r5, #-8]
  405b70:	eba9 0a03 	sub.w	sl, r9, r3
  405b74:	f8da 1004 	ldr.w	r1, [sl, #4]
  405b78:	f021 0103 	bic.w	r1, r1, #3
  405b7c:	1863      	adds	r3, r4, r1
  405b7e:	4293      	cmp	r3, r2
  405b80:	f6ff af59 	blt.w	405a36 <_realloc_r+0x5a>
  405b84:	4656      	mov	r6, sl
  405b86:	e7d8      	b.n	405b3a <_realloc_r+0x15e>
  405b88:	6841      	ldr	r1, [r0, #4]
  405b8a:	f021 0b03 	bic.w	fp, r1, #3
  405b8e:	44a3      	add	fp, r4
  405b90:	f107 0010 	add.w	r0, r7, #16
  405b94:	4583      	cmp	fp, r0
  405b96:	da56      	bge.n	405c46 <_realloc_r+0x26a>
  405b98:	f01e 0f01 	tst.w	lr, #1
  405b9c:	f47f af4b 	bne.w	405a36 <_realloc_r+0x5a>
  405ba0:	f855 1c08 	ldr.w	r1, [r5, #-8]
  405ba4:	eba9 0a01 	sub.w	sl, r9, r1
  405ba8:	f8da 1004 	ldr.w	r1, [sl, #4]
  405bac:	f021 0103 	bic.w	r1, r1, #3
  405bb0:	448b      	add	fp, r1
  405bb2:	4558      	cmp	r0, fp
  405bb4:	dce2      	bgt.n	405b7c <_realloc_r+0x1a0>
  405bb6:	4656      	mov	r6, sl
  405bb8:	f8da 100c 	ldr.w	r1, [sl, #12]
  405bbc:	f856 0f08 	ldr.w	r0, [r6, #8]!
  405bc0:	1f22      	subs	r2, r4, #4
  405bc2:	2a24      	cmp	r2, #36	; 0x24
  405bc4:	60c1      	str	r1, [r0, #12]
  405bc6:	6088      	str	r0, [r1, #8]
  405bc8:	f200 808f 	bhi.w	405cea <_realloc_r+0x30e>
  405bcc:	2a13      	cmp	r2, #19
  405bce:	f240 808a 	bls.w	405ce6 <_realloc_r+0x30a>
  405bd2:	6829      	ldr	r1, [r5, #0]
  405bd4:	f8ca 1008 	str.w	r1, [sl, #8]
  405bd8:	6869      	ldr	r1, [r5, #4]
  405bda:	f8ca 100c 	str.w	r1, [sl, #12]
  405bde:	2a1b      	cmp	r2, #27
  405be0:	f200 808a 	bhi.w	405cf8 <_realloc_r+0x31c>
  405be4:	3508      	adds	r5, #8
  405be6:	f10a 0210 	add.w	r2, sl, #16
  405bea:	6829      	ldr	r1, [r5, #0]
  405bec:	6011      	str	r1, [r2, #0]
  405bee:	6869      	ldr	r1, [r5, #4]
  405bf0:	6051      	str	r1, [r2, #4]
  405bf2:	68a9      	ldr	r1, [r5, #8]
  405bf4:	6091      	str	r1, [r2, #8]
  405bf6:	eb0a 0107 	add.w	r1, sl, r7
  405bfa:	ebab 0207 	sub.w	r2, fp, r7
  405bfe:	f042 0201 	orr.w	r2, r2, #1
  405c02:	6099      	str	r1, [r3, #8]
  405c04:	604a      	str	r2, [r1, #4]
  405c06:	f8da 3004 	ldr.w	r3, [sl, #4]
  405c0a:	f003 0301 	and.w	r3, r3, #1
  405c0e:	431f      	orrs	r7, r3
  405c10:	4640      	mov	r0, r8
  405c12:	f8ca 7004 	str.w	r7, [sl, #4]
  405c16:	f7ff f813 	bl	404c40 <__malloc_unlock>
  405c1a:	e751      	b.n	405ac0 <_realloc_r+0xe4>
  405c1c:	682b      	ldr	r3, [r5, #0]
  405c1e:	6003      	str	r3, [r0, #0]
  405c20:	686b      	ldr	r3, [r5, #4]
  405c22:	6043      	str	r3, [r0, #4]
  405c24:	2a1b      	cmp	r2, #27
  405c26:	d82d      	bhi.n	405c84 <_realloc_r+0x2a8>
  405c28:	f100 0308 	add.w	r3, r0, #8
  405c2c:	f105 0208 	add.w	r2, r5, #8
  405c30:	e71b      	b.n	405a6a <_realloc_r+0x8e>
  405c32:	4632      	mov	r2, r6
  405c34:	6829      	ldr	r1, [r5, #0]
  405c36:	6011      	str	r1, [r2, #0]
  405c38:	6869      	ldr	r1, [r5, #4]
  405c3a:	6051      	str	r1, [r2, #4]
  405c3c:	68a9      	ldr	r1, [r5, #8]
  405c3e:	6091      	str	r1, [r2, #8]
  405c40:	461c      	mov	r4, r3
  405c42:	46d1      	mov	r9, sl
  405c44:	e72a      	b.n	405a9c <_realloc_r+0xc0>
  405c46:	eb09 0107 	add.w	r1, r9, r7
  405c4a:	ebab 0b07 	sub.w	fp, fp, r7
  405c4e:	f04b 0201 	orr.w	r2, fp, #1
  405c52:	6099      	str	r1, [r3, #8]
  405c54:	604a      	str	r2, [r1, #4]
  405c56:	f855 3c04 	ldr.w	r3, [r5, #-4]
  405c5a:	f003 0301 	and.w	r3, r3, #1
  405c5e:	431f      	orrs	r7, r3
  405c60:	4640      	mov	r0, r8
  405c62:	f845 7c04 	str.w	r7, [r5, #-4]
  405c66:	f7fe ffeb 	bl	404c40 <__malloc_unlock>
  405c6a:	462e      	mov	r6, r5
  405c6c:	e728      	b.n	405ac0 <_realloc_r+0xe4>
  405c6e:	4629      	mov	r1, r5
  405c70:	f7ff fe50 	bl	405914 <memmove>
  405c74:	e6ff      	b.n	405a76 <_realloc_r+0x9a>
  405c76:	4629      	mov	r1, r5
  405c78:	4630      	mov	r0, r6
  405c7a:	461c      	mov	r4, r3
  405c7c:	46d1      	mov	r9, sl
  405c7e:	f7ff fe49 	bl	405914 <memmove>
  405c82:	e70b      	b.n	405a9c <_realloc_r+0xc0>
  405c84:	68ab      	ldr	r3, [r5, #8]
  405c86:	6083      	str	r3, [r0, #8]
  405c88:	68eb      	ldr	r3, [r5, #12]
  405c8a:	60c3      	str	r3, [r0, #12]
  405c8c:	2a24      	cmp	r2, #36	; 0x24
  405c8e:	d017      	beq.n	405cc0 <_realloc_r+0x2e4>
  405c90:	f100 0310 	add.w	r3, r0, #16
  405c94:	f105 0210 	add.w	r2, r5, #16
  405c98:	e6e7      	b.n	405a6a <_realloc_r+0x8e>
  405c9a:	f850 3c04 	ldr.w	r3, [r0, #-4]
  405c9e:	f023 0303 	bic.w	r3, r3, #3
  405ca2:	441c      	add	r4, r3
  405ca4:	462e      	mov	r6, r5
  405ca6:	e6f9      	b.n	405a9c <_realloc_r+0xc0>
  405ca8:	68a9      	ldr	r1, [r5, #8]
  405caa:	f8ca 1010 	str.w	r1, [sl, #16]
  405cae:	68e9      	ldr	r1, [r5, #12]
  405cb0:	f8ca 1014 	str.w	r1, [sl, #20]
  405cb4:	2a24      	cmp	r2, #36	; 0x24
  405cb6:	d00c      	beq.n	405cd2 <_realloc_r+0x2f6>
  405cb8:	3510      	adds	r5, #16
  405cba:	f10a 0218 	add.w	r2, sl, #24
  405cbe:	e7b9      	b.n	405c34 <_realloc_r+0x258>
  405cc0:	692b      	ldr	r3, [r5, #16]
  405cc2:	6103      	str	r3, [r0, #16]
  405cc4:	696b      	ldr	r3, [r5, #20]
  405cc6:	6143      	str	r3, [r0, #20]
  405cc8:	f105 0218 	add.w	r2, r5, #24
  405ccc:	f100 0318 	add.w	r3, r0, #24
  405cd0:	e6cb      	b.n	405a6a <_realloc_r+0x8e>
  405cd2:	692a      	ldr	r2, [r5, #16]
  405cd4:	f8ca 2018 	str.w	r2, [sl, #24]
  405cd8:	696a      	ldr	r2, [r5, #20]
  405cda:	f8ca 201c 	str.w	r2, [sl, #28]
  405cde:	3518      	adds	r5, #24
  405ce0:	f10a 0220 	add.w	r2, sl, #32
  405ce4:	e7a6      	b.n	405c34 <_realloc_r+0x258>
  405ce6:	4632      	mov	r2, r6
  405ce8:	e77f      	b.n	405bea <_realloc_r+0x20e>
  405cea:	4629      	mov	r1, r5
  405cec:	4630      	mov	r0, r6
  405cee:	9301      	str	r3, [sp, #4]
  405cf0:	f7ff fe10 	bl	405914 <memmove>
  405cf4:	9b01      	ldr	r3, [sp, #4]
  405cf6:	e77e      	b.n	405bf6 <_realloc_r+0x21a>
  405cf8:	68a9      	ldr	r1, [r5, #8]
  405cfa:	f8ca 1010 	str.w	r1, [sl, #16]
  405cfe:	68e9      	ldr	r1, [r5, #12]
  405d00:	f8ca 1014 	str.w	r1, [sl, #20]
  405d04:	2a24      	cmp	r2, #36	; 0x24
  405d06:	d003      	beq.n	405d10 <_realloc_r+0x334>
  405d08:	3510      	adds	r5, #16
  405d0a:	f10a 0218 	add.w	r2, sl, #24
  405d0e:	e76c      	b.n	405bea <_realloc_r+0x20e>
  405d10:	692a      	ldr	r2, [r5, #16]
  405d12:	f8ca 2018 	str.w	r2, [sl, #24]
  405d16:	696a      	ldr	r2, [r5, #20]
  405d18:	f8ca 201c 	str.w	r2, [sl, #28]
  405d1c:	3518      	adds	r5, #24
  405d1e:	f10a 0220 	add.w	r2, sl, #32
  405d22:	e762      	b.n	405bea <_realloc_r+0x20e>
  405d24:	20000444 	.word	0x20000444

00405d28 <__ascii_wctomb>:
  405d28:	b121      	cbz	r1, 405d34 <__ascii_wctomb+0xc>
  405d2a:	2aff      	cmp	r2, #255	; 0xff
  405d2c:	d804      	bhi.n	405d38 <__ascii_wctomb+0x10>
  405d2e:	700a      	strb	r2, [r1, #0]
  405d30:	2001      	movs	r0, #1
  405d32:	4770      	bx	lr
  405d34:	4608      	mov	r0, r1
  405d36:	4770      	bx	lr
  405d38:	238a      	movs	r3, #138	; 0x8a
  405d3a:	6003      	str	r3, [r0, #0]
  405d3c:	f04f 30ff 	mov.w	r0, #4294967295
  405d40:	4770      	bx	lr
  405d42:	bf00      	nop

00405d44 <__aeabi_drsub>:
  405d44:	f081 4100 	eor.w	r1, r1, #2147483648	; 0x80000000
  405d48:	e002      	b.n	405d50 <__adddf3>
  405d4a:	bf00      	nop

00405d4c <__aeabi_dsub>:
  405d4c:	f083 4300 	eor.w	r3, r3, #2147483648	; 0x80000000

00405d50 <__adddf3>:
  405d50:	b530      	push	{r4, r5, lr}
  405d52:	ea4f 0441 	mov.w	r4, r1, lsl #1
  405d56:	ea4f 0543 	mov.w	r5, r3, lsl #1
  405d5a:	ea94 0f05 	teq	r4, r5
  405d5e:	bf08      	it	eq
  405d60:	ea90 0f02 	teqeq	r0, r2
  405d64:	bf1f      	itttt	ne
  405d66:	ea54 0c00 	orrsne.w	ip, r4, r0
  405d6a:	ea55 0c02 	orrsne.w	ip, r5, r2
  405d6e:	ea7f 5c64 	mvnsne.w	ip, r4, asr #21
  405d72:	ea7f 5c65 	mvnsne.w	ip, r5, asr #21
  405d76:	f000 80e2 	beq.w	405f3e <__adddf3+0x1ee>
  405d7a:	ea4f 5454 	mov.w	r4, r4, lsr #21
  405d7e:	ebd4 5555 	rsbs	r5, r4, r5, lsr #21
  405d82:	bfb8      	it	lt
  405d84:	426d      	neglt	r5, r5
  405d86:	dd0c      	ble.n	405da2 <__adddf3+0x52>
  405d88:	442c      	add	r4, r5
  405d8a:	ea80 0202 	eor.w	r2, r0, r2
  405d8e:	ea81 0303 	eor.w	r3, r1, r3
  405d92:	ea82 0000 	eor.w	r0, r2, r0
  405d96:	ea83 0101 	eor.w	r1, r3, r1
  405d9a:	ea80 0202 	eor.w	r2, r0, r2
  405d9e:	ea81 0303 	eor.w	r3, r1, r3
  405da2:	2d36      	cmp	r5, #54	; 0x36
  405da4:	bf88      	it	hi
  405da6:	bd30      	pophi	{r4, r5, pc}
  405da8:	f011 4f00 	tst.w	r1, #2147483648	; 0x80000000
  405dac:	ea4f 3101 	mov.w	r1, r1, lsl #12
  405db0:	f44f 1c80 	mov.w	ip, #1048576	; 0x100000
  405db4:	ea4c 3111 	orr.w	r1, ip, r1, lsr #12
  405db8:	d002      	beq.n	405dc0 <__adddf3+0x70>
  405dba:	4240      	negs	r0, r0
  405dbc:	eb61 0141 	sbc.w	r1, r1, r1, lsl #1
  405dc0:	f013 4f00 	tst.w	r3, #2147483648	; 0x80000000
  405dc4:	ea4f 3303 	mov.w	r3, r3, lsl #12
  405dc8:	ea4c 3313 	orr.w	r3, ip, r3, lsr #12
  405dcc:	d002      	beq.n	405dd4 <__adddf3+0x84>
  405dce:	4252      	negs	r2, r2
  405dd0:	eb63 0343 	sbc.w	r3, r3, r3, lsl #1
  405dd4:	ea94 0f05 	teq	r4, r5
  405dd8:	f000 80a7 	beq.w	405f2a <__adddf3+0x1da>
  405ddc:	f1a4 0401 	sub.w	r4, r4, #1
  405de0:	f1d5 0e20 	rsbs	lr, r5, #32
  405de4:	db0d      	blt.n	405e02 <__adddf3+0xb2>
  405de6:	fa02 fc0e 	lsl.w	ip, r2, lr
  405dea:	fa22 f205 	lsr.w	r2, r2, r5
  405dee:	1880      	adds	r0, r0, r2
  405df0:	f141 0100 	adc.w	r1, r1, #0
  405df4:	fa03 f20e 	lsl.w	r2, r3, lr
  405df8:	1880      	adds	r0, r0, r2
  405dfa:	fa43 f305 	asr.w	r3, r3, r5
  405dfe:	4159      	adcs	r1, r3
  405e00:	e00e      	b.n	405e20 <__adddf3+0xd0>
  405e02:	f1a5 0520 	sub.w	r5, r5, #32
  405e06:	f10e 0e20 	add.w	lr, lr, #32
  405e0a:	2a01      	cmp	r2, #1
  405e0c:	fa03 fc0e 	lsl.w	ip, r3, lr
  405e10:	bf28      	it	cs
  405e12:	f04c 0c02 	orrcs.w	ip, ip, #2
  405e16:	fa43 f305 	asr.w	r3, r3, r5
  405e1a:	18c0      	adds	r0, r0, r3
  405e1c:	eb51 71e3 	adcs.w	r1, r1, r3, asr #31
  405e20:	f001 4500 	and.w	r5, r1, #2147483648	; 0x80000000
  405e24:	d507      	bpl.n	405e36 <__adddf3+0xe6>
  405e26:	f04f 0e00 	mov.w	lr, #0
  405e2a:	f1dc 0c00 	rsbs	ip, ip, #0
  405e2e:	eb7e 0000 	sbcs.w	r0, lr, r0
  405e32:	eb6e 0101 	sbc.w	r1, lr, r1
  405e36:	f5b1 1f80 	cmp.w	r1, #1048576	; 0x100000
  405e3a:	d31b      	bcc.n	405e74 <__adddf3+0x124>
  405e3c:	f5b1 1f00 	cmp.w	r1, #2097152	; 0x200000
  405e40:	d30c      	bcc.n	405e5c <__adddf3+0x10c>
  405e42:	0849      	lsrs	r1, r1, #1
  405e44:	ea5f 0030 	movs.w	r0, r0, rrx
  405e48:	ea4f 0c3c 	mov.w	ip, ip, rrx
  405e4c:	f104 0401 	add.w	r4, r4, #1
  405e50:	ea4f 5244 	mov.w	r2, r4, lsl #21
  405e54:	f512 0f80 	cmn.w	r2, #4194304	; 0x400000
  405e58:	f080 809a 	bcs.w	405f90 <__adddf3+0x240>
  405e5c:	f1bc 4f00 	cmp.w	ip, #2147483648	; 0x80000000
  405e60:	bf08      	it	eq
  405e62:	ea5f 0c50 	movseq.w	ip, r0, lsr #1
  405e66:	f150 0000 	adcs.w	r0, r0, #0
  405e6a:	eb41 5104 	adc.w	r1, r1, r4, lsl #20
  405e6e:	ea41 0105 	orr.w	r1, r1, r5
  405e72:	bd30      	pop	{r4, r5, pc}
  405e74:	ea5f 0c4c 	movs.w	ip, ip, lsl #1
  405e78:	4140      	adcs	r0, r0
  405e7a:	eb41 0101 	adc.w	r1, r1, r1
  405e7e:	f411 1f80 	tst.w	r1, #1048576	; 0x100000
  405e82:	f1a4 0401 	sub.w	r4, r4, #1
  405e86:	d1e9      	bne.n	405e5c <__adddf3+0x10c>
  405e88:	f091 0f00 	teq	r1, #0
  405e8c:	bf04      	itt	eq
  405e8e:	4601      	moveq	r1, r0
  405e90:	2000      	moveq	r0, #0
  405e92:	fab1 f381 	clz	r3, r1
  405e96:	bf08      	it	eq
  405e98:	3320      	addeq	r3, #32
  405e9a:	f1a3 030b 	sub.w	r3, r3, #11
  405e9e:	f1b3 0220 	subs.w	r2, r3, #32
  405ea2:	da0c      	bge.n	405ebe <__adddf3+0x16e>
  405ea4:	320c      	adds	r2, #12
  405ea6:	dd08      	ble.n	405eba <__adddf3+0x16a>
  405ea8:	f102 0c14 	add.w	ip, r2, #20
  405eac:	f1c2 020c 	rsb	r2, r2, #12
  405eb0:	fa01 f00c 	lsl.w	r0, r1, ip
  405eb4:	fa21 f102 	lsr.w	r1, r1, r2
  405eb8:	e00c      	b.n	405ed4 <__adddf3+0x184>
  405eba:	f102 0214 	add.w	r2, r2, #20
  405ebe:	bfd8      	it	le
  405ec0:	f1c2 0c20 	rsble	ip, r2, #32
  405ec4:	fa01 f102 	lsl.w	r1, r1, r2
  405ec8:	fa20 fc0c 	lsr.w	ip, r0, ip
  405ecc:	bfdc      	itt	le
  405ece:	ea41 010c 	orrle.w	r1, r1, ip
  405ed2:	4090      	lslle	r0, r2
  405ed4:	1ae4      	subs	r4, r4, r3
  405ed6:	bfa2      	ittt	ge
  405ed8:	eb01 5104 	addge.w	r1, r1, r4, lsl #20
  405edc:	4329      	orrge	r1, r5
  405ede:	bd30      	popge	{r4, r5, pc}
  405ee0:	ea6f 0404 	mvn.w	r4, r4
  405ee4:	3c1f      	subs	r4, #31
  405ee6:	da1c      	bge.n	405f22 <__adddf3+0x1d2>
  405ee8:	340c      	adds	r4, #12
  405eea:	dc0e      	bgt.n	405f0a <__adddf3+0x1ba>
  405eec:	f104 0414 	add.w	r4, r4, #20
  405ef0:	f1c4 0220 	rsb	r2, r4, #32
  405ef4:	fa20 f004 	lsr.w	r0, r0, r4
  405ef8:	fa01 f302 	lsl.w	r3, r1, r2
  405efc:	ea40 0003 	orr.w	r0, r0, r3
  405f00:	fa21 f304 	lsr.w	r3, r1, r4
  405f04:	ea45 0103 	orr.w	r1, r5, r3
  405f08:	bd30      	pop	{r4, r5, pc}
  405f0a:	f1c4 040c 	rsb	r4, r4, #12
  405f0e:	f1c4 0220 	rsb	r2, r4, #32
  405f12:	fa20 f002 	lsr.w	r0, r0, r2
  405f16:	fa01 f304 	lsl.w	r3, r1, r4
  405f1a:	ea40 0003 	orr.w	r0, r0, r3
  405f1e:	4629      	mov	r1, r5
  405f20:	bd30      	pop	{r4, r5, pc}
  405f22:	fa21 f004 	lsr.w	r0, r1, r4
  405f26:	4629      	mov	r1, r5
  405f28:	bd30      	pop	{r4, r5, pc}
  405f2a:	f094 0f00 	teq	r4, #0
  405f2e:	f483 1380 	eor.w	r3, r3, #1048576	; 0x100000
  405f32:	bf06      	itte	eq
  405f34:	f481 1180 	eoreq.w	r1, r1, #1048576	; 0x100000
  405f38:	3401      	addeq	r4, #1
  405f3a:	3d01      	subne	r5, #1
  405f3c:	e74e      	b.n	405ddc <__adddf3+0x8c>
  405f3e:	ea7f 5c64 	mvns.w	ip, r4, asr #21
  405f42:	bf18      	it	ne
  405f44:	ea7f 5c65 	mvnsne.w	ip, r5, asr #21
  405f48:	d029      	beq.n	405f9e <__adddf3+0x24e>
  405f4a:	ea94 0f05 	teq	r4, r5
  405f4e:	bf08      	it	eq
  405f50:	ea90 0f02 	teqeq	r0, r2
  405f54:	d005      	beq.n	405f62 <__adddf3+0x212>
  405f56:	ea54 0c00 	orrs.w	ip, r4, r0
  405f5a:	bf04      	itt	eq
  405f5c:	4619      	moveq	r1, r3
  405f5e:	4610      	moveq	r0, r2
  405f60:	bd30      	pop	{r4, r5, pc}
  405f62:	ea91 0f03 	teq	r1, r3
  405f66:	bf1e      	ittt	ne
  405f68:	2100      	movne	r1, #0
  405f6a:	2000      	movne	r0, #0
  405f6c:	bd30      	popne	{r4, r5, pc}
  405f6e:	ea5f 5c54 	movs.w	ip, r4, lsr #21
  405f72:	d105      	bne.n	405f80 <__adddf3+0x230>
  405f74:	0040      	lsls	r0, r0, #1
  405f76:	4149      	adcs	r1, r1
  405f78:	bf28      	it	cs
  405f7a:	f041 4100 	orrcs.w	r1, r1, #2147483648	; 0x80000000
  405f7e:	bd30      	pop	{r4, r5, pc}
  405f80:	f514 0480 	adds.w	r4, r4, #4194304	; 0x400000
  405f84:	bf3c      	itt	cc
  405f86:	f501 1180 	addcc.w	r1, r1, #1048576	; 0x100000
  405f8a:	bd30      	popcc	{r4, r5, pc}
  405f8c:	f001 4500 	and.w	r5, r1, #2147483648	; 0x80000000
  405f90:	f045 41fe 	orr.w	r1, r5, #2130706432	; 0x7f000000
  405f94:	f441 0170 	orr.w	r1, r1, #15728640	; 0xf00000
  405f98:	f04f 0000 	mov.w	r0, #0
  405f9c:	bd30      	pop	{r4, r5, pc}
  405f9e:	ea7f 5c64 	mvns.w	ip, r4, asr #21
  405fa2:	bf1a      	itte	ne
  405fa4:	4619      	movne	r1, r3
  405fa6:	4610      	movne	r0, r2
  405fa8:	ea7f 5c65 	mvnseq.w	ip, r5, asr #21
  405fac:	bf1c      	itt	ne
  405fae:	460b      	movne	r3, r1
  405fb0:	4602      	movne	r2, r0
  405fb2:	ea50 3401 	orrs.w	r4, r0, r1, lsl #12
  405fb6:	bf06      	itte	eq
  405fb8:	ea52 3503 	orrseq.w	r5, r2, r3, lsl #12
  405fbc:	ea91 0f03 	teqeq	r1, r3
  405fc0:	f441 2100 	orrne.w	r1, r1, #524288	; 0x80000
  405fc4:	bd30      	pop	{r4, r5, pc}
  405fc6:	bf00      	nop

00405fc8 <__aeabi_ui2d>:
  405fc8:	f090 0f00 	teq	r0, #0
  405fcc:	bf04      	itt	eq
  405fce:	2100      	moveq	r1, #0
  405fd0:	4770      	bxeq	lr
  405fd2:	b530      	push	{r4, r5, lr}
  405fd4:	f44f 6480 	mov.w	r4, #1024	; 0x400
  405fd8:	f104 0432 	add.w	r4, r4, #50	; 0x32
  405fdc:	f04f 0500 	mov.w	r5, #0
  405fe0:	f04f 0100 	mov.w	r1, #0
  405fe4:	e750      	b.n	405e88 <__adddf3+0x138>
  405fe6:	bf00      	nop

00405fe8 <__aeabi_i2d>:
  405fe8:	f090 0f00 	teq	r0, #0
  405fec:	bf04      	itt	eq
  405fee:	2100      	moveq	r1, #0
  405ff0:	4770      	bxeq	lr
  405ff2:	b530      	push	{r4, r5, lr}
  405ff4:	f44f 6480 	mov.w	r4, #1024	; 0x400
  405ff8:	f104 0432 	add.w	r4, r4, #50	; 0x32
  405ffc:	f010 4500 	ands.w	r5, r0, #2147483648	; 0x80000000
  406000:	bf48      	it	mi
  406002:	4240      	negmi	r0, r0
  406004:	f04f 0100 	mov.w	r1, #0
  406008:	e73e      	b.n	405e88 <__adddf3+0x138>
  40600a:	bf00      	nop

0040600c <__aeabi_f2d>:
  40600c:	0042      	lsls	r2, r0, #1
  40600e:	ea4f 01e2 	mov.w	r1, r2, asr #3
  406012:	ea4f 0131 	mov.w	r1, r1, rrx
  406016:	ea4f 7002 	mov.w	r0, r2, lsl #28
  40601a:	bf1f      	itttt	ne
  40601c:	f012 437f 	andsne.w	r3, r2, #4278190080	; 0xff000000
  406020:	f093 4f7f 	teqne	r3, #4278190080	; 0xff000000
  406024:	f081 5160 	eorne.w	r1, r1, #939524096	; 0x38000000
  406028:	4770      	bxne	lr
  40602a:	f092 0f00 	teq	r2, #0
  40602e:	bf14      	ite	ne
  406030:	f093 4f7f 	teqne	r3, #4278190080	; 0xff000000
  406034:	4770      	bxeq	lr
  406036:	b530      	push	{r4, r5, lr}
  406038:	f44f 7460 	mov.w	r4, #896	; 0x380
  40603c:	f001 4500 	and.w	r5, r1, #2147483648	; 0x80000000
  406040:	f021 4100 	bic.w	r1, r1, #2147483648	; 0x80000000
  406044:	e720      	b.n	405e88 <__adddf3+0x138>
  406046:	bf00      	nop

00406048 <__aeabi_ul2d>:
  406048:	ea50 0201 	orrs.w	r2, r0, r1
  40604c:	bf08      	it	eq
  40604e:	4770      	bxeq	lr
  406050:	b530      	push	{r4, r5, lr}
  406052:	f04f 0500 	mov.w	r5, #0
  406056:	e00a      	b.n	40606e <__aeabi_l2d+0x16>

00406058 <__aeabi_l2d>:
  406058:	ea50 0201 	orrs.w	r2, r0, r1
  40605c:	bf08      	it	eq
  40605e:	4770      	bxeq	lr
  406060:	b530      	push	{r4, r5, lr}
  406062:	f011 4500 	ands.w	r5, r1, #2147483648	; 0x80000000
  406066:	d502      	bpl.n	40606e <__aeabi_l2d+0x16>
  406068:	4240      	negs	r0, r0
  40606a:	eb61 0141 	sbc.w	r1, r1, r1, lsl #1
  40606e:	f44f 6480 	mov.w	r4, #1024	; 0x400
  406072:	f104 0432 	add.w	r4, r4, #50	; 0x32
  406076:	ea5f 5c91 	movs.w	ip, r1, lsr #22
  40607a:	f43f aedc 	beq.w	405e36 <__adddf3+0xe6>
  40607e:	f04f 0203 	mov.w	r2, #3
  406082:	ea5f 0cdc 	movs.w	ip, ip, lsr #3
  406086:	bf18      	it	ne
  406088:	3203      	addne	r2, #3
  40608a:	ea5f 0cdc 	movs.w	ip, ip, lsr #3
  40608e:	bf18      	it	ne
  406090:	3203      	addne	r2, #3
  406092:	eb02 02dc 	add.w	r2, r2, ip, lsr #3
  406096:	f1c2 0320 	rsb	r3, r2, #32
  40609a:	fa00 fc03 	lsl.w	ip, r0, r3
  40609e:	fa20 f002 	lsr.w	r0, r0, r2
  4060a2:	fa01 fe03 	lsl.w	lr, r1, r3
  4060a6:	ea40 000e 	orr.w	r0, r0, lr
  4060aa:	fa21 f102 	lsr.w	r1, r1, r2
  4060ae:	4414      	add	r4, r2
  4060b0:	e6c1      	b.n	405e36 <__adddf3+0xe6>
  4060b2:	bf00      	nop

004060b4 <__aeabi_dmul>:
  4060b4:	b570      	push	{r4, r5, r6, lr}
  4060b6:	f04f 0cff 	mov.w	ip, #255	; 0xff
  4060ba:	f44c 6ce0 	orr.w	ip, ip, #1792	; 0x700
  4060be:	ea1c 5411 	ands.w	r4, ip, r1, lsr #20
  4060c2:	bf1d      	ittte	ne
  4060c4:	ea1c 5513 	andsne.w	r5, ip, r3, lsr #20
  4060c8:	ea94 0f0c 	teqne	r4, ip
  4060cc:	ea95 0f0c 	teqne	r5, ip
  4060d0:	f000 f8de 	bleq	406290 <__aeabi_dmul+0x1dc>
  4060d4:	442c      	add	r4, r5
  4060d6:	ea81 0603 	eor.w	r6, r1, r3
  4060da:	ea21 514c 	bic.w	r1, r1, ip, lsl #21
  4060de:	ea23 534c 	bic.w	r3, r3, ip, lsl #21
  4060e2:	ea50 3501 	orrs.w	r5, r0, r1, lsl #12
  4060e6:	bf18      	it	ne
  4060e8:	ea52 3503 	orrsne.w	r5, r2, r3, lsl #12
  4060ec:	f441 1180 	orr.w	r1, r1, #1048576	; 0x100000
  4060f0:	f443 1380 	orr.w	r3, r3, #1048576	; 0x100000
  4060f4:	d038      	beq.n	406168 <__aeabi_dmul+0xb4>
  4060f6:	fba0 ce02 	umull	ip, lr, r0, r2
  4060fa:	f04f 0500 	mov.w	r5, #0
  4060fe:	fbe1 e502 	umlal	lr, r5, r1, r2
  406102:	f006 4200 	and.w	r2, r6, #2147483648	; 0x80000000
  406106:	fbe0 e503 	umlal	lr, r5, r0, r3
  40610a:	f04f 0600 	mov.w	r6, #0
  40610e:	fbe1 5603 	umlal	r5, r6, r1, r3
  406112:	f09c 0f00 	teq	ip, #0
  406116:	bf18      	it	ne
  406118:	f04e 0e01 	orrne.w	lr, lr, #1
  40611c:	f1a4 04ff 	sub.w	r4, r4, #255	; 0xff
  406120:	f5b6 7f00 	cmp.w	r6, #512	; 0x200
  406124:	f564 7440 	sbc.w	r4, r4, #768	; 0x300
  406128:	d204      	bcs.n	406134 <__aeabi_dmul+0x80>
  40612a:	ea5f 0e4e 	movs.w	lr, lr, lsl #1
  40612e:	416d      	adcs	r5, r5
  406130:	eb46 0606 	adc.w	r6, r6, r6
  406134:	ea42 21c6 	orr.w	r1, r2, r6, lsl #11
  406138:	ea41 5155 	orr.w	r1, r1, r5, lsr #21
  40613c:	ea4f 20c5 	mov.w	r0, r5, lsl #11
  406140:	ea40 505e 	orr.w	r0, r0, lr, lsr #21
  406144:	ea4f 2ece 	mov.w	lr, lr, lsl #11
  406148:	f1b4 0cfd 	subs.w	ip, r4, #253	; 0xfd
  40614c:	bf88      	it	hi
  40614e:	f5bc 6fe0 	cmphi.w	ip, #1792	; 0x700
  406152:	d81e      	bhi.n	406192 <__aeabi_dmul+0xde>
  406154:	f1be 4f00 	cmp.w	lr, #2147483648	; 0x80000000
  406158:	bf08      	it	eq
  40615a:	ea5f 0e50 	movseq.w	lr, r0, lsr #1
  40615e:	f150 0000 	adcs.w	r0, r0, #0
  406162:	eb41 5104 	adc.w	r1, r1, r4, lsl #20
  406166:	bd70      	pop	{r4, r5, r6, pc}
  406168:	f006 4600 	and.w	r6, r6, #2147483648	; 0x80000000
  40616c:	ea46 0101 	orr.w	r1, r6, r1
  406170:	ea40 0002 	orr.w	r0, r0, r2
  406174:	ea81 0103 	eor.w	r1, r1, r3
  406178:	ebb4 045c 	subs.w	r4, r4, ip, lsr #1
  40617c:	bfc2      	ittt	gt
  40617e:	ebd4 050c 	rsbsgt	r5, r4, ip
  406182:	ea41 5104 	orrgt.w	r1, r1, r4, lsl #20
  406186:	bd70      	popgt	{r4, r5, r6, pc}
  406188:	f441 1180 	orr.w	r1, r1, #1048576	; 0x100000
  40618c:	f04f 0e00 	mov.w	lr, #0
  406190:	3c01      	subs	r4, #1
  406192:	f300 80ab 	bgt.w	4062ec <__aeabi_dmul+0x238>
  406196:	f114 0f36 	cmn.w	r4, #54	; 0x36
  40619a:	bfde      	ittt	le
  40619c:	2000      	movle	r0, #0
  40619e:	f001 4100 	andle.w	r1, r1, #2147483648	; 0x80000000
  4061a2:	bd70      	pople	{r4, r5, r6, pc}
  4061a4:	f1c4 0400 	rsb	r4, r4, #0
  4061a8:	3c20      	subs	r4, #32
  4061aa:	da35      	bge.n	406218 <__aeabi_dmul+0x164>
  4061ac:	340c      	adds	r4, #12
  4061ae:	dc1b      	bgt.n	4061e8 <__aeabi_dmul+0x134>
  4061b0:	f104 0414 	add.w	r4, r4, #20
  4061b4:	f1c4 0520 	rsb	r5, r4, #32
  4061b8:	fa00 f305 	lsl.w	r3, r0, r5
  4061bc:	fa20 f004 	lsr.w	r0, r0, r4
  4061c0:	fa01 f205 	lsl.w	r2, r1, r5
  4061c4:	ea40 0002 	orr.w	r0, r0, r2
  4061c8:	f001 4200 	and.w	r2, r1, #2147483648	; 0x80000000
  4061cc:	f021 4100 	bic.w	r1, r1, #2147483648	; 0x80000000
  4061d0:	eb10 70d3 	adds.w	r0, r0, r3, lsr #31
  4061d4:	fa21 f604 	lsr.w	r6, r1, r4
  4061d8:	eb42 0106 	adc.w	r1, r2, r6
  4061dc:	ea5e 0e43 	orrs.w	lr, lr, r3, lsl #1
  4061e0:	bf08      	it	eq
  4061e2:	ea20 70d3 	biceq.w	r0, r0, r3, lsr #31
  4061e6:	bd70      	pop	{r4, r5, r6, pc}
  4061e8:	f1c4 040c 	rsb	r4, r4, #12
  4061ec:	f1c4 0520 	rsb	r5, r4, #32
  4061f0:	fa00 f304 	lsl.w	r3, r0, r4
  4061f4:	fa20 f005 	lsr.w	r0, r0, r5
  4061f8:	fa01 f204 	lsl.w	r2, r1, r4
  4061fc:	ea40 0002 	orr.w	r0, r0, r2
  406200:	f001 4100 	and.w	r1, r1, #2147483648	; 0x80000000
  406204:	eb10 70d3 	adds.w	r0, r0, r3, lsr #31
  406208:	f141 0100 	adc.w	r1, r1, #0
  40620c:	ea5e 0e43 	orrs.w	lr, lr, r3, lsl #1
  406210:	bf08      	it	eq
  406212:	ea20 70d3 	biceq.w	r0, r0, r3, lsr #31
  406216:	bd70      	pop	{r4, r5, r6, pc}
  406218:	f1c4 0520 	rsb	r5, r4, #32
  40621c:	fa00 f205 	lsl.w	r2, r0, r5
  406220:	ea4e 0e02 	orr.w	lr, lr, r2
  406224:	fa20 f304 	lsr.w	r3, r0, r4
  406228:	fa01 f205 	lsl.w	r2, r1, r5
  40622c:	ea43 0302 	orr.w	r3, r3, r2
  406230:	fa21 f004 	lsr.w	r0, r1, r4
  406234:	f001 4100 	and.w	r1, r1, #2147483648	; 0x80000000
  406238:	fa21 f204 	lsr.w	r2, r1, r4
  40623c:	ea20 0002 	bic.w	r0, r0, r2
  406240:	eb00 70d3 	add.w	r0, r0, r3, lsr #31
  406244:	ea5e 0e43 	orrs.w	lr, lr, r3, lsl #1
  406248:	bf08      	it	eq
  40624a:	ea20 70d3 	biceq.w	r0, r0, r3, lsr #31
  40624e:	bd70      	pop	{r4, r5, r6, pc}
  406250:	f094 0f00 	teq	r4, #0
  406254:	d10f      	bne.n	406276 <__aeabi_dmul+0x1c2>
  406256:	f001 4600 	and.w	r6, r1, #2147483648	; 0x80000000
  40625a:	0040      	lsls	r0, r0, #1
  40625c:	eb41 0101 	adc.w	r1, r1, r1
  406260:	f411 1f80 	tst.w	r1, #1048576	; 0x100000
  406264:	bf08      	it	eq
  406266:	3c01      	subeq	r4, #1
  406268:	d0f7      	beq.n	40625a <__aeabi_dmul+0x1a6>
  40626a:	ea41 0106 	orr.w	r1, r1, r6
  40626e:	f095 0f00 	teq	r5, #0
  406272:	bf18      	it	ne
  406274:	4770      	bxne	lr
  406276:	f003 4600 	and.w	r6, r3, #2147483648	; 0x80000000
  40627a:	0052      	lsls	r2, r2, #1
  40627c:	eb43 0303 	adc.w	r3, r3, r3
  406280:	f413 1f80 	tst.w	r3, #1048576	; 0x100000
  406284:	bf08      	it	eq
  406286:	3d01      	subeq	r5, #1
  406288:	d0f7      	beq.n	40627a <__aeabi_dmul+0x1c6>
  40628a:	ea43 0306 	orr.w	r3, r3, r6
  40628e:	4770      	bx	lr
  406290:	ea94 0f0c 	teq	r4, ip
  406294:	ea0c 5513 	and.w	r5, ip, r3, lsr #20
  406298:	bf18      	it	ne
  40629a:	ea95 0f0c 	teqne	r5, ip
  40629e:	d00c      	beq.n	4062ba <__aeabi_dmul+0x206>
  4062a0:	ea50 0641 	orrs.w	r6, r0, r1, lsl #1
  4062a4:	bf18      	it	ne
  4062a6:	ea52 0643 	orrsne.w	r6, r2, r3, lsl #1
  4062aa:	d1d1      	bne.n	406250 <__aeabi_dmul+0x19c>
  4062ac:	ea81 0103 	eor.w	r1, r1, r3
  4062b0:	f001 4100 	and.w	r1, r1, #2147483648	; 0x80000000
  4062b4:	f04f 0000 	mov.w	r0, #0
  4062b8:	bd70      	pop	{r4, r5, r6, pc}
  4062ba:	ea50 0641 	orrs.w	r6, r0, r1, lsl #1
  4062be:	bf06      	itte	eq
  4062c0:	4610      	moveq	r0, r2
  4062c2:	4619      	moveq	r1, r3
  4062c4:	ea52 0643 	orrsne.w	r6, r2, r3, lsl #1
  4062c8:	d019      	beq.n	4062fe <__aeabi_dmul+0x24a>
  4062ca:	ea94 0f0c 	teq	r4, ip
  4062ce:	d102      	bne.n	4062d6 <__aeabi_dmul+0x222>
  4062d0:	ea50 3601 	orrs.w	r6, r0, r1, lsl #12
  4062d4:	d113      	bne.n	4062fe <__aeabi_dmul+0x24a>
  4062d6:	ea95 0f0c 	teq	r5, ip
  4062da:	d105      	bne.n	4062e8 <__aeabi_dmul+0x234>
  4062dc:	ea52 3603 	orrs.w	r6, r2, r3, lsl #12
  4062e0:	bf1c      	itt	ne
  4062e2:	4610      	movne	r0, r2
  4062e4:	4619      	movne	r1, r3
  4062e6:	d10a      	bne.n	4062fe <__aeabi_dmul+0x24a>
  4062e8:	ea81 0103 	eor.w	r1, r1, r3
  4062ec:	f001 4100 	and.w	r1, r1, #2147483648	; 0x80000000
  4062f0:	f041 41fe 	orr.w	r1, r1, #2130706432	; 0x7f000000
  4062f4:	f441 0170 	orr.w	r1, r1, #15728640	; 0xf00000
  4062f8:	f04f 0000 	mov.w	r0, #0
  4062fc:	bd70      	pop	{r4, r5, r6, pc}
  4062fe:	f041 41fe 	orr.w	r1, r1, #2130706432	; 0x7f000000
  406302:	f441 0178 	orr.w	r1, r1, #16252928	; 0xf80000
  406306:	bd70      	pop	{r4, r5, r6, pc}

00406308 <__aeabi_ddiv>:
  406308:	b570      	push	{r4, r5, r6, lr}
  40630a:	f04f 0cff 	mov.w	ip, #255	; 0xff
  40630e:	f44c 6ce0 	orr.w	ip, ip, #1792	; 0x700
  406312:	ea1c 5411 	ands.w	r4, ip, r1, lsr #20
  406316:	bf1d      	ittte	ne
  406318:	ea1c 5513 	andsne.w	r5, ip, r3, lsr #20
  40631c:	ea94 0f0c 	teqne	r4, ip
  406320:	ea95 0f0c 	teqne	r5, ip
  406324:	f000 f8a7 	bleq	406476 <__aeabi_ddiv+0x16e>
  406328:	eba4 0405 	sub.w	r4, r4, r5
  40632c:	ea81 0e03 	eor.w	lr, r1, r3
  406330:	ea52 3503 	orrs.w	r5, r2, r3, lsl #12
  406334:	ea4f 3101 	mov.w	r1, r1, lsl #12
  406338:	f000 8088 	beq.w	40644c <__aeabi_ddiv+0x144>
  40633c:	ea4f 3303 	mov.w	r3, r3, lsl #12
  406340:	f04f 5580 	mov.w	r5, #268435456	; 0x10000000
  406344:	ea45 1313 	orr.w	r3, r5, r3, lsr #4
  406348:	ea43 6312 	orr.w	r3, r3, r2, lsr #24
  40634c:	ea4f 2202 	mov.w	r2, r2, lsl #8
  406350:	ea45 1511 	orr.w	r5, r5, r1, lsr #4
  406354:	ea45 6510 	orr.w	r5, r5, r0, lsr #24
  406358:	ea4f 2600 	mov.w	r6, r0, lsl #8
  40635c:	f00e 4100 	and.w	r1, lr, #2147483648	; 0x80000000
  406360:	429d      	cmp	r5, r3
  406362:	bf08      	it	eq
  406364:	4296      	cmpeq	r6, r2
  406366:	f144 04fd 	adc.w	r4, r4, #253	; 0xfd
  40636a:	f504 7440 	add.w	r4, r4, #768	; 0x300
  40636e:	d202      	bcs.n	406376 <__aeabi_ddiv+0x6e>
  406370:	085b      	lsrs	r3, r3, #1
  406372:	ea4f 0232 	mov.w	r2, r2, rrx
  406376:	1ab6      	subs	r6, r6, r2
  406378:	eb65 0503 	sbc.w	r5, r5, r3
  40637c:	085b      	lsrs	r3, r3, #1
  40637e:	ea4f 0232 	mov.w	r2, r2, rrx
  406382:	f44f 1080 	mov.w	r0, #1048576	; 0x100000
  406386:	f44f 2c00 	mov.w	ip, #524288	; 0x80000
  40638a:	ebb6 0e02 	subs.w	lr, r6, r2
  40638e:	eb75 0e03 	sbcs.w	lr, r5, r3
  406392:	bf22      	ittt	cs
  406394:	1ab6      	subcs	r6, r6, r2
  406396:	4675      	movcs	r5, lr
  406398:	ea40 000c 	orrcs.w	r0, r0, ip
  40639c:	085b      	lsrs	r3, r3, #1
  40639e:	ea4f 0232 	mov.w	r2, r2, rrx
  4063a2:	ebb6 0e02 	subs.w	lr, r6, r2
  4063a6:	eb75 0e03 	sbcs.w	lr, r5, r3
  4063aa:	bf22      	ittt	cs
  4063ac:	1ab6      	subcs	r6, r6, r2
  4063ae:	4675      	movcs	r5, lr
  4063b0:	ea40 005c 	orrcs.w	r0, r0, ip, lsr #1
  4063b4:	085b      	lsrs	r3, r3, #1
  4063b6:	ea4f 0232 	mov.w	r2, r2, rrx
  4063ba:	ebb6 0e02 	subs.w	lr, r6, r2
  4063be:	eb75 0e03 	sbcs.w	lr, r5, r3
  4063c2:	bf22      	ittt	cs
  4063c4:	1ab6      	subcs	r6, r6, r2
  4063c6:	4675      	movcs	r5, lr
  4063c8:	ea40 009c 	orrcs.w	r0, r0, ip, lsr #2
  4063cc:	085b      	lsrs	r3, r3, #1
  4063ce:	ea4f 0232 	mov.w	r2, r2, rrx
  4063d2:	ebb6 0e02 	subs.w	lr, r6, r2
  4063d6:	eb75 0e03 	sbcs.w	lr, r5, r3
  4063da:	bf22      	ittt	cs
  4063dc:	1ab6      	subcs	r6, r6, r2
  4063de:	4675      	movcs	r5, lr
  4063e0:	ea40 00dc 	orrcs.w	r0, r0, ip, lsr #3
  4063e4:	ea55 0e06 	orrs.w	lr, r5, r6
  4063e8:	d018      	beq.n	40641c <__aeabi_ddiv+0x114>
  4063ea:	ea4f 1505 	mov.w	r5, r5, lsl #4
  4063ee:	ea45 7516 	orr.w	r5, r5, r6, lsr #28
  4063f2:	ea4f 1606 	mov.w	r6, r6, lsl #4
  4063f6:	ea4f 03c3 	mov.w	r3, r3, lsl #3
  4063fa:	ea43 7352 	orr.w	r3, r3, r2, lsr #29
  4063fe:	ea4f 02c2 	mov.w	r2, r2, lsl #3
  406402:	ea5f 1c1c 	movs.w	ip, ip, lsr #4
  406406:	d1c0      	bne.n	40638a <__aeabi_ddiv+0x82>
  406408:	f411 1f80 	tst.w	r1, #1048576	; 0x100000
  40640c:	d10b      	bne.n	406426 <__aeabi_ddiv+0x11e>
  40640e:	ea41 0100 	orr.w	r1, r1, r0
  406412:	f04f 0000 	mov.w	r0, #0
  406416:	f04f 4c00 	mov.w	ip, #2147483648	; 0x80000000
  40641a:	e7b6      	b.n	40638a <__aeabi_ddiv+0x82>
  40641c:	f411 1f80 	tst.w	r1, #1048576	; 0x100000
  406420:	bf04      	itt	eq
  406422:	4301      	orreq	r1, r0
  406424:	2000      	moveq	r0, #0
  406426:	f1b4 0cfd 	subs.w	ip, r4, #253	; 0xfd
  40642a:	bf88      	it	hi
  40642c:	f5bc 6fe0 	cmphi.w	ip, #1792	; 0x700
  406430:	f63f aeaf 	bhi.w	406192 <__aeabi_dmul+0xde>
  406434:	ebb5 0c03 	subs.w	ip, r5, r3
  406438:	bf04      	itt	eq
  40643a:	ebb6 0c02 	subseq.w	ip, r6, r2
  40643e:	ea5f 0c50 	movseq.w	ip, r0, lsr #1
  406442:	f150 0000 	adcs.w	r0, r0, #0
  406446:	eb41 5104 	adc.w	r1, r1, r4, lsl #20
  40644a:	bd70      	pop	{r4, r5, r6, pc}
  40644c:	f00e 4e00 	and.w	lr, lr, #2147483648	; 0x80000000
  406450:	ea4e 3111 	orr.w	r1, lr, r1, lsr #12
  406454:	eb14 045c 	adds.w	r4, r4, ip, lsr #1
  406458:	bfc2      	ittt	gt
  40645a:	ebd4 050c 	rsbsgt	r5, r4, ip
  40645e:	ea41 5104 	orrgt.w	r1, r1, r4, lsl #20
  406462:	bd70      	popgt	{r4, r5, r6, pc}
  406464:	f441 1180 	orr.w	r1, r1, #1048576	; 0x100000
  406468:	f04f 0e00 	mov.w	lr, #0
  40646c:	3c01      	subs	r4, #1
  40646e:	e690      	b.n	406192 <__aeabi_dmul+0xde>
  406470:	ea45 0e06 	orr.w	lr, r5, r6
  406474:	e68d      	b.n	406192 <__aeabi_dmul+0xde>
  406476:	ea0c 5513 	and.w	r5, ip, r3, lsr #20
  40647a:	ea94 0f0c 	teq	r4, ip
  40647e:	bf08      	it	eq
  406480:	ea95 0f0c 	teqeq	r5, ip
  406484:	f43f af3b 	beq.w	4062fe <__aeabi_dmul+0x24a>
  406488:	ea94 0f0c 	teq	r4, ip
  40648c:	d10a      	bne.n	4064a4 <__aeabi_ddiv+0x19c>
  40648e:	ea50 3401 	orrs.w	r4, r0, r1, lsl #12
  406492:	f47f af34 	bne.w	4062fe <__aeabi_dmul+0x24a>
  406496:	ea95 0f0c 	teq	r5, ip
  40649a:	f47f af25 	bne.w	4062e8 <__aeabi_dmul+0x234>
  40649e:	4610      	mov	r0, r2
  4064a0:	4619      	mov	r1, r3
  4064a2:	e72c      	b.n	4062fe <__aeabi_dmul+0x24a>
  4064a4:	ea95 0f0c 	teq	r5, ip
  4064a8:	d106      	bne.n	4064b8 <__aeabi_ddiv+0x1b0>
  4064aa:	ea52 3503 	orrs.w	r5, r2, r3, lsl #12
  4064ae:	f43f aefd 	beq.w	4062ac <__aeabi_dmul+0x1f8>
  4064b2:	4610      	mov	r0, r2
  4064b4:	4619      	mov	r1, r3
  4064b6:	e722      	b.n	4062fe <__aeabi_dmul+0x24a>
  4064b8:	ea50 0641 	orrs.w	r6, r0, r1, lsl #1
  4064bc:	bf18      	it	ne
  4064be:	ea52 0643 	orrsne.w	r6, r2, r3, lsl #1
  4064c2:	f47f aec5 	bne.w	406250 <__aeabi_dmul+0x19c>
  4064c6:	ea50 0441 	orrs.w	r4, r0, r1, lsl #1
  4064ca:	f47f af0d 	bne.w	4062e8 <__aeabi_dmul+0x234>
  4064ce:	ea52 0543 	orrs.w	r5, r2, r3, lsl #1
  4064d2:	f47f aeeb 	bne.w	4062ac <__aeabi_dmul+0x1f8>
  4064d6:	e712      	b.n	4062fe <__aeabi_dmul+0x24a>

004064d8 <__gedf2>:
  4064d8:	f04f 3cff 	mov.w	ip, #4294967295
  4064dc:	e006      	b.n	4064ec <__cmpdf2+0x4>
  4064de:	bf00      	nop

004064e0 <__ledf2>:
  4064e0:	f04f 0c01 	mov.w	ip, #1
  4064e4:	e002      	b.n	4064ec <__cmpdf2+0x4>
  4064e6:	bf00      	nop

004064e8 <__cmpdf2>:
  4064e8:	f04f 0c01 	mov.w	ip, #1
  4064ec:	f84d cd04 	str.w	ip, [sp, #-4]!
  4064f0:	ea4f 0c41 	mov.w	ip, r1, lsl #1
  4064f4:	ea7f 5c6c 	mvns.w	ip, ip, asr #21
  4064f8:	ea4f 0c43 	mov.w	ip, r3, lsl #1
  4064fc:	bf18      	it	ne
  4064fe:	ea7f 5c6c 	mvnsne.w	ip, ip, asr #21
  406502:	d01b      	beq.n	40653c <__cmpdf2+0x54>
  406504:	b001      	add	sp, #4
  406506:	ea50 0c41 	orrs.w	ip, r0, r1, lsl #1
  40650a:	bf0c      	ite	eq
  40650c:	ea52 0c43 	orrseq.w	ip, r2, r3, lsl #1
  406510:	ea91 0f03 	teqne	r1, r3
  406514:	bf02      	ittt	eq
  406516:	ea90 0f02 	teqeq	r0, r2
  40651a:	2000      	moveq	r0, #0
  40651c:	4770      	bxeq	lr
  40651e:	f110 0f00 	cmn.w	r0, #0
  406522:	ea91 0f03 	teq	r1, r3
  406526:	bf58      	it	pl
  406528:	4299      	cmppl	r1, r3
  40652a:	bf08      	it	eq
  40652c:	4290      	cmpeq	r0, r2
  40652e:	bf2c      	ite	cs
  406530:	17d8      	asrcs	r0, r3, #31
  406532:	ea6f 70e3 	mvncc.w	r0, r3, asr #31
  406536:	f040 0001 	orr.w	r0, r0, #1
  40653a:	4770      	bx	lr
  40653c:	ea4f 0c41 	mov.w	ip, r1, lsl #1
  406540:	ea7f 5c6c 	mvns.w	ip, ip, asr #21
  406544:	d102      	bne.n	40654c <__cmpdf2+0x64>
  406546:	ea50 3c01 	orrs.w	ip, r0, r1, lsl #12
  40654a:	d107      	bne.n	40655c <__cmpdf2+0x74>
  40654c:	ea4f 0c43 	mov.w	ip, r3, lsl #1
  406550:	ea7f 5c6c 	mvns.w	ip, ip, asr #21
  406554:	d1d6      	bne.n	406504 <__cmpdf2+0x1c>
  406556:	ea52 3c03 	orrs.w	ip, r2, r3, lsl #12
  40655a:	d0d3      	beq.n	406504 <__cmpdf2+0x1c>
  40655c:	f85d 0b04 	ldr.w	r0, [sp], #4
  406560:	4770      	bx	lr
  406562:	bf00      	nop

00406564 <__aeabi_cdrcmple>:
  406564:	4684      	mov	ip, r0
  406566:	4610      	mov	r0, r2
  406568:	4662      	mov	r2, ip
  40656a:	468c      	mov	ip, r1
  40656c:	4619      	mov	r1, r3
  40656e:	4663      	mov	r3, ip
  406570:	e000      	b.n	406574 <__aeabi_cdcmpeq>
  406572:	bf00      	nop

00406574 <__aeabi_cdcmpeq>:
  406574:	b501      	push	{r0, lr}
  406576:	f7ff ffb7 	bl	4064e8 <__cmpdf2>
  40657a:	2800      	cmp	r0, #0
  40657c:	bf48      	it	mi
  40657e:	f110 0f00 	cmnmi.w	r0, #0
  406582:	bd01      	pop	{r0, pc}

00406584 <__aeabi_dcmpeq>:
  406584:	f84d ed08 	str.w	lr, [sp, #-8]!
  406588:	f7ff fff4 	bl	406574 <__aeabi_cdcmpeq>
  40658c:	bf0c      	ite	eq
  40658e:	2001      	moveq	r0, #1
  406590:	2000      	movne	r0, #0
  406592:	f85d fb08 	ldr.w	pc, [sp], #8
  406596:	bf00      	nop

00406598 <__aeabi_dcmplt>:
  406598:	f84d ed08 	str.w	lr, [sp, #-8]!
  40659c:	f7ff ffea 	bl	406574 <__aeabi_cdcmpeq>
  4065a0:	bf34      	ite	cc
  4065a2:	2001      	movcc	r0, #1
  4065a4:	2000      	movcs	r0, #0
  4065a6:	f85d fb08 	ldr.w	pc, [sp], #8
  4065aa:	bf00      	nop

004065ac <__aeabi_dcmple>:
  4065ac:	f84d ed08 	str.w	lr, [sp, #-8]!
  4065b0:	f7ff ffe0 	bl	406574 <__aeabi_cdcmpeq>
  4065b4:	bf94      	ite	ls
  4065b6:	2001      	movls	r0, #1
  4065b8:	2000      	movhi	r0, #0
  4065ba:	f85d fb08 	ldr.w	pc, [sp], #8
  4065be:	bf00      	nop

004065c0 <__aeabi_dcmpge>:
  4065c0:	f84d ed08 	str.w	lr, [sp, #-8]!
  4065c4:	f7ff ffce 	bl	406564 <__aeabi_cdrcmple>
  4065c8:	bf94      	ite	ls
  4065ca:	2001      	movls	r0, #1
  4065cc:	2000      	movhi	r0, #0
  4065ce:	f85d fb08 	ldr.w	pc, [sp], #8
  4065d2:	bf00      	nop

004065d4 <__aeabi_dcmpgt>:
  4065d4:	f84d ed08 	str.w	lr, [sp, #-8]!
  4065d8:	f7ff ffc4 	bl	406564 <__aeabi_cdrcmple>
  4065dc:	bf34      	ite	cc
  4065de:	2001      	movcc	r0, #1
  4065e0:	2000      	movcs	r0, #0
  4065e2:	f85d fb08 	ldr.w	pc, [sp], #8
  4065e6:	bf00      	nop

004065e8 <__aeabi_dcmpun>:
  4065e8:	ea4f 0c41 	mov.w	ip, r1, lsl #1
  4065ec:	ea7f 5c6c 	mvns.w	ip, ip, asr #21
  4065f0:	d102      	bne.n	4065f8 <__aeabi_dcmpun+0x10>
  4065f2:	ea50 3c01 	orrs.w	ip, r0, r1, lsl #12
  4065f6:	d10a      	bne.n	40660e <__aeabi_dcmpun+0x26>
  4065f8:	ea4f 0c43 	mov.w	ip, r3, lsl #1
  4065fc:	ea7f 5c6c 	mvns.w	ip, ip, asr #21
  406600:	d102      	bne.n	406608 <__aeabi_dcmpun+0x20>
  406602:	ea52 3c03 	orrs.w	ip, r2, r3, lsl #12
  406606:	d102      	bne.n	40660e <__aeabi_dcmpun+0x26>
  406608:	f04f 0000 	mov.w	r0, #0
  40660c:	4770      	bx	lr
  40660e:	f04f 0001 	mov.w	r0, #1
  406612:	4770      	bx	lr

00406614 <__aeabi_d2iz>:
  406614:	ea4f 0241 	mov.w	r2, r1, lsl #1
  406618:	f512 1200 	adds.w	r2, r2, #2097152	; 0x200000
  40661c:	d215      	bcs.n	40664a <__aeabi_d2iz+0x36>
  40661e:	d511      	bpl.n	406644 <__aeabi_d2iz+0x30>
  406620:	f46f 7378 	mvn.w	r3, #992	; 0x3e0
  406624:	ebb3 5262 	subs.w	r2, r3, r2, asr #21
  406628:	d912      	bls.n	406650 <__aeabi_d2iz+0x3c>
  40662a:	ea4f 23c1 	mov.w	r3, r1, lsl #11
  40662e:	f043 4300 	orr.w	r3, r3, #2147483648	; 0x80000000
  406632:	ea43 5350 	orr.w	r3, r3, r0, lsr #21
  406636:	f011 4f00 	tst.w	r1, #2147483648	; 0x80000000
  40663a:	fa23 f002 	lsr.w	r0, r3, r2
  40663e:	bf18      	it	ne
  406640:	4240      	negne	r0, r0
  406642:	4770      	bx	lr
  406644:	f04f 0000 	mov.w	r0, #0
  406648:	4770      	bx	lr
  40664a:	ea50 3001 	orrs.w	r0, r0, r1, lsl #12
  40664e:	d105      	bne.n	40665c <__aeabi_d2iz+0x48>
  406650:	f011 4000 	ands.w	r0, r1, #2147483648	; 0x80000000
  406654:	bf08      	it	eq
  406656:	f06f 4000 	mvneq.w	r0, #2147483648	; 0x80000000
  40665a:	4770      	bx	lr
  40665c:	f04f 0000 	mov.w	r0, #0
  406660:	4770      	bx	lr
  406662:	bf00      	nop

00406664 <__aeabi_uldivmod>:
  406664:	b953      	cbnz	r3, 40667c <__aeabi_uldivmod+0x18>
  406666:	b94a      	cbnz	r2, 40667c <__aeabi_uldivmod+0x18>
  406668:	2900      	cmp	r1, #0
  40666a:	bf08      	it	eq
  40666c:	2800      	cmpeq	r0, #0
  40666e:	bf1c      	itt	ne
  406670:	f04f 31ff 	movne.w	r1, #4294967295
  406674:	f04f 30ff 	movne.w	r0, #4294967295
  406678:	f000 b97a 	b.w	406970 <__aeabi_idiv0>
  40667c:	f1ad 0c08 	sub.w	ip, sp, #8
  406680:	e96d ce04 	strd	ip, lr, [sp, #-16]!
  406684:	f000 f806 	bl	406694 <__udivmoddi4>
  406688:	f8dd e004 	ldr.w	lr, [sp, #4]
  40668c:	e9dd 2302 	ldrd	r2, r3, [sp, #8]
  406690:	b004      	add	sp, #16
  406692:	4770      	bx	lr

00406694 <__udivmoddi4>:
  406694:	e92d 47f0 	stmdb	sp!, {r4, r5, r6, r7, r8, r9, sl, lr}
  406698:	468c      	mov	ip, r1
  40669a:	460d      	mov	r5, r1
  40669c:	4604      	mov	r4, r0
  40669e:	9e08      	ldr	r6, [sp, #32]
  4066a0:	2b00      	cmp	r3, #0
  4066a2:	d151      	bne.n	406748 <__udivmoddi4+0xb4>
  4066a4:	428a      	cmp	r2, r1
  4066a6:	4617      	mov	r7, r2
  4066a8:	d96d      	bls.n	406786 <__udivmoddi4+0xf2>
  4066aa:	fab2 fe82 	clz	lr, r2
  4066ae:	f1be 0f00 	cmp.w	lr, #0
  4066b2:	d00b      	beq.n	4066cc <__udivmoddi4+0x38>
  4066b4:	f1ce 0c20 	rsb	ip, lr, #32
  4066b8:	fa01 f50e 	lsl.w	r5, r1, lr
  4066bc:	fa20 fc0c 	lsr.w	ip, r0, ip
  4066c0:	fa02 f70e 	lsl.w	r7, r2, lr
  4066c4:	ea4c 0c05 	orr.w	ip, ip, r5
  4066c8:	fa00 f40e 	lsl.w	r4, r0, lr
  4066cc:	ea4f 4a17 	mov.w	sl, r7, lsr #16
  4066d0:	0c25      	lsrs	r5, r4, #16
  4066d2:	fbbc f8fa 	udiv	r8, ip, sl
  4066d6:	fa1f f987 	uxth.w	r9, r7
  4066da:	fb0a cc18 	mls	ip, sl, r8, ip
  4066de:	ea45 450c 	orr.w	r5, r5, ip, lsl #16
  4066e2:	fb08 f309 	mul.w	r3, r8, r9
  4066e6:	42ab      	cmp	r3, r5
  4066e8:	d90a      	bls.n	406700 <__udivmoddi4+0x6c>
  4066ea:	19ed      	adds	r5, r5, r7
  4066ec:	f108 32ff 	add.w	r2, r8, #4294967295
  4066f0:	f080 8123 	bcs.w	40693a <__udivmoddi4+0x2a6>
  4066f4:	42ab      	cmp	r3, r5
  4066f6:	f240 8120 	bls.w	40693a <__udivmoddi4+0x2a6>
  4066fa:	f1a8 0802 	sub.w	r8, r8, #2
  4066fe:	443d      	add	r5, r7
  406700:	1aed      	subs	r5, r5, r3
  406702:	b2a4      	uxth	r4, r4
  406704:	fbb5 f0fa 	udiv	r0, r5, sl
  406708:	fb0a 5510 	mls	r5, sl, r0, r5
  40670c:	ea44 4405 	orr.w	r4, r4, r5, lsl #16
  406710:	fb00 f909 	mul.w	r9, r0, r9
  406714:	45a1      	cmp	r9, r4
  406716:	d909      	bls.n	40672c <__udivmoddi4+0x98>
  406718:	19e4      	adds	r4, r4, r7
  40671a:	f100 33ff 	add.w	r3, r0, #4294967295
  40671e:	f080 810a 	bcs.w	406936 <__udivmoddi4+0x2a2>
  406722:	45a1      	cmp	r9, r4
  406724:	f240 8107 	bls.w	406936 <__udivmoddi4+0x2a2>
  406728:	3802      	subs	r0, #2
  40672a:	443c      	add	r4, r7
  40672c:	eba4 0409 	sub.w	r4, r4, r9
  406730:	ea40 4008 	orr.w	r0, r0, r8, lsl #16
  406734:	2100      	movs	r1, #0
  406736:	2e00      	cmp	r6, #0
  406738:	d061      	beq.n	4067fe <__udivmoddi4+0x16a>
  40673a:	fa24 f40e 	lsr.w	r4, r4, lr
  40673e:	2300      	movs	r3, #0
  406740:	6034      	str	r4, [r6, #0]
  406742:	6073      	str	r3, [r6, #4]
  406744:	e8bd 87f0 	ldmia.w	sp!, {r4, r5, r6, r7, r8, r9, sl, pc}
  406748:	428b      	cmp	r3, r1
  40674a:	d907      	bls.n	40675c <__udivmoddi4+0xc8>
  40674c:	2e00      	cmp	r6, #0
  40674e:	d054      	beq.n	4067fa <__udivmoddi4+0x166>
  406750:	2100      	movs	r1, #0
  406752:	e886 0021 	stmia.w	r6, {r0, r5}
  406756:	4608      	mov	r0, r1
  406758:	e8bd 87f0 	ldmia.w	sp!, {r4, r5, r6, r7, r8, r9, sl, pc}
  40675c:	fab3 f183 	clz	r1, r3
  406760:	2900      	cmp	r1, #0
  406762:	f040 808e 	bne.w	406882 <__udivmoddi4+0x1ee>
  406766:	42ab      	cmp	r3, r5
  406768:	d302      	bcc.n	406770 <__udivmoddi4+0xdc>
  40676a:	4282      	cmp	r2, r0
  40676c:	f200 80fa 	bhi.w	406964 <__udivmoddi4+0x2d0>
  406770:	1a84      	subs	r4, r0, r2
  406772:	eb65 0503 	sbc.w	r5, r5, r3
  406776:	2001      	movs	r0, #1
  406778:	46ac      	mov	ip, r5
  40677a:	2e00      	cmp	r6, #0
  40677c:	d03f      	beq.n	4067fe <__udivmoddi4+0x16a>
  40677e:	e886 1010 	stmia.w	r6, {r4, ip}
  406782:	e8bd 87f0 	ldmia.w	sp!, {r4, r5, r6, r7, r8, r9, sl, pc}
  406786:	b912      	cbnz	r2, 40678e <__udivmoddi4+0xfa>
  406788:	2701      	movs	r7, #1
  40678a:	fbb7 f7f2 	udiv	r7, r7, r2
  40678e:	fab7 fe87 	clz	lr, r7
  406792:	f1be 0f00 	cmp.w	lr, #0
  406796:	d134      	bne.n	406802 <__udivmoddi4+0x16e>
  406798:	1beb      	subs	r3, r5, r7
  40679a:	0c3a      	lsrs	r2, r7, #16
  40679c:	fa1f fc87 	uxth.w	ip, r7
  4067a0:	2101      	movs	r1, #1
  4067a2:	fbb3 f8f2 	udiv	r8, r3, r2
  4067a6:	0c25      	lsrs	r5, r4, #16
  4067a8:	fb02 3318 	mls	r3, r2, r8, r3
  4067ac:	ea45 4503 	orr.w	r5, r5, r3, lsl #16
  4067b0:	fb0c f308 	mul.w	r3, ip, r8
  4067b4:	42ab      	cmp	r3, r5
  4067b6:	d907      	bls.n	4067c8 <__udivmoddi4+0x134>
  4067b8:	19ed      	adds	r5, r5, r7
  4067ba:	f108 30ff 	add.w	r0, r8, #4294967295
  4067be:	d202      	bcs.n	4067c6 <__udivmoddi4+0x132>
  4067c0:	42ab      	cmp	r3, r5
  4067c2:	f200 80d1 	bhi.w	406968 <__udivmoddi4+0x2d4>
  4067c6:	4680      	mov	r8, r0
  4067c8:	1aed      	subs	r5, r5, r3
  4067ca:	b2a3      	uxth	r3, r4
  4067cc:	fbb5 f0f2 	udiv	r0, r5, r2
  4067d0:	fb02 5510 	mls	r5, r2, r0, r5
  4067d4:	ea43 4405 	orr.w	r4, r3, r5, lsl #16
  4067d8:	fb0c fc00 	mul.w	ip, ip, r0
  4067dc:	45a4      	cmp	ip, r4
  4067de:	d907      	bls.n	4067f0 <__udivmoddi4+0x15c>
  4067e0:	19e4      	adds	r4, r4, r7
  4067e2:	f100 33ff 	add.w	r3, r0, #4294967295
  4067e6:	d202      	bcs.n	4067ee <__udivmoddi4+0x15a>
  4067e8:	45a4      	cmp	ip, r4
  4067ea:	f200 80b8 	bhi.w	40695e <__udivmoddi4+0x2ca>
  4067ee:	4618      	mov	r0, r3
  4067f0:	eba4 040c 	sub.w	r4, r4, ip
  4067f4:	ea40 4008 	orr.w	r0, r0, r8, lsl #16
  4067f8:	e79d      	b.n	406736 <__udivmoddi4+0xa2>
  4067fa:	4631      	mov	r1, r6
  4067fc:	4630      	mov	r0, r6
  4067fe:	e8bd 87f0 	ldmia.w	sp!, {r4, r5, r6, r7, r8, r9, sl, pc}
  406802:	f1ce 0420 	rsb	r4, lr, #32
  406806:	fa05 f30e 	lsl.w	r3, r5, lr
  40680a:	fa07 f70e 	lsl.w	r7, r7, lr
  40680e:	fa20 f804 	lsr.w	r8, r0, r4
  406812:	0c3a      	lsrs	r2, r7, #16
  406814:	fa25 f404 	lsr.w	r4, r5, r4
  406818:	ea48 0803 	orr.w	r8, r8, r3
  40681c:	fbb4 f1f2 	udiv	r1, r4, r2
  406820:	ea4f 4518 	mov.w	r5, r8, lsr #16
  406824:	fb02 4411 	mls	r4, r2, r1, r4
  406828:	fa1f fc87 	uxth.w	ip, r7
  40682c:	ea45 4504 	orr.w	r5, r5, r4, lsl #16
  406830:	fb01 f30c 	mul.w	r3, r1, ip
  406834:	42ab      	cmp	r3, r5
  406836:	fa00 f40e 	lsl.w	r4, r0, lr
  40683a:	d909      	bls.n	406850 <__udivmoddi4+0x1bc>
  40683c:	19ed      	adds	r5, r5, r7
  40683e:	f101 30ff 	add.w	r0, r1, #4294967295
  406842:	f080 808a 	bcs.w	40695a <__udivmoddi4+0x2c6>
  406846:	42ab      	cmp	r3, r5
  406848:	f240 8087 	bls.w	40695a <__udivmoddi4+0x2c6>
  40684c:	3902      	subs	r1, #2
  40684e:	443d      	add	r5, r7
  406850:	1aeb      	subs	r3, r5, r3
  406852:	fa1f f588 	uxth.w	r5, r8
  406856:	fbb3 f0f2 	udiv	r0, r3, r2
  40685a:	fb02 3310 	mls	r3, r2, r0, r3
  40685e:	ea45 4503 	orr.w	r5, r5, r3, lsl #16
  406862:	fb00 f30c 	mul.w	r3, r0, ip
  406866:	42ab      	cmp	r3, r5
  406868:	d907      	bls.n	40687a <__udivmoddi4+0x1e6>
  40686a:	19ed      	adds	r5, r5, r7
  40686c:	f100 38ff 	add.w	r8, r0, #4294967295
  406870:	d26f      	bcs.n	406952 <__udivmoddi4+0x2be>
  406872:	42ab      	cmp	r3, r5
  406874:	d96d      	bls.n	406952 <__udivmoddi4+0x2be>
  406876:	3802      	subs	r0, #2
  406878:	443d      	add	r5, r7
  40687a:	1aeb      	subs	r3, r5, r3
  40687c:	ea40 4101 	orr.w	r1, r0, r1, lsl #16
  406880:	e78f      	b.n	4067a2 <__udivmoddi4+0x10e>
  406882:	f1c1 0720 	rsb	r7, r1, #32
  406886:	fa22 f807 	lsr.w	r8, r2, r7
  40688a:	408b      	lsls	r3, r1
  40688c:	fa05 f401 	lsl.w	r4, r5, r1
  406890:	ea48 0303 	orr.w	r3, r8, r3
  406894:	fa20 fe07 	lsr.w	lr, r0, r7
  406898:	ea4f 4c13 	mov.w	ip, r3, lsr #16
  40689c:	40fd      	lsrs	r5, r7
  40689e:	ea4e 0e04 	orr.w	lr, lr, r4
  4068a2:	fbb5 f9fc 	udiv	r9, r5, ip
  4068a6:	ea4f 441e 	mov.w	r4, lr, lsr #16
  4068aa:	fb0c 5519 	mls	r5, ip, r9, r5
  4068ae:	fa1f f883 	uxth.w	r8, r3
  4068b2:	ea44 4505 	orr.w	r5, r4, r5, lsl #16
  4068b6:	fb09 f408 	mul.w	r4, r9, r8
  4068ba:	42ac      	cmp	r4, r5
  4068bc:	fa02 f201 	lsl.w	r2, r2, r1
  4068c0:	fa00 fa01 	lsl.w	sl, r0, r1
  4068c4:	d908      	bls.n	4068d8 <__udivmoddi4+0x244>
  4068c6:	18ed      	adds	r5, r5, r3
  4068c8:	f109 30ff 	add.w	r0, r9, #4294967295
  4068cc:	d243      	bcs.n	406956 <__udivmoddi4+0x2c2>
  4068ce:	42ac      	cmp	r4, r5
  4068d0:	d941      	bls.n	406956 <__udivmoddi4+0x2c2>
  4068d2:	f1a9 0902 	sub.w	r9, r9, #2
  4068d6:	441d      	add	r5, r3
  4068d8:	1b2d      	subs	r5, r5, r4
  4068da:	fa1f fe8e 	uxth.w	lr, lr
  4068de:	fbb5 f0fc 	udiv	r0, r5, ip
  4068e2:	fb0c 5510 	mls	r5, ip, r0, r5
  4068e6:	ea4e 4405 	orr.w	r4, lr, r5, lsl #16
  4068ea:	fb00 f808 	mul.w	r8, r0, r8
  4068ee:	45a0      	cmp	r8, r4
  4068f0:	d907      	bls.n	406902 <__udivmoddi4+0x26e>
  4068f2:	18e4      	adds	r4, r4, r3
  4068f4:	f100 35ff 	add.w	r5, r0, #4294967295
  4068f8:	d229      	bcs.n	40694e <__udivmoddi4+0x2ba>
  4068fa:	45a0      	cmp	r8, r4
  4068fc:	d927      	bls.n	40694e <__udivmoddi4+0x2ba>
  4068fe:	3802      	subs	r0, #2
  406900:	441c      	add	r4, r3
  406902:	ea40 4009 	orr.w	r0, r0, r9, lsl #16
  406906:	eba4 0408 	sub.w	r4, r4, r8
  40690a:	fba0 8902 	umull	r8, r9, r0, r2
  40690e:	454c      	cmp	r4, r9
  406910:	46c6      	mov	lr, r8
  406912:	464d      	mov	r5, r9
  406914:	d315      	bcc.n	406942 <__udivmoddi4+0x2ae>
  406916:	d012      	beq.n	40693e <__udivmoddi4+0x2aa>
  406918:	b156      	cbz	r6, 406930 <__udivmoddi4+0x29c>
  40691a:	ebba 030e 	subs.w	r3, sl, lr
  40691e:	eb64 0405 	sbc.w	r4, r4, r5
  406922:	fa04 f707 	lsl.w	r7, r4, r7
  406926:	40cb      	lsrs	r3, r1
  406928:	431f      	orrs	r7, r3
  40692a:	40cc      	lsrs	r4, r1
  40692c:	6037      	str	r7, [r6, #0]
  40692e:	6074      	str	r4, [r6, #4]
  406930:	2100      	movs	r1, #0
  406932:	e8bd 87f0 	ldmia.w	sp!, {r4, r5, r6, r7, r8, r9, sl, pc}
  406936:	4618      	mov	r0, r3
  406938:	e6f8      	b.n	40672c <__udivmoddi4+0x98>
  40693a:	4690      	mov	r8, r2
  40693c:	e6e0      	b.n	406700 <__udivmoddi4+0x6c>
  40693e:	45c2      	cmp	sl, r8
  406940:	d2ea      	bcs.n	406918 <__udivmoddi4+0x284>
  406942:	ebb8 0e02 	subs.w	lr, r8, r2
  406946:	eb69 0503 	sbc.w	r5, r9, r3
  40694a:	3801      	subs	r0, #1
  40694c:	e7e4      	b.n	406918 <__udivmoddi4+0x284>
  40694e:	4628      	mov	r0, r5
  406950:	e7d7      	b.n	406902 <__udivmoddi4+0x26e>
  406952:	4640      	mov	r0, r8
  406954:	e791      	b.n	40687a <__udivmoddi4+0x1e6>
  406956:	4681      	mov	r9, r0
  406958:	e7be      	b.n	4068d8 <__udivmoddi4+0x244>
  40695a:	4601      	mov	r1, r0
  40695c:	e778      	b.n	406850 <__udivmoddi4+0x1bc>
  40695e:	3802      	subs	r0, #2
  406960:	443c      	add	r4, r7
  406962:	e745      	b.n	4067f0 <__udivmoddi4+0x15c>
  406964:	4608      	mov	r0, r1
  406966:	e708      	b.n	40677a <__udivmoddi4+0xe6>
  406968:	f1a8 0802 	sub.w	r8, r8, #2
  40696c:	443d      	add	r5, r7
  40696e:	e72b      	b.n	4067c8 <__udivmoddi4+0x134>

00406970 <__aeabi_idiv0>:
  406970:	4770      	bx	lr
  406972:	bf00      	nop

00406974 <OV2640_JPEG>:
  406974:	14e0 77e1 1fe5 03d7 10da 00e0 01ff 0804     ...w............
  406984:	ffff 0000                                   ....

00406988 <OV2640_JPEG_1024x768>:
  406988:	01ff 0111 0012 1117 7518 3632 0119 971a     .........u26....
  406998:	0f03 4037 bb4f 9c50 575a 806d 343d 0239     ..7@O.P.ZWm.=49.
  4069a8:	8835 0a22 4037 a034 0206 b70d 010e 00ff     5.".7@4.........
  4069b8:	c8c0 96c1 008c 3d86 0050 9051 2c52 0053     .......=P.Q.R,S.
  4069c8:	0054 8855 005a c05b 015c 02d3 ffff 0000     T.U.Z.[.\.......

004069d8 <OV2640_JPEG_1280x1024>:
  4069d8:	01ff 0111 0012 1117 7518 3632 0119 971a     .........u26....
  4069e8:	0f03 4037 bb4f 9c50 575a 806d 343d 0239     ..7@O.P.ZWm.=49.
  4069f8:	8835 0a22 4037 a034 0206 b70d 010e 00ff     5.".7@4.........
  406a08:	04e0 c8c0 96c1 3d86 0050 9051 2c52 0053     .......=P.Q.R,S.
  406a18:	0054 8855 0057 405a f05b 015c 02d3 00e0     T.U.W.Z@[.\.....
  406a28:	ffff 0000                                   ....

00406a2c <OV2640_JPEG_1600x1200>:
  406a2c:	01ff 0111 0012 1117 7518 3632 0119 971a     .........u26....
  406a3c:	0f03 4037 bb4f 9c50 575a 806d 343d 0239     ..7@O.P.ZWm.=49.
  406a4c:	8835 0a22 4037 a034 0206 b70d 010e 00ff     5.".7@4.........
  406a5c:	04e0 c8c0 96c1 3d86 0050 9051 2c52 0053     .......=P.Q.R,S.
  406a6c:	0054 8855 0057 905a 2c5b 055c 02d3 00e0     T.U.W.Z.[,\.....
  406a7c:	ffff 0000                                   ....

00406a80 <OV2640_JPEG_320x240>:
  406a80:	01ff 4012 1117 4318 0019 4b1a 0932 ca4f     ...@...C...K2.O.
  406a90:	a850 235a 006d 1239 da35 1a22 c337 0023     P.Z#m.9.5.".7.#.
  406aa0:	c034 1a36 8806 c007 870d 410e 004c 00ff     4.6........AL...
  406ab0:	04e0 64c0 4bc1 3586 8950 c851 9652 0053     ...d.K.5P.Q.R.S.
  406ac0:	0054 0055 0057 505a 3c5b 005c 00e0 ffff     T.U.W.ZP[<\.....

00406ad0 <OV2640_JPEG_640x480>:
  406ad0:	01ff 0111 0012 1117 7518 3632 0119 971a     .........u26....
  406ae0:	0f03 4037 bb4f 9c50 575a 806d 343d 0239     ..7@O.P.ZWm.=49.
  406af0:	8835 0a22 4037 a034 0206 b70d 010e 00ff     5.".7@4.........
  406b00:	04e0 c8c0 96c1 3d86 8950 9051 2c52 0053     .......=P.Q.R,S.
  406b10:	0054 8855 0057 a05a 785b 005c 04d3 00e0     T.U.W.Z.[x\.....
  406b20:	ffff 0000                                   ....

00406b24 <OV2640_JPEG_800x600>:
  406b24:	01ff 0111 0012 1117 7518 3632 0119 971a     .........u26....
  406b34:	0f03 4037 bb4f 9c50 575a 806d 343d 0239     ..7@O.P.ZWm.=49.
  406b44:	8835 0a22 4037 a034 0206 b70d 010e 00ff     5.".7@4.........
  406b54:	04e0 c8c0 96c1 3586 8950 9051 2c52 0053     .......5P.Q.R,S.
  406b64:	0054 8855 0057 c85a 965b 005c 02d3 00e0     T.U.W.Z.[.\.....
  406b74:	ffff 0000                                   ....

00406b78 <OV2640_JPEG_INIT>:
  406b78:	00ff ff2c df2e 01ff 323c 0111 0209 2804     ..,.....<2.....(
  406b88:	e513 4814 0c2c 7833 333a fb3b 003e 1143     ...H,.3x:3;.>.C.
  406b98:	1016 9239 da35 1a22 c337 0023 c034 1a36     ..9.5.".7.#.4.6.
  406ba8:	8806 c007 870d 410e 004c 0048 005b 0342     .......AL.H.[.B.
  406bb8:	814a 9921 4024 3825 8226 005c 0063 7061     J.!.$@%8&.\.c.ap
  406bc8:	8062 057c 8020 3028 006c 806d 006e 0270     b.|. .(0l.m.n.p.
  406bd8:	9471 c173 4012 1117 4318 0019 4b1a 0932     q.s..@...C...K2.
  406be8:	c037 604f a850 006d 383d 3f46 604f 3c0c     7.O`P.m.=8F?O`.<
  406bf8:	00ff 7fe5 c0f9 2441 14e0 ff76 a033 2042     ......A$..v.3.B 
  406c08:	1843 004c d587 3f88 03d7 10d9 82d3 08c8     C.L....?........
  406c18:	80c9 007c 007d 037c 487d 487d 087c 207d     ..|.}.|.}H}H|.} 
  406c28:	107d 0e7d 0090 0e91 1a91 3191 5a91 6991     }.}........1.Z.i
  406c38:	7591 7e91 8891 8f91 9691 a391 af91 c491     .u.~............
  406c48:	d791 e891 2091 0092 0693 e393 0593 0593     ..... ..........
  406c58:	0093 0493 0093 0093 0093 0093 0093 0093     ................
  406c68:	0093 0096 0897 1997 0297 0c97 2497 3097     .............$.0
  406c78:	2897 2697 0297 9897 8097 0097 0097 edc3     .(.&............
  406c88:	00a4 00a8 11c5 51c6 80bf 10c7 66b6 a5b8     .......Q.....f..
  406c98:	64b7 7cb9 afb3 97b4 ffb5 c5b0 94b1 0fb2     .d.|............
  406ca8:	5cc4 64c0 4bc1 008c 3d86 0050 c851 9652     .\.d.K...=P.Q.R.
  406cb8:	0053 0054 0055 c85a 965b 005c 00d3 edc3     S.T.U.Z.[.\.....
  406cc8:	007f 00da 1fe5 67e1 00e0 7fdd 0005 4012     .......g.......@
  406cd8:	04d3 16c0 12c1 008c 3d86 0050 2c51 2452     .........=P.Q,R$
  406ce8:	0053 0054 0055 2c5a 245b 005c ffff 0000     S.T.U.Z,[$\.....

00406cf8 <OV2640_QQVGA_RGB888>:
  406cf8:	000e 8012 0013 0111 0012 10d5 120c 340d     ...............4
  406d08:	2517 a018 0319 f01a 891b 0322 1829 f82b     .%........".).+.
  406d18:	012c a031 f032 c433 b43a 3f36 6004 8027     ,.1.2.3.:.6?.`'.
  406d28:	0f3d 803e 403f 7f40 6a41 2942 e544 4145     =.>.?@@.AjB)D.EA
  406d38:	0247 6449 a14a 704b 1a4c 504d 134e 0064     G.IdJ.KpL.MPN.d.
  406d48:	8867 1a68 3814 3c24 3025 7226 9750 7e51     g.h..8$<%0&rP.Q~
  406d58:	0052 0053 0020 2321 1438 00e9 5556 ff57     R.S. .!#8...VUW.
  406d68:	ff58 ff59 045f 00ec ff13 7f80 3f81 3282     X.Y._........?.2
  406d78:	0183 1138 7084 0085 0386 0187 0588 3089     ..8..p.........0
  406d88:	308d 858f 3093 8595 3099 859b 089c 129d     .0...0...0......
  406d98:	239e 459f 55a0 64a1 72a2 7fa3 8ba4 95a5     .#.E.U.d.r......
  406da8:	a7a6 b5a7 cba8 dda9 ecaa 1aab 78ce 6ecf     .............x.n
  406db8:	0ad0 0cd1 84d2 90d3 1ed4 245a 1f5b 885c     ..........Z$[.\.
  406dc8:	605d 6eac ffbe 00bf 2831 3c32 3f82 0112     ]`.n....1(2<.?..
  406dd8:	2f36 0483 0053 f433 8a1b 0322 0084 0084     6/..S.3...".....
  406de8:	0228 ffff                                   (...

00406dec <OV2640_QQVGA_YUV422>:
  406dec:	000e 8012 0013 0111 0012 10d5 540c 340d     .............T.4
  406dfc:	0116 2517 a018 0319 f01a 891b 0322 1829     ...%........".).
  406e0c:	f82b 012c a031 f032 c433 b43a 3f36 6004     +.,.1.2.3.:.6?.`
  406e1c:	8027 0f3d 803e 403f 7f40 6a41 2942 e544     '.=.>.?@@.AjB)D.
  406e2c:	4145 0247 6449 a14a 704b 1a4c 504d 134e     EAG.IdJ.KpL.MPN.
  406e3c:	0064 8867 1a68 3814 3c24 3025 7226 9750     d.g.h..8$<%0&rP.
  406e4c:	7e51 0052 0053 0020 2321 1438 00e9 5556     Q~R.S. .!#8...VU
  406e5c:	ff57 ff58 ff59 045f 00ec ff13 7f80 3f81     W.X.Y._........?
  406e6c:	3282 0183 1138 7084 0085 0386 0187 0588     .2..8..p........
  406e7c:	3089 308d 858f 3093 8595 3099 859b 089c     .0.0...0...0....
  406e8c:	129d 239e 459f 55a0 64a1 72a2 7fa3 8ba4     ...#.E.U.d.r....
  406e9c:	95a5 a7a6 b5a7 cba8 dda9 ecaa 1aab 78ce     ...............x
  406eac:	6ecf 0ad0 0cd1 84d2 90d3 1ed4 245a 1f5b     .n..........Z$[.
  406ebc:	885c 605d 6eac ffbe 00bf 2831 3c32 0034     \.]`.n....1(2<4.
  406ecc:	3f82 0012 3f36 0053 0033 891b 0322 0228     .?..6?S.3...".(.
  406edc:	00d9 ffff                                   ....

00406ee0 <OV2640_QVGA_RGB888>:
  406ee0:	000e 8012 0013 0111 0012 10d5 120c 340d     ...............4
  406ef0:	2517 a018 0319 f01a 891b 0322 1829 f82b     .%........".).+.
  406f00:	012c a031 f032 c433 b43a 3f36 6004 8027     ,.1.2.3.:.6?.`'.
  406f10:	0f3d 803e 403f 7f40 6a41 2942 e544 4145     =.>.?@@.AjB)D.EA
  406f20:	0247 6449 a14a 704b 1a4c 504d 134e 0064     G.IdJ.KpL.MPN.d.
  406f30:	8867 1a68 3814 3c24 3025 7226 9750 7e51     g.h..8$<%0&rP.Q~
  406f40:	0052 0053 0020 2321 1438 00e9 5556 ff57     R.S. .!#8...VUW.
  406f50:	ff58 ff59 045f 00ec ff13 7f80 3f81 3282     X.Y._........?.2
  406f60:	0183 1138 7084 0085 0386 0187 0588 3089     ..8..p.........0
  406f70:	308d 858f 3093 8595 3099 859b 089c 129d     .0...0...0......
  406f80:	239e 459f 55a0 64a1 72a2 7fa3 8ba4 95a5     .#.E.U.d.r......
  406f90:	a7a6 b5a7 cba8 dda9 ecaa 1aab 78ce 6ecf     .............x.n
  406fa0:	0ad0 0cd1 84d2 90d3 1ed4 245a 1f5b 885c     ..........Z$[.\.
  406fb0:	605d 6eac ffbe 00bf 5031 7832 3f82 0112     ]`.n....1P2x.?..
  406fc0:	2f36 0483 0053 f433 8a1b 0322 0084 0084     6/..S.3...".....
  406fd0:	0228 ffff                                   (...

00406fd4 <OV2640_QVGA_YUV422_10FPS>:
  406fd4:	000e 8012 05fe 0013 0511 0012 10d5 d40c     ................
  406fe4:	340d 0116 2517 a018 0319 f01a 891b 0322     .4...%........".
  406ff4:	1829 f82b 012c a031 f032 c433 b43a 3f36     ).+.,.1.2.3.:.6?
  407004:	6004 8027 0f3d 803e 403f 7f40 6a41 2942     .`'.=.>.?@@.AjB)
  407014:	e544 4145 0247 6449 a14a 704b 1a4c 504d     D.EAG.IdJ.KpL.MP
  407024:	134e 0064 8867 1a68 3814 3c24 3025 7226     N.d.g.h..8$<%0&r
  407034:	9750 7e51 0052 0053 0020 2321 1438 00e9     P.Q~R.S. .!#8...
  407044:	5556 ff57 ff58 ff59 045f 00ec ff13 7f80     VUW.X.Y._.......
  407054:	3f81 3282 0183 1138 0085 0386 0187 0588     .?.2..8.........
  407064:	3089 308d 858f 3093 8595 3099 859b 089c     .0.0...0...0....
  407074:	129d 239e 459f 55a0 64a1 72a2 7fa3 8ba4     ...#.E.U.d.r....
  407084:	95a5 a7a6 b5a7 cba8 dda9 ecaa 1aab 78ce     ...............x
  407094:	6ecf 0ad0 0cd1 84d2 90d3 1ed4 245a 1f5b     .n..........Z$[.
  4070a4:	885c 605d 6eac ffbe 00bf 5031 7832 3f82     \.]`.n....1P2x.?
  4070b4:	0012 3f36 0053 c433 891b 0322 0228 ffff     ..6?S.3...".(...

004070c4 <OV2640_QVGA_YUV422_15FPS>:
  4070c4:	000e 8012 05fe 0013 0311 0012 10d5 d40c     ................
  4070d4:	340d 0116 2517 a018 0319 f01a 891b 0322     .4...%........".
  4070e4:	1829 f82b 012c a031 f032 c433 b43a 3f36     ).+.,.1.2.3.:.6?
  4070f4:	6004 8027 0f3d 803e 403f 7f40 6a41 2942     .`'.=.>.?@@.AjB)
  407104:	e544 4145 0247 6449 a14a 704b 1a4c 504d     D.EAG.IdJ.KpL.MP
  407114:	134e 0064 8867 1a68 3814 3c24 3025 7226     N.d.g.h..8$<%0&r
  407124:	9750 7e51 0052 0053 0020 2321 1438 00e9     P.Q~R.S. .!#8...
  407134:	5556 ff57 ff58 ff59 045f 00ec ff13 7f80     VUW.X.Y._.......
  407144:	3f81 3282 0183 1138 0085 0386 0187 0588     .?.2..8.........
  407154:	3089 308d 858f 3093 8595 3099 859b 089c     .0.0...0...0....
  407164:	129d 239e 459f 55a0 64a1 72a2 7fa3 8ba4     ...#.E.U.d.r....
  407174:	95a5 a7a6 b5a7 cba8 dda9 ecaa 1aab 78ce     ...............x
  407184:	6ecf 0ad0 0cd1 84d2 90d3 1ed4 245a 1f5b     .n..........Z$[.
  407194:	885c 605d 6eac ffbe 00bf 5031 7832 3f82     \.]`.n....1P2x.?
  4071a4:	0012 3f36 0053 c433 891b 0322 0228 ffff     ..6?S.3...".(...

004071b4 <OV2640_QVGA_YUV422_20FPS>:
  4071b4:	000e 8012 05fe 0013 0211 0012 10d5 d40c     ................
  4071c4:	340d 0116 2517 a018 0319 f01a 891b 0322     .4...%........".
  4071d4:	1829 f82b 012c a031 f032 c433 b43a 3f36     ).+.,.1.2.3.:.6?
  4071e4:	6004 8027 0f3d 803e 403f 7f40 6a41 2942     .`'.=.>.?@@.AjB)
  4071f4:	e544 4145 0247 6449 a14a 704b 1a4c 504d     D.EAG.IdJ.KpL.MP
  407204:	134e 0064 8867 1a68 3814 3c24 3025 7226     N.d.g.h..8$<%0&r
  407214:	9750 7e51 0052 0053 0020 2321 1438 00e9     P.Q~R.S. .!#8...
  407224:	5556 ff57 ff58 ff59 045f 00ec ff13 7f80     VUW.X.Y._.......
  407234:	3f81 3282 0183 1138 0085 0386 0187 0588     .?.2..8.........
  407244:	3089 308d 858f 3093 8595 3099 859b 089c     .0.0...0...0....
  407254:	129d 239e 459f 55a0 64a1 72a2 7fa3 8ba4     ...#.E.U.d.r....
  407264:	95a5 a7a6 b5a7 cba8 dda9 ecaa 1aab 78ce     ...............x
  407274:	6ecf 0ad0 0cd1 84d2 90d3 1ed4 245a 1f5b     .n..........Z$[.
  407284:	885c 605d 6eac ffbe 00bf 5031 7832 3f82     \.]`.n....1P2x.?
  407294:	0012 3f36 0053 c433 891b 0322 0228 ffff     ..6?S.3...".(...

004072a4 <OV2640_QVGA_YUV422_30FPS>:
  4072a4:	000e 8012 05fe 0013 0111 0012 10d5 d40c     ................
  4072b4:	340d 0116 2517 a018 0319 f01a 891b 0322     .4...%........".
  4072c4:	1829 f82b 012c a031 f032 c433 b43a 3f36     ).+.,.1.2.3.:.6?
  4072d4:	6004 8027 0f3d 803e 403f 7f40 6a41 2942     .`'.=.>.?@@.AjB)
  4072e4:	e544 4145 0247 6449 a14a 704b 1a4c 504d     D.EAG.IdJ.KpL.MP
  4072f4:	134e 0064 8867 1a68 3814 3c24 3025 7226     N.d.g.h..8$<%0&r
  407304:	9750 7e51 0052 0053 0020 2321 1438 00e9     P.Q~R.S. .!#8...
  407314:	5556 ff57 ff58 ff59 045f 00ec ff13 7f80     VUW.X.Y._.......
  407324:	3f81 3282 0183 1138 0085 0386 0187 0588     .?.2..8.........
  407334:	3089 308d 858f 3093 8595 3099 859b 089c     .0.0...0...0....
  407344:	129d 239e 459f 55a0 64a1 72a2 7fa3 8ba4     ...#.E.U.d.r....
  407354:	95a5 a7a6 b5a7 cba8 dda9 ecaa 1aab 78ce     ...............x
  407364:	6ecf 0ad0 0cd1 84d2 90d3 1ed4 245a 1f5b     .n..........Z$[.
  407374:	885c 605d 6eac ffbe 00bf 5031 7832 3f82     \.]`.n....1P2x.?
  407384:	0012 3f36 0053 c433 891b 0322 0228 ffff     ..6?S.3...".(...

00407394 <OV2640_TEST_PATTERN>:
  407394:	000e 8012 05fe 0013 0211 0012 10d5 d40c     ................
  4073a4:	340d 0116 2517 a018 0319 f01a 891b 0322     .4...%........".
  4073b4:	1829 f82b 012c a031 f032 c433 b43a 3f36     ).+.,.1.2.3.:.6?
  4073c4:	6004 8027 0f3d 803e 403f 7f40 6a41 2942     .`'.=.>.?@@.AjB)
  4073d4:	e544 4145 0247 6449 a14a 704b 1a4c 504d     D.EAG.IdJ.KpL.MP
  4073e4:	134e 0064 8867 1a68 3814 3c24 3025 7226     N.d.g.h..8$<%0&r
  4073f4:	9750 7e51 0052 0053 0020 2321 0738 0284     P.Q~R.S. .!#8...
  407404:	1438 00e9 5556 ff57 ff58 ff59 045f 00ec     8...VUW.X.Y._...
  407414:	ff13 7f80 3f81 3282 0183 1138 0085 0386     .....?.2..8.....
  407424:	0187 0588 3089 308d 858f 3093 8595 3099     .....0.0...0...0
  407434:	859b 089c 129d 239e 459f 55a0 64a1 72a2     .......#.E.U.d.r
  407444:	7fa3 8ba4 95a5 a7a6 b5a7 cba8 dda9 ecaa     ................
  407454:	1aab 78ce 6ecf 0ad0 0cd1 84d2 90d3 1ed4     ...x.n..........
  407464:	245a 1f5b 885c 605d 6eac ffbe 00bf 5031     Z$[.\.]`.n....1P
  407474:	7832 3f82 0012 3f36 0053 c433 891b 0322     2x.?..6?S.3...".
  407484:	0228 ffff                                   (...

00407488 <OV2640_VGA_YUV422_20FPS>:
  407488:	000e 8012 05fe 0013 0211 0012 10d5 d40c     ................
  407498:	340d 0116 2517 a018 0319 f01a 891b 0322     .4...%........".
  4074a8:	1829 f82b 012c a031 f032 c433 b43a 3f36     ).+.,.1.2.3.:.6?
  4074b8:	6004 8027 0f3d 803e 403f 7f40 6a41 2942     .`'.=.>.?@@.AjB)
  4074c8:	e544 4145 0247 6449 a14a 704b 1a4c 504d     D.EAG.IdJ.KpL.MP
  4074d8:	134e 0064 8867 1a68 3814 3c24 3025 7226     N.d.g.h..8$<%0&r
  4074e8:	9750 7e51 0052 0053 0020 2321 1438 00e9     P.Q~R.S. .!#8...
  4074f8:	5556 ff57 ff58 ff59 045f 00ec ff13 7f80     VUW.X.Y._.......
  407508:	3f81 3282 0183 1138 0085 0386 0187 0588     .?.2..8.........
  407518:	3089 308d 858f 3093 8595 3099 859b 089c     .0.0...0...0....
  407528:	129d 239e 459f 55a0 64a1 72a2 7fa3 8ba4     ...#.E.U.d.r....
  407538:	95a5 a7a6 b5a7 cba8 dda9 ecaa 1aab 78ce     ...............x
  407548:	6ecf 0ad0 0cd1 84d2 90d3 1ed4 245a 1f5b     .n..........Z$[.
  407558:	885c 605d 6eac ffbe 00bf a031 f032 3f82     \.]`.n....1.2..?
  407568:	0012 3f36 0053 c433 891b 0322 0228 ffff     ..6?S.3...".(...

00407578 <OV2640_YUV422>:
  407578:	00ff 0005 10da 03d7 00df 8033 403c 77e1     ..........3.<@.w
  407588:	0000 ffff c200 0001 00c0 0000 0800 0000     ................
	...
  4075a4:	5553 4343 5345 0053 6d69 6761 5f65 7274     SUCCESS.image_tr
  4075b4:	6e61 6673 7265 2520 0064 0000 7325 0a0d     ansfer %d...%s..
  4075c4:	0000 0000 6573 2074 6c77 6e61 675f 6970     ....set wlan_gpi
  4075d4:	206f 6425 0000 0000 6573 2074 6577 7362     o %d....set webs
  4075e4:	636f 656b 5f74 7067 6f69 2520 0064 0000     ocket_gpio %d...
  4075f4:	6573 2074 7061 675f 6970 206f 6425 0000     set ap_gpio %d..
  407604:	6573 2074 6f63 6d6d 675f 6970 206f 6425     set comm_gpio %d
  407614:	0000 0000 6573 2074 656e 5f74 7067 6f69     ....set net_gpio
  407624:	2520 0064 6573 2074 6c63 6569 746e 5f73      %d.set clients_
  407634:	7067 6f69 2520 0064 6573 2074 7073 5f69     gpio %d.set spi_
  407644:	6162 6475 2520 0064 7270 766f 7369 6f69     baud %d.provisio
  407654:	006e 0000 6567 2074 616d 0063 6574 7473     n...get mac.test
  407664:	0000 0000                                   ....

00407668 <_global_impure_ptr>:
  407668:	0018 2000 4e49 0046 6e69 0066 414e 004e     ... INF.inf.NAN.
  407678:	616e 006e 3130 3332 3534 3736 3938 4241     nan.0123456789AB
  407688:	4443 4645 0000 0000 3130 3332 3534 3736     CDEF....01234567
  407698:	3938 6261 6463 6665 0000 0000 6e28 6c75     89abcdef....(nul
  4076a8:	296c 0000 0030 0000                         l)..0...

004076b0 <blanks.7223>:
  4076b0:	2020 2020 2020 2020 2020 2020 2020 2020                     

004076c0 <zeroes.7224>:
  4076c0:	3030 3030 3030 3030 3030 3030 3030 3030     0000000000000000
  4076d0:	6e49 6966 696e 7974 0000 0000 614e 004e     Infinity....NaN.

004076e0 <__mprec_bigtens>:
  4076e0:	8000 37e0 c379 4341 6e17 b505 b8b5 4693     ...7y.AC.n.....F
  4076f0:	f9f5 e93f 4f03 4d38 1d32 f930 7748 5a82     ..?..O8M2.0.Hw.Z
  407700:	bf3c 7f73 4fdd 7515                         <.s..O.u

00407708 <__mprec_tens>:
  407708:	0000 0000 0000 3ff0 0000 0000 0000 4024     .......?......$@
  407718:	0000 0000 0000 4059 0000 0000 4000 408f     ......Y@.....@.@
  407728:	0000 0000 8800 40c3 0000 0000 6a00 40f8     .......@.....j.@
  407738:	0000 0000 8480 412e 0000 0000 12d0 4163     .......A......cA
  407748:	0000 0000 d784 4197 0000 0000 cd65 41cd     .......A....e..A
  407758:	0000 2000 a05f 4202 0000 e800 4876 4237     ... _..B....vH7B
  407768:	0000 a200 1a94 426d 0000 e540 309c 42a2     ......mB..@..0.B
  407778:	0000 1e90 bcc4 42d6 0000 2634 6bf5 430c     .......B..4&.k.C
  407788:	8000 37e0 c379 4341 a000 85d8 3457 4376     ...7y.AC....W4vC
  407798:	c800 674e c16d 43ab 3d00 6091 58e4 43e1     ..Ngm..C.=.`.X.C
  4077a8:	8c40 78b5 af1d 4415 ef50 d6e2 1ae4 444b     @..x...DP.....KD
  4077b8:	d592 064d f0cf 4480 4af6 c7e1 2d02 44b5     ..M....D.J...-.D
  4077c8:	9db4 79d9 7843 44ea                         ...yCx.D

004077d0 <p05.6055>:
  4077d0:	0005 0000 0019 0000 007d 0000 0043 0000     ........}...C...
  4077e0:	4f50 4953 0058 0000 002e 0000               POSIX.......

004077ec <_ctype_>:
  4077ec:	2000 2020 2020 2020 2020 2828 2828 2028     .         ((((( 
  4077fc:	2020 2020 2020 2020 2020 2020 2020 2020                     
  40780c:	8820 1010 1010 1010 1010 1010 1010 1010      ...............
  40781c:	0410 0404 0404 0404 0404 1004 1010 1010     ................
  40782c:	1010 4141 4141 4141 0101 0101 0101 0101     ..AAAAAA........
  40783c:	0101 0101 0101 0101 0101 0101 1010 1010     ................
  40784c:	1010 4242 4242 4242 0202 0202 0202 0202     ..BBBBBB........
  40785c:	0202 0202 0202 0202 0202 0202 1010 1010     ................
  40786c:	0020 0000 0000 0000 0000 0000 0000 0000      ...............
	...

004078f0 <_init>:
  4078f0:	b5f8      	push	{r3, r4, r5, r6, r7, lr}
  4078f2:	bf00      	nop
  4078f4:	bcf8      	pop	{r3, r4, r5, r6, r7}
  4078f6:	bc08      	pop	{r3}
  4078f8:	469e      	mov	lr, r3
  4078fa:	4770      	bx	lr

004078fc <__init_array_start>:
  4078fc:	004034a9 	.word	0x004034a9

00407900 <__frame_dummy_init_array_entry>:
  407900:	004000f1                                ..@.

00407904 <_fini>:
  407904:	b5f8      	push	{r3, r4, r5, r6, r7, lr}
  407906:	bf00      	nop
  407908:	bcf8      	pop	{r3, r4, r5, r6, r7}
  40790a:	bc08      	pop	{r3}
  40790c:	469e      	mov	lr, r3
  40790e:	4770      	bx	lr

00407910 <__fini_array_start>:
  407910:	004000cd 	.word	0x004000cd

Disassembly of section .relocate:

20000000 <portable_delay_cycles>:
20000000:	f3bf 8f5f 	dmb	sy
20000004:	3801      	subs	r0, #1
20000006:	d1fb      	bne.n	20000000 <portable_delay_cycles>
20000008:	4770      	bx	lr
	...

2000000c <SystemCoreClock>:
2000000c:	0900 003d                                   ..=.

20000010 <_impure_ptr>:
20000010:	0018 2000 0000 0000                         ... ....

20000018 <impure_data>:
20000018:	0000 0000 0304 2000 036c 2000 03d4 2000     ....... l.. ... 
	...
200000c0:	0001 0000 0000 0000 330e abcd 1234 e66d     .........3..4.m.
200000d0:	deec 0005 000b 0000 0000 0000 0000 0000     ................
	...

20000440 <__atexit_recursive_mutex>:
20000440:	96f8 2001                                   ... 

20000444 <__malloc_av_>:
	...
2000044c:	0444 2000 0444 2000 044c 2000 044c 2000     D.. D.. L.. L.. 
2000045c:	0454 2000 0454 2000 045c 2000 045c 2000     T.. T.. \.. \.. 
2000046c:	0464 2000 0464 2000 046c 2000 046c 2000     d.. d.. l.. l.. 
2000047c:	0474 2000 0474 2000 047c 2000 047c 2000     t.. t.. |.. |.. 
2000048c:	0484 2000 0484 2000 048c 2000 048c 2000     ... ... ... ... 
2000049c:	0494 2000 0494 2000 049c 2000 049c 2000     ... ... ... ... 
200004ac:	04a4 2000 04a4 2000 04ac 2000 04ac 2000     ... ... ... ... 
200004bc:	04b4 2000 04b4 2000 04bc 2000 04bc 2000     ... ... ... ... 
200004cc:	04c4 2000 04c4 2000 04cc 2000 04cc 2000     ... ... ... ... 
200004dc:	04d4 2000 04d4 2000 04dc 2000 04dc 2000     ... ... ... ... 
200004ec:	04e4 2000 04e4 2000 04ec 2000 04ec 2000     ... ... ... ... 
200004fc:	04f4 2000 04f4 2000 04fc 2000 04fc 2000     ... ... ... ... 
2000050c:	0504 2000 0504 2000 050c 2000 050c 2000     ... ... ... ... 
2000051c:	0514 2000 0514 2000 051c 2000 051c 2000     ... ... ... ... 
2000052c:	0524 2000 0524 2000 052c 2000 052c 2000     $.. $.. ,.. ,.. 
2000053c:	0534 2000 0534 2000 053c 2000 053c 2000     4.. 4.. <.. <.. 
2000054c:	0544 2000 0544 2000 054c 2000 054c 2000     D.. D.. L.. L.. 
2000055c:	0554 2000 0554 2000 055c 2000 055c 2000     T.. T.. \.. \.. 
2000056c:	0564 2000 0564 2000 056c 2000 056c 2000     d.. d.. l.. l.. 
2000057c:	0574 2000 0574 2000 057c 2000 057c 2000     t.. t.. |.. |.. 
2000058c:	0584 2000 0584 2000 058c 2000 058c 2000     ... ... ... ... 
2000059c:	0594 2000 0594 2000 059c 2000 059c 2000     ... ... ... ... 
200005ac:	05a4 2000 05a4 2000 05ac 2000 05ac 2000     ... ... ... ... 
200005bc:	05b4 2000 05b4 2000 05bc 2000 05bc 2000     ... ... ... ... 
200005cc:	05c4 2000 05c4 2000 05cc 2000 05cc 2000     ... ... ... ... 
200005dc:	05d4 2000 05d4 2000 05dc 2000 05dc 2000     ... ... ... ... 
200005ec:	05e4 2000 05e4 2000 05ec 2000 05ec 2000     ... ... ... ... 
200005fc:	05f4 2000 05f4 2000 05fc 2000 05fc 2000     ... ... ... ... 
2000060c:	0604 2000 0604 2000 060c 2000 060c 2000     ... ... ... ... 
2000061c:	0614 2000 0614 2000 061c 2000 061c 2000     ... ... ... ... 
2000062c:	0624 2000 0624 2000 062c 2000 062c 2000     $.. $.. ,.. ,.. 
2000063c:	0634 2000 0634 2000 063c 2000 063c 2000     4.. 4.. <.. <.. 
2000064c:	0644 2000 0644 2000 064c 2000 064c 2000     D.. D.. L.. L.. 
2000065c:	0654 2000 0654 2000 065c 2000 065c 2000     T.. T.. \.. \.. 
2000066c:	0664 2000 0664 2000 066c 2000 066c 2000     d.. d.. l.. l.. 
2000067c:	0674 2000 0674 2000 067c 2000 067c 2000     t.. t.. |.. |.. 
2000068c:	0684 2000 0684 2000 068c 2000 068c 2000     ... ... ... ... 
2000069c:	0694 2000 0694 2000 069c 2000 069c 2000     ... ... ... ... 
200006ac:	06a4 2000 06a4 2000 06ac 2000 06ac 2000     ... ... ... ... 
200006bc:	06b4 2000 06b4 2000 06bc 2000 06bc 2000     ... ... ... ... 
200006cc:	06c4 2000 06c4 2000 06cc 2000 06cc 2000     ... ... ... ... 
200006dc:	06d4 2000 06d4 2000 06dc 2000 06dc 2000     ... ... ... ... 
200006ec:	06e4 2000 06e4 2000 06ec 2000 06ec 2000     ... ... ... ... 
200006fc:	06f4 2000 06f4 2000 06fc 2000 06fc 2000     ... ... ... ... 
2000070c:	0704 2000 0704 2000 070c 2000 070c 2000     ... ... ... ... 
2000071c:	0714 2000 0714 2000 071c 2000 071c 2000     ... ... ... ... 
2000072c:	0724 2000 0724 2000 072c 2000 072c 2000     $.. $.. ,.. ,.. 
2000073c:	0734 2000 0734 2000 073c 2000 073c 2000     4.. 4.. <.. <.. 
2000074c:	0744 2000 0744 2000 074c 2000 074c 2000     D.. D.. L.. L.. 
2000075c:	0754 2000 0754 2000 075c 2000 075c 2000     T.. T.. \.. \.. 
2000076c:	0764 2000 0764 2000 076c 2000 076c 2000     d.. d.. l.. l.. 
2000077c:	0774 2000 0774 2000 077c 2000 077c 2000     t.. t.. |.. |.. 
2000078c:	0784 2000 0784 2000 078c 2000 078c 2000     ... ... ... ... 
2000079c:	0794 2000 0794 2000 079c 2000 079c 2000     ... ... ... ... 
200007ac:	07a4 2000 07a4 2000 07ac 2000 07ac 2000     ... ... ... ... 
200007bc:	07b4 2000 07b4 2000 07bc 2000 07bc 2000     ... ... ... ... 
200007cc:	07c4 2000 07c4 2000 07cc 2000 07cc 2000     ... ... ... ... 
200007dc:	07d4 2000 07d4 2000 07dc 2000 07dc 2000     ... ... ... ... 
200007ec:	07e4 2000 07e4 2000 07ec 2000 07ec 2000     ... ... ... ... 
200007fc:	07f4 2000 07f4 2000 07fc 2000 07fc 2000     ... ... ... ... 
2000080c:	0804 2000 0804 2000 080c 2000 080c 2000     ... ... ... ... 
2000081c:	0814 2000 0814 2000 081c 2000 081c 2000     ... ... ... ... 
2000082c:	0824 2000 0824 2000 082c 2000 082c 2000     $.. $.. ,.. ,.. 
2000083c:	0834 2000 0834 2000 083c 2000 083c 2000     4.. 4.. <.. <.. 

2000084c <__malloc_sbrk_base>:
2000084c:	ffff ffff                                   ....

20000850 <__malloc_trim_threshold>:
20000850:	0000 0002                                   ....

20000854 <__global_locale>:
20000854:	0043 0000 0000 0000 0000 0000 0000 0000     C...............
	...
20000874:	0043 0000 0000 0000 0000 0000 0000 0000     C...............
	...
20000894:	0043 0000 0000 0000 0000 0000 0000 0000     C...............
	...
200008b4:	0043 0000 0000 0000 0000 0000 0000 0000     C...............
	...
200008d4:	0043 0000 0000 0000 0000 0000 0000 0000     C...............
	...
200008f4:	0043 0000 0000 0000 0000 0000 0000 0000     C...............
	...
20000914:	0043 0000 0000 0000 0000 0000 0000 0000     C...............
	...
20000934:	5d29 0040 58e9 0040 0000 0000 77ec 0040     )]@..X@......w@.
20000944:	77e8 0040 75c4 0040 75c4 0040 75c4 0040     .w@..u@..u@..u@.
20000954:	75c4 0040 75c4 0040 75c4 0040 75c4 0040     .u@..u@..u@..u@.
20000964:	75c4 0040 75c4 0040 ffff ffff ffff ffff     .u@..u@.........
20000974:	ffff ffff ffff 0000 0001 5341 4943 0049     ..........ASCII.
	...
2000099c:	0000 5341 4943 0049 0000 0000 0000 0000     ..ASCII.........
	...
